Archive member included because of file (symbol)

c:/software/altera/10.1/nios2eds/bin/gnu/h-i686-mingw32/bin/../lib/gcc/nios2-elf/4.1.2/../../../../nios2-elf/lib\libm.a(lib_a-s_ceil.o)
                              obj/sd_card.o (ceil)
c:/software/altera/10.1/nios2eds/bin/gnu/h-i686-mingw32/bin/../lib/gcc/nios2-elf/4.1.2\libgcc.a(_addsub_df.o)
                              c:/software/altera/10.1/nios2eds/bin/gnu/h-i686-mingw32/bin/../lib/gcc/nios2-elf/4.1.2/../../../../nios2-elf/lib\libm.a(lib_a-s_ceil.o) (__adddf3)
c:/software/altera/10.1/nios2eds/bin/gnu/h-i686-mingw32/bin/../lib/gcc/nios2-elf/4.1.2\libgcc.a(_mul_df.o)
                              obj/sd_card.o (__muldf3)
c:/software/altera/10.1/nios2eds/bin/gnu/h-i686-mingw32/bin/../lib/gcc/nios2-elf/4.1.2\libgcc.a(_gt_df.o)
                              c:/software/altera/10.1/nios2eds/bin/gnu/h-i686-mingw32/bin/../lib/gcc/nios2-elf/4.1.2/../../../../nios2-elf/lib\libm.a(lib_a-s_ceil.o) (__gtdf2)
c:/software/altera/10.1/nios2eds/bin/gnu/h-i686-mingw32/bin/../lib/gcc/nios2-elf/4.1.2\libgcc.a(_df_to_si.o)
                              obj/sd_card.o (__fixdfsi)
c:/software/altera/10.1/nios2eds/bin/gnu/h-i686-mingw32/bin/../lib/gcc/nios2-elf/4.1.2\libgcc.a(_thenan_df.o)
                              c:/software/altera/10.1/nios2eds/bin/gnu/h-i686-mingw32/bin/../lib/gcc/nios2-elf/4.1.2\libgcc.a(_addsub_df.o) (__thenan_df)
c:/software/altera/10.1/nios2eds/bin/gnu/h-i686-mingw32/bin/../lib/gcc/nios2-elf/4.1.2\libgcc.a(_usi_to_df.o)
                              obj/sd_card.o (__floatunsidf)
c:/software/altera/10.1/nios2eds/bin/gnu/h-i686-mingw32/bin/../lib/gcc/nios2-elf/4.1.2\libgcc.a(lib2-divmod.o)
                              obj/decoder/mjpeg423_decoder.o (__divsi3)
c:/software/altera/10.1/nios2eds/bin/gnu/h-i686-mingw32/bin/../lib/gcc/nios2-elf/4.1.2\libgcc.a(lib2-divtable.o)
                              obj/decoder/mjpeg423_decoder.o (__divsi3_table)
c:/software/altera/10.1/nios2eds/bin/gnu/h-i686-mingw32/bin/../lib/gcc/nios2-elf/4.1.2\libgcc.a(_muldi3.o)
                              c:/software/altera/10.1/nios2eds/bin/gnu/h-i686-mingw32/bin/../lib/gcc/nios2-elf/4.1.2\libgcc.a(_mul_df.o) (__muldi3)
c:/software/altera/10.1/nios2eds/bin/gnu/h-i686-mingw32/bin/../lib/gcc/nios2-elf/4.1.2\libgcc.a(_clzsi2.o)
                              c:/software/altera/10.1/nios2eds/bin/gnu/h-i686-mingw32/bin/../lib/gcc/nios2-elf/4.1.2\libgcc.a(_usi_to_df.o) (__clzsi2)
c:/software/altera/10.1/nios2eds/bin/gnu/h-i686-mingw32/bin/../lib/gcc/nios2-elf/4.1.2\libgcc.a(_pack_df.o)
                              c:/software/altera/10.1/nios2eds/bin/gnu/h-i686-mingw32/bin/../lib/gcc/nios2-elf/4.1.2\libgcc.a(_addsub_df.o) (__pack_d)
c:/software/altera/10.1/nios2eds/bin/gnu/h-i686-mingw32/bin/../lib/gcc/nios2-elf/4.1.2\libgcc.a(_unpack_df.o)
                              c:/software/altera/10.1/nios2eds/bin/gnu/h-i686-mingw32/bin/../lib/gcc/nios2-elf/4.1.2\libgcc.a(_addsub_df.o) (__unpack_d)
c:/software/altera/10.1/nios2eds/bin/gnu/h-i686-mingw32/bin/../lib/gcc/nios2-elf/4.1.2\libgcc.a(_fpcmp_parts_df.o)
                              c:/software/altera/10.1/nios2eds/bin/gnu/h-i686-mingw32/bin/../lib/gcc/nios2-elf/4.1.2\libgcc.a(_gt_df.o) (__fpcmp_parts_d)
c:/software/altera/10.1/nios2eds/bin/gnu/h-i686-mingw32/bin/../lib/gcc/nios2-elf/4.1.2\libgcc.a(_clz.o)
                              c:/software/altera/10.1/nios2eds/bin/gnu/h-i686-mingw32/bin/../lib/gcc/nios2-elf/4.1.2\libgcc.a(_clzsi2.o) (__clz_tab)
c:/software/altera/10.1/nios2eds/bin/gnu/h-i686-mingw32/bin/../lib/gcc/nios2-elf/4.1.2/../../../../nios2-elf/lib\libc.a(lib_a-exit.o)
                              obj/common/util.o (exit)
c:/software/altera/10.1/nios2eds/bin/gnu/h-i686-mingw32/bin/../lib/gcc/nios2-elf/4.1.2/../../../../nios2-elf/lib\libc.a(lib_a-impure.o)
                              c:/software/altera/10.1/nios2eds/bin/gnu/h-i686-mingw32/bin/../lib/gcc/nios2-elf/4.1.2/../../../../nios2-elf/lib\libc.a(lib_a-exit.o) (_global_impure_ptr)
c:/software/altera/10.1/nios2eds/bin/gnu/h-i686-mingw32/bin/../lib/gcc/nios2-elf/4.1.2/../../../../nios2-elf/lib\libc.a(lib_a-int_errno.o)
                              obj/hello_world.o (errno)
c:/software/altera/10.1/nios2eds/bin/gnu/h-i686-mingw32/bin/../lib/gcc/nios2-elf/4.1.2/../../../../nios2-elf/lib\libc.a(lib_a-malloc.o)
                              obj/decoder/mjpeg423_decoder.o (free)
c:/software/altera/10.1/nios2eds/bin/gnu/h-i686-mingw32/bin/../lib/gcc/nios2-elf/4.1.2/../../../../nios2-elf/lib\libc.a(lib_a-mallocr.o)
                              c:/software/altera/10.1/nios2eds/bin/gnu/h-i686-mingw32/bin/../lib/gcc/nios2-elf/4.1.2/../../../../nios2-elf/lib\libc.a(lib_a-malloc.o) (_malloc_r)
c:/software/altera/10.1/nios2eds/bin/gnu/h-i686-mingw32/bin/../lib/gcc/nios2-elf/4.1.2/../../../../nios2-elf/lib\libc.a(lib_a-printf.o)
                              obj/common/util.o (printf)
c:/software/altera/10.1/nios2eds/bin/gnu/h-i686-mingw32/bin/../lib/gcc/nios2-elf/4.1.2/../../../../nios2-elf/lib\libc.a(lib_a-putchar.o)
                              obj/common/util.o (putchar)
c:/software/altera/10.1/nios2eds/bin/gnu/h-i686-mingw32/bin/../lib/gcc/nios2-elf/4.1.2/../../../../nios2-elf/lib\libc.a(lib_a-puts.o)
                              obj/decoder/mjpeg423_decoder.o (puts)
c:/software/altera/10.1/nios2eds/bin/gnu/h-i686-mingw32/bin/../lib/gcc/nios2-elf/4.1.2/../../../../nios2-elf/lib\libc.a(lib_a-sbrkr.o)
                              c:/software/altera/10.1/nios2eds/bin/gnu/h-i686-mingw32/bin/../lib/gcc/nios2-elf/4.1.2/../../../../nios2-elf/lib\libc.a(lib_a-mallocr.o) (_sbrk_r)
c:/software/altera/10.1/nios2eds/bin/gnu/h-i686-mingw32/bin/../lib/gcc/nios2-elf/4.1.2/../../../../nios2-elf/lib\libc.a(lib_a-strlen.o)
                              c:/software/altera/10.1/nios2eds/bin/gnu/h-i686-mingw32/bin/../lib/gcc/nios2-elf/4.1.2/../../../../nios2-elf/lib\libc.a(lib_a-puts.o) (strlen)
c:/software/altera/10.1/nios2eds/bin/gnu/h-i686-mingw32/bin/../lib/gcc/nios2-elf/4.1.2/../../../../nios2-elf/lib\libc.a(lib_a-vfprintf.o)
                              c:/software/altera/10.1/nios2eds/bin/gnu/h-i686-mingw32/bin/../lib/gcc/nios2-elf/4.1.2/../../../../nios2-elf/lib\libc.a(lib_a-printf.o) (___vfprintf_internal_r)
c:/software/altera/10.1/nios2eds/bin/gnu/h-i686-mingw32/bin/../lib/gcc/nios2-elf/4.1.2/../../../../nios2-elf/lib\libc.a(lib_a-wsetup.o)
                              c:/software/altera/10.1/nios2eds/bin/gnu/h-i686-mingw32/bin/../lib/gcc/nios2-elf/4.1.2/../../../../nios2-elf/lib\libc.a(lib_a-vfprintf.o) (__swsetup_r)
c:/software/altera/10.1/nios2eds/bin/gnu/h-i686-mingw32/bin/../lib/gcc/nios2-elf/4.1.2/../../../../nios2-elf/lib\libc.a(lib_a-__call_atexit.o)
                              c:/software/altera/10.1/nios2eds/bin/gnu/h-i686-mingw32/bin/../lib/gcc/nios2-elf/4.1.2/../../../../nios2-elf/lib\libc.a(lib_a-exit.o) (__call_exitprocs)
c:/software/altera/10.1/nios2eds/bin/gnu/h-i686-mingw32/bin/../lib/gcc/nios2-elf/4.1.2/../../../../nios2-elf/lib\libc.a(lib_a-dtoa.o)
                              c:/software/altera/10.1/nios2eds/bin/gnu/h-i686-mingw32/bin/../lib/gcc/nios2-elf/4.1.2/../../../../nios2-elf/lib\libc.a(lib_a-vfprintf.o) (_dtoa_r)
c:/software/altera/10.1/nios2eds/bin/gnu/h-i686-mingw32/bin/../lib/gcc/nios2-elf/4.1.2/../../../../nios2-elf/lib\libc.a(lib_a-fflush.o)
                              c:/software/altera/10.1/nios2eds/bin/gnu/h-i686-mingw32/bin/../lib/gcc/nios2-elf/4.1.2/../../../../nios2-elf/lib\libc.a(lib_a-vfprintf.o) (_fflush_r)
c:/software/altera/10.1/nios2eds/bin/gnu/h-i686-mingw32/bin/../lib/gcc/nios2-elf/4.1.2/../../../../nios2-elf/lib\libc.a(lib_a-findfp.o)
                              c:/software/altera/10.1/nios2eds/bin/gnu/h-i686-mingw32/bin/../lib/gcc/nios2-elf/4.1.2/../../../../nios2-elf/lib\libc.a(lib_a-vfprintf.o) (__sinit)
c:/software/altera/10.1/nios2eds/bin/gnu/h-i686-mingw32/bin/../lib/gcc/nios2-elf/4.1.2/../../../../nios2-elf/lib\libc.a(lib_a-freer.o)
                              c:/software/altera/10.1/nios2eds/bin/gnu/h-i686-mingw32/bin/../lib/gcc/nios2-elf/4.1.2/../../../../nios2-elf/lib\libc.a(lib_a-malloc.o) (_free_r)
c:/software/altera/10.1/nios2eds/bin/gnu/h-i686-mingw32/bin/../lib/gcc/nios2-elf/4.1.2/../../../../nios2-elf/lib\libc.a(lib_a-fvwrite.o)
                              c:/software/altera/10.1/nios2eds/bin/gnu/h-i686-mingw32/bin/../lib/gcc/nios2-elf/4.1.2/../../../../nios2-elf/lib\libc.a(lib_a-puts.o) (__sfvwrite_r)
c:/software/altera/10.1/nios2eds/bin/gnu/h-i686-mingw32/bin/../lib/gcc/nios2-elf/4.1.2/../../../../nios2-elf/lib\libc.a(lib_a-fwalk.o)
                              c:/software/altera/10.1/nios2eds/bin/gnu/h-i686-mingw32/bin/../lib/gcc/nios2-elf/4.1.2/../../../../nios2-elf/lib\libc.a(lib_a-fflush.o) (_fwalk_reent)
c:/software/altera/10.1/nios2eds/bin/gnu/h-i686-mingw32/bin/../lib/gcc/nios2-elf/4.1.2/../../../../nios2-elf/lib\libc.a(lib_a-locale.o)
                              c:/software/altera/10.1/nios2eds/bin/gnu/h-i686-mingw32/bin/../lib/gcc/nios2-elf/4.1.2/../../../../nios2-elf/lib\libc.a(lib_a-vfprintf.o) (_localeconv_r)
c:/software/altera/10.1/nios2eds/bin/gnu/h-i686-mingw32/bin/../lib/gcc/nios2-elf/4.1.2/../../../../nios2-elf/lib\libc.a(lib_a-makebuf.o)
                              c:/software/altera/10.1/nios2eds/bin/gnu/h-i686-mingw32/bin/../lib/gcc/nios2-elf/4.1.2/../../../../nios2-elf/lib\libc.a(lib_a-wsetup.o) (__smakebuf_r)
c:/software/altera/10.1/nios2eds/bin/gnu/h-i686-mingw32/bin/../lib/gcc/nios2-elf/4.1.2/../../../../nios2-elf/lib\libc.a(lib_a-memchr.o)
                              c:/software/altera/10.1/nios2eds/bin/gnu/h-i686-mingw32/bin/../lib/gcc/nios2-elf/4.1.2/../../../../nios2-elf/lib\libc.a(lib_a-vfprintf.o) (memchr)
c:/software/altera/10.1/nios2eds/bin/gnu/h-i686-mingw32/bin/../lib/gcc/nios2-elf/4.1.2/../../../../nios2-elf/lib\libc.a(lib_a-memcpy.o)
                              c:/software/altera/10.1/nios2eds/bin/gnu/h-i686-mingw32/bin/../lib/gcc/nios2-elf/4.1.2/../../../../nios2-elf/lib\libc.a(lib_a-dtoa.o) (memcpy)
c:/software/altera/10.1/nios2eds/bin/gnu/h-i686-mingw32/bin/../lib/gcc/nios2-elf/4.1.2/../../../../nios2-elf/lib\libc.a(lib_a-memmove.o)
                              c:/software/altera/10.1/nios2eds/bin/gnu/h-i686-mingw32/bin/../lib/gcc/nios2-elf/4.1.2/../../../../nios2-elf/lib\libc.a(lib_a-fvwrite.o) (memmove)
c:/software/altera/10.1/nios2eds/bin/gnu/h-i686-mingw32/bin/../lib/gcc/nios2-elf/4.1.2/../../../../nios2-elf/lib\libc.a(lib_a-memset.o)
                              c:/software/altera/10.1/nios2eds/bin/gnu/h-i686-mingw32/bin/../lib/gcc/nios2-elf/4.1.2/../../../../nios2-elf/lib\libc.a(lib_a-findfp.o) (memset)
c:/software/altera/10.1/nios2eds/bin/gnu/h-i686-mingw32/bin/../lib/gcc/nios2-elf/4.1.2/../../../../nios2-elf/lib\libc.a(lib_a-mprec.o)
                              c:/software/altera/10.1/nios2eds/bin/gnu/h-i686-mingw32/bin/../lib/gcc/nios2-elf/4.1.2/../../../../nios2-elf/lib\libc.a(lib_a-dtoa.o) (_Bfree)
c:/software/altera/10.1/nios2eds/bin/gnu/h-i686-mingw32/bin/../lib/gcc/nios2-elf/4.1.2/../../../../nios2-elf/lib\libc.a(lib_a-putc.o)
                              c:/software/altera/10.1/nios2eds/bin/gnu/h-i686-mingw32/bin/../lib/gcc/nios2-elf/4.1.2/../../../../nios2-elf/lib\libc.a(lib_a-putchar.o) (_putc_r)
c:/software/altera/10.1/nios2eds/bin/gnu/h-i686-mingw32/bin/../lib/gcc/nios2-elf/4.1.2/../../../../nios2-elf/lib\libc.a(lib_a-reallocr.o)
                              c:/software/altera/10.1/nios2eds/bin/gnu/h-i686-mingw32/bin/../lib/gcc/nios2-elf/4.1.2/../../../../nios2-elf/lib\libc.a(lib_a-fvwrite.o) (_realloc_r)
c:/software/altera/10.1/nios2eds/bin/gnu/h-i686-mingw32/bin/../lib/gcc/nios2-elf/4.1.2/../../../../nios2-elf/lib\libc.a(lib_a-s_isinfd.o)
                              c:/software/altera/10.1/nios2eds/bin/gnu/h-i686-mingw32/bin/../lib/gcc/nios2-elf/4.1.2/../../../../nios2-elf/lib\libc.a(lib_a-vfprintf.o) (__isinfd)
c:/software/altera/10.1/nios2eds/bin/gnu/h-i686-mingw32/bin/../lib/gcc/nios2-elf/4.1.2/../../../../nios2-elf/lib\libc.a(lib_a-s_isnand.o)
                              c:/software/altera/10.1/nios2eds/bin/gnu/h-i686-mingw32/bin/../lib/gcc/nios2-elf/4.1.2/../../../../nios2-elf/lib\libc.a(lib_a-vfprintf.o) (__isnand)
c:/software/altera/10.1/nios2eds/bin/gnu/h-i686-mingw32/bin/../lib/gcc/nios2-elf/4.1.2/../../../../nios2-elf/lib\libc.a(lib_a-stdio.o)
                              c:/software/altera/10.1/nios2eds/bin/gnu/h-i686-mingw32/bin/../lib/gcc/nios2-elf/4.1.2/../../../../nios2-elf/lib\libc.a(lib_a-findfp.o) (__sclose)
c:/software/altera/10.1/nios2eds/bin/gnu/h-i686-mingw32/bin/../lib/gcc/nios2-elf/4.1.2/../../../../nios2-elf/lib\libc.a(lib_a-strcmp.o)
                              c:/software/altera/10.1/nios2eds/bin/gnu/h-i686-mingw32/bin/../lib/gcc/nios2-elf/4.1.2/../../../../nios2-elf/lib\libc.a(lib_a-locale.o) (strcmp)
c:/software/altera/10.1/nios2eds/bin/gnu/h-i686-mingw32/bin/../lib/gcc/nios2-elf/4.1.2/../../../../nios2-elf/lib\libc.a(lib_a-wbuf.o)
                              c:/software/altera/10.1/nios2eds/bin/gnu/h-i686-mingw32/bin/../lib/gcc/nios2-elf/4.1.2/../../../../nios2-elf/lib\libc.a(lib_a-putc.o) (__swbuf_r)
c:/software/altera/10.1/nios2eds/bin/gnu/h-i686-mingw32/bin/../lib/gcc/nios2-elf/4.1.2/../../../../nios2-elf/lib\libc.a(lib_a-writer.o)
                              c:/software/altera/10.1/nios2eds/bin/gnu/h-i686-mingw32/bin/../lib/gcc/nios2-elf/4.1.2/../../../../nios2-elf/lib\libc.a(lib_a-stdio.o) (_write_r)
c:/software/altera/10.1/nios2eds/bin/gnu/h-i686-mingw32/bin/../lib/gcc/nios2-elf/4.1.2/../../../../nios2-elf/lib\libc.a(lib_a-callocr.o)
                              c:/software/altera/10.1/nios2eds/bin/gnu/h-i686-mingw32/bin/../lib/gcc/nios2-elf/4.1.2/../../../../nios2-elf/lib\libc.a(lib_a-mprec.o) (_calloc_r)
c:/software/altera/10.1/nios2eds/bin/gnu/h-i686-mingw32/bin/../lib/gcc/nios2-elf/4.1.2/../../../../nios2-elf/lib\libc.a(lib_a-closer.o)
                              c:/software/altera/10.1/nios2eds/bin/gnu/h-i686-mingw32/bin/../lib/gcc/nios2-elf/4.1.2/../../../../nios2-elf/lib\libc.a(lib_a-stdio.o) (_close_r)
c:/software/altera/10.1/nios2eds/bin/gnu/h-i686-mingw32/bin/../lib/gcc/nios2-elf/4.1.2/../../../../nios2-elf/lib\libc.a(lib_a-fclose.o)
                              c:/software/altera/10.1/nios2eds/bin/gnu/h-i686-mingw32/bin/../lib/gcc/nios2-elf/4.1.2/../../../../nios2-elf/lib\libc.a(lib_a-findfp.o) (fclose)
c:/software/altera/10.1/nios2eds/bin/gnu/h-i686-mingw32/bin/../lib/gcc/nios2-elf/4.1.2/../../../../nios2-elf/lib\libc.a(lib_a-fstatr.o)
                              c:/software/altera/10.1/nios2eds/bin/gnu/h-i686-mingw32/bin/../lib/gcc/nios2-elf/4.1.2/../../../../nios2-elf/lib\libc.a(lib_a-makebuf.o) (_fstat_r)
c:/software/altera/10.1/nios2eds/bin/gnu/h-i686-mingw32/bin/../lib/gcc/nios2-elf/4.1.2/../../../../nios2-elf/lib\libc.a(lib_a-isattyr.o)
                              c:/software/altera/10.1/nios2eds/bin/gnu/h-i686-mingw32/bin/../lib/gcc/nios2-elf/4.1.2/../../../../nios2-elf/lib\libc.a(lib_a-makebuf.o) (_isatty_r)
c:/software/altera/10.1/nios2eds/bin/gnu/h-i686-mingw32/bin/../lib/gcc/nios2-elf/4.1.2/../../../../nios2-elf/lib\libc.a(lib_a-lseekr.o)
                              c:/software/altera/10.1/nios2eds/bin/gnu/h-i686-mingw32/bin/../lib/gcc/nios2-elf/4.1.2/../../../../nios2-elf/lib\libc.a(lib_a-stdio.o) (_lseek_r)
c:/software/altera/10.1/nios2eds/bin/gnu/h-i686-mingw32/bin/../lib/gcc/nios2-elf/4.1.2/../../../../nios2-elf/lib\libc.a(lib_a-readr.o)
                              c:/software/altera/10.1/nios2eds/bin/gnu/h-i686-mingw32/bin/../lib/gcc/nios2-elf/4.1.2/../../../../nios2-elf/lib\libc.a(lib_a-stdio.o) (_read_r)
c:/software/altera/10.1/nios2eds/bin/gnu/h-i686-mingw32/bin/../lib/gcc/nios2-elf/4.1.2\libgcc.a(_udivdi3.o)
                              c:/software/altera/10.1/nios2eds/bin/gnu/h-i686-mingw32/bin/../lib/gcc/nios2-elf/4.1.2/../../../../nios2-elf/lib\libc.a(lib_a-vfprintf.o) (__udivdi3)
c:/software/altera/10.1/nios2eds/bin/gnu/h-i686-mingw32/bin/../lib/gcc/nios2-elf/4.1.2\libgcc.a(_umoddi3.o)
                              c:/software/altera/10.1/nios2eds/bin/gnu/h-i686-mingw32/bin/../lib/gcc/nios2-elf/4.1.2/../../../../nios2-elf/lib\libc.a(lib_a-vfprintf.o) (__umoddi3)
c:/software/altera/10.1/nios2eds/bin/gnu/h-i686-mingw32/bin/../lib/gcc/nios2-elf/4.1.2\libgcc.a(_div_df.o)
                              c:/software/altera/10.1/nios2eds/bin/gnu/h-i686-mingw32/bin/../lib/gcc/nios2-elf/4.1.2/../../../../nios2-elf/lib\libc.a(lib_a-dtoa.o) (__divdf3)
c:/software/altera/10.1/nios2eds/bin/gnu/h-i686-mingw32/bin/../lib/gcc/nios2-elf/4.1.2\libgcc.a(_eq_df.o)
                              c:/software/altera/10.1/nios2eds/bin/gnu/h-i686-mingw32/bin/../lib/gcc/nios2-elf/4.1.2/../../../../nios2-elf/lib\libc.a(lib_a-vfprintf.o) (__eqdf2)
c:/software/altera/10.1/nios2eds/bin/gnu/h-i686-mingw32/bin/../lib/gcc/nios2-elf/4.1.2\libgcc.a(_ne_df.o)
                              c:/software/altera/10.1/nios2eds/bin/gnu/h-i686-mingw32/bin/../lib/gcc/nios2-elf/4.1.2/../../../../nios2-elf/lib\libc.a(lib_a-vfprintf.o) (__nedf2)
c:/software/altera/10.1/nios2eds/bin/gnu/h-i686-mingw32/bin/../lib/gcc/nios2-elf/4.1.2\libgcc.a(_ge_df.o)
                              c:/software/altera/10.1/nios2eds/bin/gnu/h-i686-mingw32/bin/../lib/gcc/nios2-elf/4.1.2/../../../../nios2-elf/lib\libc.a(lib_a-dtoa.o) (__gedf2)
c:/software/altera/10.1/nios2eds/bin/gnu/h-i686-mingw32/bin/../lib/gcc/nios2-elf/4.1.2\libgcc.a(_lt_df.o)
                              c:/software/altera/10.1/nios2eds/bin/gnu/h-i686-mingw32/bin/../lib/gcc/nios2-elf/4.1.2/../../../../nios2-elf/lib\libc.a(lib_a-vfprintf.o) (__ltdf2)
c:/software/altera/10.1/nios2eds/bin/gnu/h-i686-mingw32/bin/../lib/gcc/nios2-elf/4.1.2\libgcc.a(_si_to_df.o)
                              c:/software/altera/10.1/nios2eds/bin/gnu/h-i686-mingw32/bin/../lib/gcc/nios2-elf/4.1.2/../../../../nios2-elf/lib\libc.a(lib_a-dtoa.o) (__floatsidf)
../multi_test_1_bsp\libhal_bsp.a(alt_close.o)
                              c:/software/altera/10.1/nios2eds/bin/gnu/h-i686-mingw32/bin/../lib/gcc/nios2-elf/4.1.2/../../../../nios2-elf/lib\libc.a(lib_a-closer.o) (close)
../multi_test_1_bsp\libhal_bsp.a(alt_dcache_flush_all.o)
                              obj/decoder/mjpeg423_decoder.o (alt_dcache_flush_all)
../multi_test_1_bsp\libhal_bsp.a(alt_dev.o)
                              ../multi_test_1_bsp\libhal_bsp.a(alt_close.o) (alt_fd_list)
../multi_test_1_bsp\libhal_bsp.a(alt_errno.o)
                              ../multi_test_1_bsp\libhal_bsp.a(alt_close.o) (alt_errno)
../multi_test_1_bsp\libhal_bsp.a(alt_exit.o)
                              c:/software/altera/10.1/nios2eds/bin/gnu/h-i686-mingw32/bin/../lib/gcc/nios2-elf/4.1.2/../../../../nios2-elf/lib\libc.a(lib_a-exit.o) (_exit)
../multi_test_1_bsp\libhal_bsp.a(alt_fstat.o)
                              c:/software/altera/10.1/nios2eds/bin/gnu/h-i686-mingw32/bin/../lib/gcc/nios2-elf/4.1.2/../../../../nios2-elf/lib\libc.a(lib_a-fstatr.o) (fstat)
../multi_test_1_bsp\libhal_bsp.a(alt_irq_register.o)
                              obj/hello_world.o (alt_irq_register)
../multi_test_1_bsp\libhal_bsp.a(alt_irq_vars.o)
                              ../multi_test_1_bsp\libhal_bsp.a(alt_irq_register.o) (alt_irq_active)
../multi_test_1_bsp\libhal_bsp.a(alt_isatty.o)
                              c:/software/altera/10.1/nios2eds/bin/gnu/h-i686-mingw32/bin/../lib/gcc/nios2-elf/4.1.2/../../../../nios2-elf/lib\libc.a(lib_a-isattyr.o) (isatty)
../multi_test_1_bsp\libhal_bsp.a(alt_load.o)
                              ../multi_test_1_bsp/obj/HAL/src/crt0.o (alt_load)
../multi_test_1_bsp\libhal_bsp.a(alt_lseek.o)
                              c:/software/altera/10.1/nios2eds/bin/gnu/h-i686-mingw32/bin/../lib/gcc/nios2-elf/4.1.2/../../../../nios2-elf/lib\libc.a(lib_a-lseekr.o) (lseek)
../multi_test_1_bsp\libhal_bsp.a(alt_main.o)
                              ../multi_test_1_bsp/obj/HAL/src/crt0.o (alt_main)
../multi_test_1_bsp\libhal_bsp.a(alt_malloc_lock.o)
                              c:/software/altera/10.1/nios2eds/bin/gnu/h-i686-mingw32/bin/../lib/gcc/nios2-elf/4.1.2/../../../../nios2-elf/lib\libc.a(lib_a-mallocr.o) (__malloc_lock)
../multi_test_1_bsp\libhal_bsp.a(alt_read.o)
                              c:/software/altera/10.1/nios2eds/bin/gnu/h-i686-mingw32/bin/../lib/gcc/nios2-elf/4.1.2/../../../../nios2-elf/lib\libc.a(lib_a-readr.o) (read)
../multi_test_1_bsp\libhal_bsp.a(alt_release_fd.o)
                              ../multi_test_1_bsp\libhal_bsp.a(alt_close.o) (alt_release_fd)
../multi_test_1_bsp\libhal_bsp.a(alt_sbrk.o)
                              c:/software/altera/10.1/nios2eds/bin/gnu/h-i686-mingw32/bin/../lib/gcc/nios2-elf/4.1.2/../../../../nios2-elf/lib\libc.a(lib_a-sbrkr.o) (sbrk)
../multi_test_1_bsp\libhal_bsp.a(alt_write.o)
                              c:/software/altera/10.1/nios2eds/bin/gnu/h-i686-mingw32/bin/../lib/gcc/nios2-elf/4.1.2/../../../../nios2-elf/lib\libc.a(lib_a-writer.o) (write)
../multi_test_1_bsp\libhal_bsp.a(alt_sys_init.o)
                              ../multi_test_1_bsp\libhal_bsp.a(alt_main.o) (alt_irq_init)
../multi_test_1_bsp\libhal_bsp.a(altera_avalon_jtag_uart_fd.o)
                              ../multi_test_1_bsp\libhal_bsp.a(alt_sys_init.o) (altera_avalon_jtag_uart_read_fd)
../multi_test_1_bsp\libhal_bsp.a(altera_avalon_jtag_uart_init.o)
                              ../multi_test_1_bsp\libhal_bsp.a(alt_sys_init.o) (altera_avalon_jtag_uart_init)
../multi_test_1_bsp\libhal_bsp.a(altera_avalon_jtag_uart_ioctl.o)
                              ../multi_test_1_bsp\libhal_bsp.a(altera_avalon_jtag_uart_fd.o) (altera_avalon_jtag_uart_ioctl)
../multi_test_1_bsp\libhal_bsp.a(altera_avalon_jtag_uart_read.o)
                              ../multi_test_1_bsp\libhal_bsp.a(altera_avalon_jtag_uart_fd.o) (altera_avalon_jtag_uart_read)
../multi_test_1_bsp\libhal_bsp.a(altera_avalon_jtag_uart_write.o)
                              ../multi_test_1_bsp\libhal_bsp.a(altera_avalon_jtag_uart_fd.o) (altera_avalon_jtag_uart_write)
../multi_test_1_bsp\libhal_bsp.a(altera_avalon_mailbox.o)
                              ../multi_test_1_bsp\libhal_bsp.a(alt_sys_init.o) (alt_avalon_mailbox_init)
../multi_test_1_bsp\libhal_bsp.a(altera_avalon_mutex.o)
                              ../multi_test_1_bsp\libhal_bsp.a(altera_avalon_mailbox.o) (alt_mutex_list)
../multi_test_1_bsp\libhal_bsp.a(altera_avalon_timer_sc.o)
                              ../multi_test_1_bsp\libhal_bsp.a(alt_sys_init.o) (alt_avalon_timer_sc_init)
../multi_test_1_bsp\libhal_bsp.a(altera_up_sd_card_avalon_interface.o)
                              obj/sd_card.o (aux_status_register)
../multi_test_1_bsp\libhal_bsp.a(alt_alarm_start.o)
                              ../multi_test_1_bsp\libhal_bsp.a(altera_avalon_jtag_uart_init.o) (alt_alarm_start)
../multi_test_1_bsp\libhal_bsp.a(alt_dev_llist_insert.o)
                              ../multi_test_1_bsp\libhal_bsp.a(alt_sys_init.o) (alt_dev_llist_insert)
../multi_test_1_bsp\libhal_bsp.a(alt_do_ctors.o)
                              ../multi_test_1_bsp\libhal_bsp.a(alt_main.o) (_do_ctors)
../multi_test_1_bsp\libhal_bsp.a(alt_do_dtors.o)
                              ../multi_test_1_bsp\libhal_bsp.a(alt_main.o) (_do_dtors)
../multi_test_1_bsp\libhal_bsp.a(alt_find_dev.o)
                              ../multi_test_1_bsp\libhal_bsp.a(altera_avalon_mailbox.o) (alt_find_dev)
../multi_test_1_bsp\libhal_bsp.a(alt_icache_flush_all.o)
                              ../multi_test_1_bsp\libhal_bsp.a(alt_load.o) (alt_icache_flush_all)
../multi_test_1_bsp\libhal_bsp.a(alt_iic.o)
                              ../multi_test_1_bsp\libhal_bsp.a(altera_avalon_jtag_uart_init.o) (alt_ic_isr_register)
../multi_test_1_bsp\libhal_bsp.a(alt_iic_isr_register.o)
                              ../multi_test_1_bsp\libhal_bsp.a(alt_iic.o) (alt_iic_isr_register)
../multi_test_1_bsp\libhal_bsp.a(alt_io_redirect.o)
                              ../multi_test_1_bsp\libhal_bsp.a(alt_main.o) (alt_io_redirect)
../multi_test_1_bsp\libhal_bsp.a(alt_irq_entry.o)
                              ../multi_test_1_bsp\libhal_bsp.a(alt_irq_register.o) (alt_irq_entry)
../multi_test_1_bsp\libhal_bsp.a(alt_irq_handler.o)
                              ../multi_test_1_bsp\libhal_bsp.a(alt_irq_register.o) (alt_irq_handler)
../multi_test_1_bsp\libhal_bsp.a(alt_open.o)
                              ../multi_test_1_bsp\libhal_bsp.a(alt_io_redirect.o) (open)
../multi_test_1_bsp\libhal_bsp.a(alt_tick.o)
                              ../multi_test_1_bsp\libhal_bsp.a(altera_avalon_jtag_uart_init.o) (_alt_tick_rate)
../multi_test_1_bsp\libhal_bsp.a(altera_nios2_irq.o)
                              ../multi_test_1_bsp\libhal_bsp.a(alt_sys_init.o) (altera_nios2_irq_init)
../multi_test_1_bsp\libhal_bsp.a(alt_exception_entry.o)
                              ../multi_test_1_bsp\libhal_bsp.a(alt_irq_entry.o) (alt_exception)
../multi_test_1_bsp\libhal_bsp.a(alt_find_file.o)
                              ../multi_test_1_bsp\libhal_bsp.a(alt_open.o) (alt_find_file)
../multi_test_1_bsp\libhal_bsp.a(alt_get_fd.o)
                              ../multi_test_1_bsp\libhal_bsp.a(alt_open.o) (alt_get_fd)
../multi_test_1_bsp\libhal_bsp.a(alt_icache_flush.o)
                              ../multi_test_1_bsp\libhal_bsp.a(alt_icache_flush_all.o) (alt_icache_flush)
c:/software/altera/10.1/nios2eds/bin/gnu/h-i686-mingw32/bin/../lib/gcc/nios2-elf/4.1.2/../../../../nios2-elf/lib\libc.a(lib_a-atexit.o)
                              ../multi_test_1_bsp\libhal_bsp.a(alt_main.o) (atexit)
c:/software/altera/10.1/nios2eds/bin/gnu/h-i686-mingw32/bin/../lib/gcc/nios2-elf/4.1.2/../../../../nios2-elf/lib\libc.a(lib_a-memcmp.o)
                              ../multi_test_1_bsp\libhal_bsp.a(alt_find_dev.o) (memcmp)
c:/software/altera/10.1/nios2eds/bin/gnu/h-i686-mingw32/bin/../lib/gcc/nios2-elf/4.1.2/../../../../nios2-elf/lib\libc.a(lib_a-__atexit.o)
                              c:/software/altera/10.1/nios2eds/bin/gnu/h-i686-mingw32/bin/../lib/gcc/nios2-elf/4.1.2/../../../../nios2-elf/lib\libc.a(lib_a-atexit.o) (__register_exitproc)

Allocating common symbols
Common symbol       size              file

alt_irq             0x100             ../multi_test_1_bsp\libhal_bsp.a(alt_irq_handler.o)
recv_dev            0x4               obj/decoder/mjpeg423_decoder.o
last_tested         0x4               obj/decoder/mjpeg423_decoder.o
CrDCAC              0x4               obj/decoder/mjpeg423_decoder.o
edge_capture        0x4               obj/decoder/mjpeg423_decoder.o
errno               0x4               c:/software/altera/10.1/nios2eds/bin/gnu/h-i686-mingw32/bin/../lib/gcc/nios2-elf/4.1.2/../../../../nios2-elf/lib\libc.a(lib_a-int_errno.o)
send_dev            0x4               obj/decoder/mjpeg423_decoder.o
button_latch        0x4               obj/hello_world.o
sendmessage         0x4               obj/decoder/mjpeg423_decoder.o
playing             0x4               obj/decoder/mjpeg423_decoder.o
sendMsg             0x4               obj/decoder/mjpeg423_decoder.o
YDCAC               0x4               obj/decoder/mjpeg423_decoder.o
Yblock              0x4               obj/decoder/mjpeg423_decoder.o
Cbblock             0x4               obj/decoder/mjpeg423_decoder.o
search_data         0x14              ../multi_test_1_bsp\libhal_bsp.a(altera_up_sd_card_avalon_interface.o)
receiveMessage      0x4               obj/decoder/mjpeg423_decoder.o
playedOnceFlag      0x4               obj/decoder/mjpeg423_decoder.o
boot_sector_data    0x54              ../multi_test_1_bsp\libhal_bsp.a(altera_up_sd_card_avalon_interface.o)
backward            0x4               obj/decoder/mjpeg423_decoder.o
flip                0x4               obj/decoder/mjpeg423_decoder.o
_atexit0            0x190             c:/software/altera/10.1/nios2eds/bin/gnu/h-i686-mingw32/bin/../lib/gcc/nios2-elf/4.1.2/../../../../nios2-elf/lib\libc.a(lib_a-atexit.o)
fastForward         0x4               obj/decoder/mjpeg423_decoder.o
Crblock             0x4               obj/decoder/mjpeg423_decoder.o
button_state        0x4               obj/hello_world.o
CbDCAC              0x4               obj/decoder/mjpeg423_decoder.o
frame_index         0x4               obj/decoder/mjpeg423_decoder.o
active_files        0x500             ../multi_test_1_bsp\libhal_bsp.a(altera_up_sd_card_avalon_interface.o)
getNextFile         0x4               obj/decoder/mjpeg423_decoder.o
current_frame       0x4               obj/decoder/mjpeg423_decoder.o

Memory Configuration

Name             Origin             Length             Attributes
sdram_0_BEFORE_RESET 0x00800000         0x00000200
reset            0x00820200         0x00000020
sdram_0          0x00820220         0x007dfde0
*default*        0x00000000         0xffffffff

Linker script and memory map

LOAD ../multi_test_1_bsp/obj/HAL/src/crt0.o
LOAD obj/common/tables.o
LOAD obj/common/util.o
LOAD obj/decoder/idct.o
LOAD obj/decoder/lossless_decode.o
LOAD obj/decoder/mjpeg423_decoder.o
LOAD obj/decoder/ycbcr_to_rgb.o
LOAD obj/hello_world.o
LOAD obj/sd_card.o
LOAD c:/software/altera/10.1/nios2eds/bin/gnu/h-i686-mingw32/bin/../lib/gcc/nios2-elf/4.1.2/../../../../nios2-elf/lib\libstdc++.a
LOAD c:/software/altera/10.1/nios2eds/bin/gnu/h-i686-mingw32/bin/../lib/gcc/nios2-elf/4.1.2/../../../../nios2-elf/lib\libm.a
LOAD c:/software/altera/10.1/nios2eds/bin/gnu/h-i686-mingw32/bin/../lib/gcc/nios2-elf/4.1.2\libgcc.a
START GROUP
LOAD c:/software/altera/10.1/nios2eds/bin/gnu/h-i686-mingw32/bin/../lib/gcc/nios2-elf/4.1.2/../../../../nios2-elf/lib\libc.a
LOAD c:/software/altera/10.1/nios2eds/bin/gnu/h-i686-mingw32/bin/../lib/gcc/nios2-elf/4.1.2\libgcc.a
LOAD ../multi_test_1_bsp\libhal_bsp.a
END GROUP
LOAD c:/software/altera/10.1/nios2eds/bin/gnu/h-i686-mingw32/bin/../lib/gcc/nios2-elf/4.1.2\libgcc.a
                0x00800000                __alt_mem_sdram_0 = 0x800000

.entry          0x00820200       0x20
 *(.entry)
 .entry         0x00820200       0x20 ../multi_test_1_bsp/obj/HAL/src/crt0.o
                0x00820200                __reset

.exceptions     0x00820220      0x194
                0x00820220                PROVIDE (__ram_exceptions_start, ABSOLUTE (.))
                0x00820220                . = ALIGN (0x20)
 *(.irq)
 *(.exceptions.entry.label)
 .exceptions.entry.label
                0x00820220        0x0 ../multi_test_1_bsp\libhal_bsp.a(alt_irq_entry.o)
                0x00820220                alt_irq_entry
 .exceptions.entry.label
                0x00820220        0x0 ../multi_test_1_bsp\libhal_bsp.a(alt_exception_entry.o)
                0x00820220                alt_exception
 *(.exceptions.entry.user)
 *(.exceptions.entry)
 .exceptions.entry
                0x00820220       0x54 ../multi_test_1_bsp\libhal_bsp.a(alt_exception_entry.o)
 *(.exceptions.irqtest.user)
 *(.exceptions.irqtest)
 .exceptions.irqtest
                0x00820274       0x10 ../multi_test_1_bsp\libhal_bsp.a(alt_irq_entry.o)
 *(.exceptions.irqhandler.user)
 *(.exceptions.irqhandler)
 .exceptions.irqhandler
                0x00820284        0x4 ../multi_test_1_bsp\libhal_bsp.a(alt_irq_entry.o)
 *(.exceptions.irqreturn.user)
 *(.exceptions.irqreturn)
 .exceptions.irqreturn
                0x00820288        0x4 ../multi_test_1_bsp\libhal_bsp.a(alt_irq_entry.o)
 *(.exceptions.notirq.label)
 .exceptions.notirq.label
                0x0082028c        0x0 ../multi_test_1_bsp\libhal_bsp.a(alt_irq_entry.o)
 *(.exceptions.notirq.user)
 *(.exceptions.notirq)
 .exceptions.notirq
                0x0082028c        0x8 ../multi_test_1_bsp\libhal_bsp.a(alt_exception_entry.o)
 *(.exceptions.soft.user)
 *(.exceptions.soft)
 *(.exceptions.unknown.user)
 *(.exceptions.unknown)
 .exceptions.unknown
                0x00820294        0x4 ../multi_test_1_bsp\libhal_bsp.a(alt_exception_entry.o)
 *(.exceptions.exit.label)
 .exceptions.exit.label
                0x00820298        0x0 ../multi_test_1_bsp\libhal_bsp.a(alt_irq_entry.o)
 .exceptions.exit.label
                0x00820298        0x0 ../multi_test_1_bsp\libhal_bsp.a(alt_exception_entry.o)
 *(.exceptions.exit.user)
 *(.exceptions.exit)
 .exceptions.exit
                0x00820298       0x54 ../multi_test_1_bsp\libhal_bsp.a(alt_exception_entry.o)
 *(.exceptions)
 .exceptions    0x008202ec       0xc8 ../multi_test_1_bsp\libhal_bsp.a(alt_irq_handler.o)
                0x008202ec                alt_irq_handler
                0x008203b4                PROVIDE (__ram_exceptions_end, ABSOLUTE (.))
                0x00820220                PROVIDE (__flash_exceptions_start, LOADADDR (.exceptions))

.text           0x008203b4    0x13230
                0x008203b4                PROVIDE (stext, ABSOLUTE (.))
 *(.interp)
 *(.hash)
 *(.dynsym)
 *(.dynstr)
 *(.gnu.version)
 *(.gnu.version_d)
 *(.gnu.version_r)
 *(.rel.init)
 *(.rela.init)
 *(.rel.text .rel.text.* .rel.gnu.linkonce.t.*)
 *(.rela.text .rela.text.* .rela.gnu.linkonce.t.*)
 *(.rel.fini)
 *(.rela.fini)
 *(.rel.rodata .rel.rodata.* .rel.gnu.linkonce.r.*)
 *(.rela.rodata .rela.rodata.* .rela.gnu.linkonce.r.*)
 *(.rel.data .rel.data.* .rel.gnu.linkonce.d.*)
 *(.rela.data .rela.data.* .rela.gnu.linkonce.d.*)
 *(.rel.tdata .rel.tdata.* .rel.gnu.linkonce.td.*)
 *(.rela.tdata .rela.tdata.* .rela.gnu.linkonce.td.*)
 *(.rel.tbss .rel.tbss.* .rel.gnu.linkonce.tb.*)
 *(.rela.tbss .rela.tbss.* .rela.gnu.linkonce.tb.*)
 *(.rel.ctors)
 *(.rela.ctors)
 *(.rel.dtors)
 *(.rela.dtors)
 *(.rel.got)
 *(.rela.got)
 *(.rel.sdata .rel.sdata.* .rel.gnu.linkonce.s.*)
 *(.rela.sdata .rela.sdata.* .rela.gnu.linkonce.s.*)
 *(.rel.sbss .rel.sbss.* .rel.gnu.linkonce.sb.*)
 *(.rela.sbss .rela.sbss.* .rela.gnu.linkonce.sb.*)
 *(.rel.sdata2 .rel.sdata2.* .rel.gnu.linkonce.s2.*)
 *(.rela.sdata2 .rela.sdata2.* .rela.gnu.linkonce.s2.*)
 *(.rel.sbss2 .rel.sbss2.* .rel.gnu.linkonce.sb2.*)
 *(.rela.sbss2 .rela.sbss2.* .rela.gnu.linkonce.sb2.*)
 *(.rel.bss .rel.bss.* .rel.gnu.linkonce.b.*)
 *(.rela.bss .rela.bss.* .rela.gnu.linkonce.b.*)
 *(.rel.plt)
 *(.rela.plt)
 *(.rel.dyn)
 *(.init)
 *(.plt)
 *(.text .stub .text.* .gnu.linkonce.t.*)
 .text          0x008203b4       0x4c ../multi_test_1_bsp/obj/HAL/src/crt0.o
                0x008203b4                _start
 .text          0x00820400        0x0 obj/common/tables.o
 .text          0x00820400      0x2a8 obj/common/util.o
                0x00820400                print_dct
                0x008204bc                print_block
                0x00820580                print_bitstream
                0x00820688                error_and_exit
 .text          0x008206a8      0x2e8 obj/decoder/idct.o
                0x008206a8                idct
 .text          0x00820990      0x5f4 obj/decoder/lossless_decode.o
                0x00820990                update_buffer
                0x00820a4c                input_DC
                0x00820ac0                input_AC
                0x00820b3c                lossless_decode
 .text          0x00820f84      0x780 obj/decoder/mjpeg423_decoder.o
                0x00820f84                mjpeg423_decode
 .text          0x00821704      0x100 obj/decoder/ycbcr_to_rgb.o
                0x00821704                ycbcr_to_rgb
 .text          0x00821804      0x3b8 obj/hello_world.o
                0x00821804                initTimer
                0x00821908                main
 .text          0x00821bbc      0x414 obj/sd_card.o
                0x00821bbc                sd_seek
                0x00821bd4                sd_card_file_size
                0x00821bf8                sd_card_wait_read_sector
                0x00821c24                sd_card_start_read_sector
                0x00821c94                sd_card_create_sectors_list
                0x00821e54                sd_read
 .text          0x00821fd0      0x214 c:/software/altera/10.1/nios2eds/bin/gnu/h-i686-mingw32/bin/../lib/gcc/nios2-elf/4.1.2/../../../../nios2-elf/lib\libm.a(lib_a-s_ceil.o)
                0x00821fd0                ceil
 .text          0x008221e4      0x504 c:/software/altera/10.1/nios2eds/bin/gnu/h-i686-mingw32/bin/../lib/gcc/nios2-elf/4.1.2\libgcc.a(_addsub_df.o)
                0x008225f4                __subdf3
                0x00822674                __adddf3
 .text          0x008226e8      0x3c4 c:/software/altera/10.1/nios2eds/bin/gnu/h-i686-mingw32/bin/../lib/gcc/nios2-elf/4.1.2\libgcc.a(_mul_df.o)
                0x008226e8                __muldf3
 .text          0x00822aac       0x88 c:/software/altera/10.1/nios2eds/bin/gnu/h-i686-mingw32/bin/../lib/gcc/nios2-elf/4.1.2\libgcc.a(_gt_df.o)
                0x00822aac                __gtdf2
 .text          0x00822b34       0xd8 c:/software/altera/10.1/nios2eds/bin/gnu/h-i686-mingw32/bin/../lib/gcc/nios2-elf/4.1.2\libgcc.a(_df_to_si.o)
                0x00822b34                __fixdfsi
 .text          0x00822c0c        0x0 c:/software/altera/10.1/nios2eds/bin/gnu/h-i686-mingw32/bin/../lib/gcc/nios2-elf/4.1.2\libgcc.a(_thenan_df.o)
 .text          0x00822c0c      0x194 c:/software/altera/10.1/nios2eds/bin/gnu/h-i686-mingw32/bin/../lib/gcc/nios2-elf/4.1.2\libgcc.a(_usi_to_df.o)
                0x00822c0c                __floatunsidf
 .text          0x00822da0      0x14c c:/software/altera/10.1/nios2eds/bin/gnu/h-i686-mingw32/bin/../lib/gcc/nios2-elf/4.1.2\libgcc.a(lib2-divmod.o)
                0x00822e1c                __divsi3
                0x00822e7c                __modsi3
                0x00822edc                __udivsi3
                0x00822ee4                __umodsi3
 .text          0x00822eec        0x0 c:/software/altera/10.1/nios2eds/bin/gnu/h-i686-mingw32/bin/../lib/gcc/nios2-elf/4.1.2\libgcc.a(lib2-divtable.o)
 .text          0x00822eec       0x98 c:/software/altera/10.1/nios2eds/bin/gnu/h-i686-mingw32/bin/../lib/gcc/nios2-elf/4.1.2\libgcc.a(_muldi3.o)
                0x00822eec                __muldi3
 .text          0x00822f84       0x80 c:/software/altera/10.1/nios2eds/bin/gnu/h-i686-mingw32/bin/../lib/gcc/nios2-elf/4.1.2\libgcc.a(_clzsi2.o)
                0x00822f84                __clzsi2
 .text          0x00823004      0x314 c:/software/altera/10.1/nios2eds/bin/gnu/h-i686-mingw32/bin/../lib/gcc/nios2-elf/4.1.2\libgcc.a(_pack_df.o)
                0x00823004                __pack_d
 .text          0x00823318      0x138 c:/software/altera/10.1/nios2eds/bin/gnu/h-i686-mingw32/bin/../lib/gcc/nios2-elf/4.1.2\libgcc.a(_unpack_df.o)
                0x00823318                __unpack_d
 .text          0x00823450       0xc8 c:/software/altera/10.1/nios2eds/bin/gnu/h-i686-mingw32/bin/../lib/gcc/nios2-elf/4.1.2\libgcc.a(_fpcmp_parts_df.o)
                0x00823450                __fpcmp_parts_d
 .text          0x00823518        0x0 c:/software/altera/10.1/nios2eds/bin/gnu/h-i686-mingw32/bin/../lib/gcc/nios2-elf/4.1.2\libgcc.a(_clz.o)
 .text          0x00823518       0x38 c:/software/altera/10.1/nios2eds/bin/gnu/h-i686-mingw32/bin/../lib/gcc/nios2-elf/4.1.2/../../../../nios2-elf/lib\libc.a(lib_a-exit.o)
                0x00823518                exit
 .text          0x00823550        0x0 c:/software/altera/10.1/nios2eds/bin/gnu/h-i686-mingw32/bin/../lib/gcc/nios2-elf/4.1.2/../../../../nios2-elf/lib\libc.a(lib_a-impure.o)
 .text          0x00823550        0x0 c:/software/altera/10.1/nios2eds/bin/gnu/h-i686-mingw32/bin/../lib/gcc/nios2-elf/4.1.2/../../../../nios2-elf/lib\libc.a(lib_a-int_errno.o)
 .text          0x00823550       0x28 c:/software/altera/10.1/nios2eds/bin/gnu/h-i686-mingw32/bin/../lib/gcc/nios2-elf/4.1.2/../../../../nios2-elf/lib\libc.a(lib_a-malloc.o)
                0x00823550                free
                0x00823564                malloc
 .text          0x00823578      0x740 c:/software/altera/10.1/nios2eds/bin/gnu/h-i686-mingw32/bin/../lib/gcc/nios2-elf/4.1.2/../../../../nios2-elf/lib\libc.a(lib_a-mallocr.o)
                0x00823578                _malloc_r
 .text          0x00823cb8       0x78 c:/software/altera/10.1/nios2eds/bin/gnu/h-i686-mingw32/bin/../lib/gcc/nios2-elf/4.1.2/../../../../nios2-elf/lib\libc.a(lib_a-printf.o)
                0x00823cb8                printf
                0x00823cfc                _printf_r
 .text          0x00823d30       0x24 c:/software/altera/10.1/nios2eds/bin/gnu/h-i686-mingw32/bin/../lib/gcc/nios2-elf/4.1.2/../../../../nios2-elf/lib\libc.a(lib_a-putchar.o)
                0x00823d30                putchar
                0x00823d4c                _putchar_r
 .text          0x00823d54       0xb4 c:/software/altera/10.1/nios2eds/bin/gnu/h-i686-mingw32/bin/../lib/gcc/nios2-elf/4.1.2/../../../../nios2-elf/lib\libc.a(lib_a-puts.o)
                0x00823d54                _puts_r
                0x00823df4                puts
 .text          0x00823e08       0x70 c:/software/altera/10.1/nios2eds/bin/gnu/h-i686-mingw32/bin/../lib/gcc/nios2-elf/4.1.2/../../../../nios2-elf/lib\libc.a(lib_a-sbrkr.o)
                0x00823e08                _sbrk_r
 .text          0x00823e78       0x74 c:/software/altera/10.1/nios2eds/bin/gnu/h-i686-mingw32/bin/../lib/gcc/nios2-elf/4.1.2/../../../../nios2-elf/lib\libc.a(lib_a-strlen.o)
                0x00823e78                strlen
 .text          0x00823eec     0x1f28 c:/software/altera/10.1/nios2eds/bin/gnu/h-i686-mingw32/bin/../lib/gcc/nios2-elf/4.1.2/../../../../nios2-elf/lib\libc.a(lib_a-vfprintf.o)
                0x00823f44                ___vfprintf_internal_r
                0x00825df0                __vfprintf_internal
 .text          0x00825e14      0x13c c:/software/altera/10.1/nios2eds/bin/gnu/h-i686-mingw32/bin/../lib/gcc/nios2-elf/4.1.2/../../../../nios2-elf/lib\libc.a(lib_a-wsetup.o)
                0x00825e14                __swsetup_r
 .text          0x00825f50      0x1b4 c:/software/altera/10.1/nios2eds/bin/gnu/h-i686-mingw32/bin/../lib/gcc/nios2-elf/4.1.2/../../../../nios2-elf/lib\libc.a(lib_a-__call_atexit.o)
                0x00825f54                __call_exitprocs
 .text          0x00826104     0x17cc c:/software/altera/10.1/nios2eds/bin/gnu/h-i686-mingw32/bin/../lib/gcc/nios2-elf/4.1.2/../../../../nios2-elf/lib\libc.a(lib_a-dtoa.o)
                0x0082631c                _dtoa_r
 .text          0x008278d0      0x230 c:/software/altera/10.1/nios2eds/bin/gnu/h-i686-mingw32/bin/../lib/gcc/nios2-elf/4.1.2/../../../../nios2-elf/lib\libc.a(lib_a-fflush.o)
                0x008278d0                _fflush_r
                0x00827acc                fflush
 .text          0x00827b00      0x2c0 c:/software/altera/10.1/nios2eds/bin/gnu/h-i686-mingw32/bin/../lib/gcc/nios2-elf/4.1.2/../../../../nios2-elf/lib\libc.a(lib_a-findfp.o)
                0x00827b58                __sfp_lock_acquire
                0x00827b5c                __sfp_lock_release
                0x00827b60                __sinit_lock_acquire
                0x00827b64                __sinit_lock_release
                0x00827b68                __sinit
                0x00827c1c                __fp_unlock_all
                0x00827c34                __fp_lock_all
                0x00827c4c                _cleanup_r
                0x00827c58                _cleanup
                0x00827c68                __sfmoreglue
                0x00827cd0                __sfp
 .text          0x00827dc0      0x440 c:/software/altera/10.1/nios2eds/bin/gnu/h-i686-mingw32/bin/../lib/gcc/nios2-elf/4.1.2/../../../../nios2-elf/lib\libc.a(lib_a-freer.o)
                0x00827dc0                _malloc_trim_r
                0x00827eec                _free_r
 .text          0x00828200      0x49c c:/software/altera/10.1/nios2eds/bin/gnu/h-i686-mingw32/bin/../lib/gcc/nios2-elf/4.1.2/../../../../nios2-elf/lib\libc.a(lib_a-fvwrite.o)
                0x00828200                __sfvwrite_r
 .text          0x0082869c      0x180 c:/software/altera/10.1/nios2eds/bin/gnu/h-i686-mingw32/bin/../lib/gcc/nios2-elf/4.1.2/../../../../nios2-elf/lib\libc.a(lib_a-fwalk.o)
                0x0082869c                _fwalk_reent
                0x00828764                _fwalk
 .text          0x0082881c       0xc4 c:/software/altera/10.1/nios2eds/bin/gnu/h-i686-mingw32/bin/../lib/gcc/nios2-elf/4.1.2/../../../../nios2-elf/lib\libc.a(lib_a-locale.o)
                0x0082881c                __locale_charset
                0x00828824                _localeconv_r
                0x00828830                localeconv
                0x00828840                _setlocale_r
                0x008288c4                setlocale
 .text          0x008288e0      0x194 c:/software/altera/10.1/nios2eds/bin/gnu/h-i686-mingw32/bin/../lib/gcc/nios2-elf/4.1.2/../../../../nios2-elf/lib\libc.a(lib_a-makebuf.o)
                0x008288e0                __smakebuf_r
 .text          0x00828a74       0xe4 c:/software/altera/10.1/nios2eds/bin/gnu/h-i686-mingw32/bin/../lib/gcc/nios2-elf/4.1.2/../../../../nios2-elf/lib\libc.a(lib_a-memchr.o)
                0x00828a74                memchr
 .text          0x00828b58       0xa0 c:/software/altera/10.1/nios2eds/bin/gnu/h-i686-mingw32/bin/../lib/gcc/nios2-elf/4.1.2/../../../../nios2-elf/lib\libc.a(lib_a-memcpy.o)
                0x00828b58                memcpy
 .text          0x00828bf8       0xe0 c:/software/altera/10.1/nios2eds/bin/gnu/h-i686-mingw32/bin/../lib/gcc/nios2-elf/4.1.2/../../../../nios2-elf/lib\libc.a(lib_a-memmove.o)
                0x00828bf8                memmove
 .text          0x00828cd8       0x98 c:/software/altera/10.1/nios2eds/bin/gnu/h-i686-mingw32/bin/../lib/gcc/nios2-elf/4.1.2/../../../../nios2-elf/lib\libc.a(lib_a-memset.o)
                0x00828cd8                memset
 .text          0x00828d70      0xff4 c:/software/altera/10.1/nios2eds/bin/gnu/h-i686-mingw32/bin/../lib/gcc/nios2-elf/4.1.2/../../../../nios2-elf/lib\libc.a(lib_a-mprec.o)
                0x00828d70                _Bfree
                0x00828d98                __hi0bits
                0x00828e08                __lo0bits
                0x00828ecc                __mcmp
                0x00828f2c                __ulp
                0x00828fac                __b2d
                0x008290cc                __ratio
                0x0082917c                _mprec_log10
                0x00829210                __copybits
                0x00829268                __any_on
                0x008292f0                _Balloc
                0x008293ac                __d2b
                0x00829528                __mdiff
                0x008296b4                __lshift
                0x00829800                __multiply
                0x008299e8                __i2b
                0x00829a24                __multadd
                0x00829b24                __pow5mult
                0x00829c44                __s2b
 .text          0x00829d64      0x1ec c:/software/altera/10.1/nios2eds/bin/gnu/h-i686-mingw32/bin/../lib/gcc/nios2-elf/4.1.2/../../../../nios2-elf/lib\libc.a(lib_a-putc.o)
                0x00829d64                putc
                0x00829e68                _putc_r
 .text          0x00829f50      0x5f4 c:/software/altera/10.1/nios2eds/bin/gnu/h-i686-mingw32/bin/../lib/gcc/nios2-elf/4.1.2/../../../../nios2-elf/lib\libc.a(lib_a-reallocr.o)
                0x00829f50                _realloc_r
 .text          0x0082a544       0x40 c:/software/altera/10.1/nios2eds/bin/gnu/h-i686-mingw32/bin/../lib/gcc/nios2-elf/4.1.2/../../../../nios2-elf/lib\libc.a(lib_a-s_isinfd.o)
                0x0082a544                __isinfd
 .text          0x0082a584       0x30 c:/software/altera/10.1/nios2eds/bin/gnu/h-i686-mingw32/bin/../lib/gcc/nios2-elf/4.1.2/../../../../nios2-elf/lib\libc.a(lib_a-s_isnand.o)
                0x0082a584                __isnand
 .text          0x0082a5b4      0x14c c:/software/altera/10.1/nios2eds/bin/gnu/h-i686-mingw32/bin/../lib/gcc/nios2-elf/4.1.2/../../../../nios2-elf/lib\libc.a(lib_a-stdio.o)
                0x0082a5b4                __sclose
                0x0082a5bc                __sseek
                0x0082a624                __swrite
                0x0082a6a0                __sread
 .text          0x0082a700       0xbc c:/software/altera/10.1/nios2eds/bin/gnu/h-i686-mingw32/bin/../lib/gcc/nios2-elf/4.1.2/../../../../nios2-elf/lib\libc.a(lib_a-strcmp.o)
                0x0082a700                strcmp
 .text          0x0082a7bc      0x14c c:/software/altera/10.1/nios2eds/bin/gnu/h-i686-mingw32/bin/../lib/gcc/nios2-elf/4.1.2/../../../../nios2-elf/lib\libc.a(lib_a-wbuf.o)
                0x0082a7bc                __swbuf_r
                0x0082a8ec                __swbuf
 .text          0x0082a908       0x78 c:/software/altera/10.1/nios2eds/bin/gnu/h-i686-mingw32/bin/../lib/gcc/nios2-elf/4.1.2/../../../../nios2-elf/lib\libc.a(lib_a-writer.o)
                0x0082a908                _write_r
 .text          0x0082a980       0xb4 c:/software/altera/10.1/nios2eds/bin/gnu/h-i686-mingw32/bin/../lib/gcc/nios2-elf/4.1.2/../../../../nios2-elf/lib\libc.a(lib_a-callocr.o)
                0x0082a980                _calloc_r
 .text          0x0082aa34       0x70 c:/software/altera/10.1/nios2eds/bin/gnu/h-i686-mingw32/bin/../lib/gcc/nios2-elf/4.1.2/../../../../nios2-elf/lib\libc.a(lib_a-closer.o)
                0x0082aa34                _close_r
 .text          0x0082aaa4      0x124 c:/software/altera/10.1/nios2eds/bin/gnu/h-i686-mingw32/bin/../lib/gcc/nios2-elf/4.1.2/../../../../nios2-elf/lib\libc.a(lib_a-fclose.o)
                0x0082aaa4                _fclose_r
                0x0082abb4                fclose
 .text          0x0082abc8       0x74 c:/software/altera/10.1/nios2eds/bin/gnu/h-i686-mingw32/bin/../lib/gcc/nios2-elf/4.1.2/../../../../nios2-elf/lib\libc.a(lib_a-fstatr.o)
                0x0082abc8                _fstat_r
 .text          0x0082ac3c       0x70 c:/software/altera/10.1/nios2eds/bin/gnu/h-i686-mingw32/bin/../lib/gcc/nios2-elf/4.1.2/../../../../nios2-elf/lib\libc.a(lib_a-isattyr.o)
                0x0082ac3c                _isatty_r
 .text          0x0082acac       0x78 c:/software/altera/10.1/nios2eds/bin/gnu/h-i686-mingw32/bin/../lib/gcc/nios2-elf/4.1.2/../../../../nios2-elf/lib\libc.a(lib_a-lseekr.o)
                0x0082acac                _lseek_r
 .text          0x0082ad24       0x78 c:/software/altera/10.1/nios2eds/bin/gnu/h-i686-mingw32/bin/../lib/gcc/nios2-elf/4.1.2/../../../../nios2-elf/lib\libc.a(lib_a-readr.o)
                0x0082ad24                _read_r
 .text          0x0082ad9c      0x5dc c:/software/altera/10.1/nios2eds/bin/gnu/h-i686-mingw32/bin/../lib/gcc/nios2-elf/4.1.2\libgcc.a(_udivdi3.o)
                0x0082ad9c                __udivdi3
 .text          0x0082b378      0x5b0 c:/software/altera/10.1/nios2eds/bin/gnu/h-i686-mingw32/bin/../lib/gcc/nios2-elf/4.1.2\libgcc.a(_umoddi3.o)
                0x0082b378                __umoddi3
 .text          0x0082b928      0x258 c:/software/altera/10.1/nios2eds/bin/gnu/h-i686-mingw32/bin/../lib/gcc/nios2-elf/4.1.2\libgcc.a(_div_df.o)
                0x0082b928                __divdf3
 .text          0x0082bb80       0x88 c:/software/altera/10.1/nios2eds/bin/gnu/h-i686-mingw32/bin/../lib/gcc/nios2-elf/4.1.2\libgcc.a(_eq_df.o)
                0x0082bb80                __eqdf2
 .text          0x0082bc08       0x88 c:/software/altera/10.1/nios2eds/bin/gnu/h-i686-mingw32/bin/../lib/gcc/nios2-elf/4.1.2\libgcc.a(_ne_df.o)
                0x0082bc08                __nedf2
 .text          0x0082bc90       0x88 c:/software/altera/10.1/nios2eds/bin/gnu/h-i686-mingw32/bin/../lib/gcc/nios2-elf/4.1.2\libgcc.a(_ge_df.o)
                0x0082bc90                __gedf2
 .text          0x0082bd18       0x88 c:/software/altera/10.1/nios2eds/bin/gnu/h-i686-mingw32/bin/../lib/gcc/nios2-elf/4.1.2\libgcc.a(_lt_df.o)
                0x0082bd18                __ltdf2
 .text          0x0082bda0       0xf8 c:/software/altera/10.1/nios2eds/bin/gnu/h-i686-mingw32/bin/../lib/gcc/nios2-elf/4.1.2\libgcc.a(_si_to_df.o)
                0x0082bda0                __floatsidf
 .text          0x0082be98      0x15c ../multi_test_1_bsp\libhal_bsp.a(alt_close.o)
                0x0082be98                close
 .text          0x0082bff4       0x44 ../multi_test_1_bsp\libhal_bsp.a(alt_dcache_flush_all.o)
                0x0082bff4                alt_dcache_flush_all
 .text          0x0082c038       0x2c ../multi_test_1_bsp\libhal_bsp.a(alt_dev.o)
 .text          0x0082c064        0x0 ../multi_test_1_bsp\libhal_bsp.a(alt_errno.o)
 .text          0x0082c064       0x60 ../multi_test_1_bsp\libhal_bsp.a(alt_exit.o)
                0x0082c0a4                _exit
 .text          0x0082c0c4      0x134 ../multi_test_1_bsp\libhal_bsp.a(alt_fstat.o)
                0x0082c0c4                fstat
 .text          0x0082c1f8      0x1c0 ../multi_test_1_bsp\libhal_bsp.a(alt_irq_register.o)
                0x0082c1f8                alt_irq_register
 .text          0x0082c3b8        0x0 ../multi_test_1_bsp\libhal_bsp.a(alt_irq_vars.o)
 .text          0x0082c3b8      0x120 ../multi_test_1_bsp\libhal_bsp.a(alt_isatty.o)
                0x0082c3b8                isatty
 .text          0x0082c4d8       0xec ../multi_test_1_bsp\libhal_bsp.a(alt_load.o)
                0x0082c4d8                alt_load
 .text          0x0082c5c4      0x150 ../multi_test_1_bsp\libhal_bsp.a(alt_lseek.o)
                0x0082c5c4                lseek
 .text          0x0082c714       0x6c ../multi_test_1_bsp\libhal_bsp.a(alt_main.o)
                0x0082c714                alt_main
 .text          0x0082c780       0x40 ../multi_test_1_bsp\libhal_bsp.a(alt_malloc_lock.o)
                0x0082c780                __malloc_lock
                0x0082c7a0                __malloc_unlock
 .text          0x0082c7c0      0x180 ../multi_test_1_bsp\libhal_bsp.a(alt_read.o)
                0x0082c7c0                read
 .text          0x0082c940       0x60 ../multi_test_1_bsp\libhal_bsp.a(alt_release_fd.o)
                0x0082c940                alt_release_fd
 .text          0x0082c9a0       0xbc ../multi_test_1_bsp\libhal_bsp.a(alt_sbrk.o)
                0x0082c9a0                sbrk
 .text          0x0082ca5c      0x180 ../multi_test_1_bsp\libhal_bsp.a(alt_write.o)
                0x0082ca5c                write
 .text          0x0082cbdc       0xe8 ../multi_test_1_bsp\libhal_bsp.a(alt_sys_init.o)
                0x0082cbdc                alt_irq_init
                0x0082cc10                alt_sys_init
 .text          0x0082ccc4      0x148 ../multi_test_1_bsp\libhal_bsp.a(altera_avalon_jtag_uart_fd.o)
                0x0082ccc4                altera_avalon_jtag_uart_read_fd
                0x0082cd1c                altera_avalon_jtag_uart_write_fd
                0x0082cd74                altera_avalon_jtag_uart_close_fd
                0x0082cdbc                altera_avalon_jtag_uart_ioctl_fd
 .text          0x0082ce0c      0x40c ../multi_test_1_bsp\libhal_bsp.a(altera_avalon_jtag_uart_init.o)
                0x0082ce0c                altera_avalon_jtag_uart_init
                0x0082d1a4                altera_avalon_jtag_uart_close
 .text          0x0082d218       0xf4 ../multi_test_1_bsp\libhal_bsp.a(altera_avalon_jtag_uart_ioctl.o)
                0x0082d218                altera_avalon_jtag_uart_ioctl
 .text          0x0082d30c      0x224 ../multi_test_1_bsp\libhal_bsp.a(altera_avalon_jtag_uart_read.o)
                0x0082d30c                altera_avalon_jtag_uart_read
 .text          0x0082d530      0x240 ../multi_test_1_bsp\libhal_bsp.a(altera_avalon_jtag_uart_write.o)
                0x0082d530                altera_avalon_jtag_uart_write
 .text          0x0082d770      0x528 ../multi_test_1_bsp\libhal_bsp.a(altera_avalon_mailbox.o)
                0x0082d770                alt_avalon_mailbox_init
                0x0082d994                altera_avalon_mailbox_open
                0x0082d9ec                altera_avalon_mailbox_close
                0x0082da0c                altera_avalon_mailbox_post
                0x0082db18                altera_avalon_mailbox_pend
                0x0082dbc0                altera_avalon_mailbox_get
 .text          0x0082dc98      0x304 ../multi_test_1_bsp\libhal_bsp.a(altera_avalon_mutex.o)
                0x0082dd14                altera_avalon_mutex_open
                0x0082ddcc                altera_avalon_mutex_close
                0x0082ddec                altera_avalon_mutex_lock
                0x0082de2c                altera_avalon_mutex_trylock
                0x0082de6c                altera_avalon_mutex_unlock
                0x0082dec8                altera_avalon_mutex_is_mine
                0x0082df44                altera_avalon_mutex_first_lock
 .text          0x0082df9c      0x100 ../multi_test_1_bsp\libhal_bsp.a(altera_avalon_timer_sc.o)
                0x0082e00c                alt_avalon_timer_sc_init
 .text          0x0082e09c     0x4430 ../multi_test_1_bsp\libhal_bsp.a(altera_up_sd_card_avalon_interface.o)
                0x0082e09c                Write_Sector_Data
                0x0082e164                Save_Modified_Sector
                0x0082e1b4                Read_Sector_Data
                0x0082e2b0                get_cluster_flag
                0x0082e368                mark_cluster
                0x0082e44c                Check_for_Master_Boot_Record
                0x0082e5fc                Read_File_Record_At_Offset
                0x0082e880                Write_File_Record_At_Offset
                0x0082eb38                Check_for_DOS_FAT
                0x0082f180                Look_for_FAT16
                0x0082f278                filename_to_upper_case
                0x0082f348                check_file_name_for_FAT16_compliance
                0x0082f5d8                get_dir_divider_location
                0x0082f698                match_file_record_to_name_ext
                0x0082f984                get_home_directory_cluster_for_file
                0x0082fe98                find_file_in_directory
                0x008302fc                find_first_empty_cluster
                0x008304a0                find_first_empty_record_in_a_subdirectory
                0x008306ec                find_first_empty_record_in_root_directory
                0x00830818                convert_filename_to_name_extension
                0x008309d0                create_file
                0x00830ca4                copy_file_record_name_to_string
                0x00830df8                alt_up_sd_card_open_dev
                0x00830ebc                alt_up_sd_card_is_Present
                0x00830f84                alt_up_sd_card_is_FAT16
                0x00830ff8                alt_up_sd_card_find_first
                0x008310cc                alt_up_sd_card_find_next
                0x0083147c                alt_up_sd_card_fopen
                0x00831824                alt_up_sd_card_set_attributes
                0x008318b4                alt_up_sd_card_get_attributes
                0x00831940                alt_up_sd_card_read
                0x00831cdc                alt_up_sd_card_write
                0x00832300                alt_up_sd_card_fclose
 .text          0x008324cc      0x154 ../multi_test_1_bsp\libhal_bsp.a(alt_alarm_start.o)
                0x008324cc                alt_alarm_start
 .text          0x00832620      0x114 ../multi_test_1_bsp\libhal_bsp.a(alt_dev_llist_insert.o)
                0x00832620                alt_dev_llist_insert
 .text          0x00832734       0x64 ../multi_test_1_bsp\libhal_bsp.a(alt_do_ctors.o)
                0x00832734                _do_ctors
 .text          0x00832798       0x64 ../multi_test_1_bsp\libhal_bsp.a(alt_do_dtors.o)
                0x00832798                _do_dtors
 .text          0x008327fc       0x94 ../multi_test_1_bsp\libhal_bsp.a(alt_find_dev.o)
                0x008327fc                alt_find_dev
 .text          0x00832890       0x30 ../multi_test_1_bsp\libhal_bsp.a(alt_icache_flush_all.o)
                0x00832890                alt_icache_flush_all
 .text          0x008328c0      0x1d4 ../multi_test_1_bsp\libhal_bsp.a(alt_iic.o)
                0x008328c0                alt_ic_isr_register
                0x00832910                alt_ic_irq_enable
                0x008329ac                alt_ic_irq_disable
                0x00832a4c                alt_ic_irq_enabled
 .text          0x00832a94       0xf8 ../multi_test_1_bsp\libhal_bsp.a(alt_iic_isr_register.o)
                0x00832a94                alt_iic_isr_register
 .text          0x00832b8c      0x13c ../multi_test_1_bsp\libhal_bsp.a(alt_io_redirect.o)
                0x00832c50                alt_io_redirect
 .text          0x00832cc8        0x0 ../multi_test_1_bsp\libhal_bsp.a(alt_irq_entry.o)
 .text          0x00832cc8        0x0 ../multi_test_1_bsp\libhal_bsp.a(alt_irq_handler.o)
 .text          0x00832cc8      0x2c4 ../multi_test_1_bsp\libhal_bsp.a(alt_open.o)
                0x00832da4                open
 .text          0x00832f8c      0x1a4 ../multi_test_1_bsp\libhal_bsp.a(alt_tick.o)
                0x00832f8c                alt_alarm_stop
                0x00833024                alt_tick
 .text          0x00833130       0x20 ../multi_test_1_bsp\libhal_bsp.a(altera_nios2_irq.o)
                0x00833130                altera_nios2_irq_init
 .text          0x00833150        0x0 ../multi_test_1_bsp\libhal_bsp.a(alt_exception_entry.o)
 .text          0x00833150      0x120 ../multi_test_1_bsp\libhal_bsp.a(alt_find_file.o)
                0x00833150                alt_find_file
 .text          0x00833270       0xb8 ../multi_test_1_bsp\libhal_bsp.a(alt_get_fd.o)
                0x00833270                alt_get_fd
 .text          0x00833328       0x90 ../multi_test_1_bsp\libhal_bsp.a(alt_icache_flush.o)
                0x00833328                alt_icache_flush
 .text          0x008333b8       0x14 c:/software/altera/10.1/nios2eds/bin/gnu/h-i686-mingw32/bin/../lib/gcc/nios2-elf/4.1.2/../../../../nios2-elf/lib\libc.a(lib_a-atexit.o)
                0x008333b8                atexit
 .text          0x008333cc       0x74 c:/software/altera/10.1/nios2eds/bin/gnu/h-i686-mingw32/bin/../lib/gcc/nios2-elf/4.1.2/../../../../nios2-elf/lib\libc.a(lib_a-memcmp.o)
                0x008333cc                memcmp
 .text          0x00833440      0x134 c:/software/altera/10.1/nios2eds/bin/gnu/h-i686-mingw32/bin/../lib/gcc/nios2-elf/4.1.2/../../../../nios2-elf/lib\libc.a(lib_a-__atexit.o)
                0x00833440                __register_exitproc
 *(.gnu.warning.*)
 *(.fini)
                0x00833574                PROVIDE (__etext, ABSOLUTE (.))
                0x00833574                PROVIDE (_etext, ABSOLUTE (.))
                0x00833574                PROVIDE (etext, ABSOLUTE (.))
 *(.eh_frame_hdr)
                0x00833574                . = ALIGN (0x4)
                0x00833574                PROVIDE (__preinit_array_start, ABSOLUTE (.))
 *(.preinit_array)
                0x00833574                PROVIDE (__preinit_array_end, ABSOLUTE (.))
                0x00833574                PROVIDE (__init_array_start, ABSOLUTE (.))
 *(.init_array)
                0x00833574                PROVIDE (__init_array_end, ABSOLUTE (.))
                0x00833574                PROVIDE (__fini_array_start, ABSOLUTE (.))
 *(.fini_array)
                0x00833574                PROVIDE (__fini_array_end, ABSOLUTE (.))
 *(.eh_frame)
 .eh_frame      0x00833574       0x40 c:/software/altera/10.1/nios2eds/bin/gnu/h-i686-mingw32/bin/../lib/gcc/nios2-elf/4.1.2\libgcc.a(_udivdi3.o)
 .eh_frame      0x008335b4       0x2c c:/software/altera/10.1/nios2eds/bin/gnu/h-i686-mingw32/bin/../lib/gcc/nios2-elf/4.1.2\libgcc.a(_umoddi3.o)
                                 0x40 (size before relaxing)
 *(.gcc_except_table)
 *(.dynamic)
                0x008335e0                PROVIDE (__CTOR_LIST__, ABSOLUTE (.))
 *(.ctors)
 *(SORT(.ctors.*))
 .ctors.65535   0x008335e0        0x4 c:/software/altera/10.1/nios2eds/bin/gnu/h-i686-mingw32/bin/../lib/gcc/nios2-elf/4.1.2/../../../../nios2-elf/lib\libc.a(lib_a-__call_atexit.o)
                0x008335e4                PROVIDE (__CTOR_END__, ABSOLUTE (.))
                0x008335e4                PROVIDE (__DTOR_LIST__, ABSOLUTE (.))
 *(.dtors)
 *(SORT(.dtors.*))
                0x008335e4                PROVIDE (__DTOR_END__, ABSOLUTE (.))
 *(.jcr)
                0x008335e4                . = ALIGN (0x4)

.rodata         0x008335e4      0x608
                0x008335e4                PROVIDE (__ram_rodata_start, ABSOLUTE (.))
                0x008335e4                . = ALIGN (0x4)
 *(.rodata .rodata.* .gnu.linkonce.r.*)
 .rodata.str1.4
                0x008335e4       0x17 obj/common/util.o
                                 0x1c (size before relaxing)
 *fill*         0x008335fb        0x1 00
 .rodata.str1.4
                0x008335fc      0x139 obj/decoder/mjpeg423_decoder.o
                                0x13c (size before relaxing)
 *fill*         0x00833735        0x3 00
 .rodata.str1.4
                0x00833738       0xb2 obj/hello_world.o
                                 0xb4 (size before relaxing)
 *fill*         0x008337ea        0x2 00
 .rodata.str1.4
                0x008337ec       0x1a obj/sd_card.o
                                 0x1c (size before relaxing)
 *fill*         0x00833806        0x2 00
 .rodata        0x00833808       0x14 c:/software/altera/10.1/nios2eds/bin/gnu/h-i686-mingw32/bin/../lib/gcc/nios2-elf/4.1.2\libgcc.a(_thenan_df.o)
                0x00833808                __thenan_df
 .rodata        0x0083381c      0x100 c:/software/altera/10.1/nios2eds/bin/gnu/h-i686-mingw32/bin/../lib/gcc/nios2-elf/4.1.2\libgcc.a(_clz.o)
                0x0083381c                __clz_tab
 .rodata.str1.4
                0x00000000       0x1a c:/software/altera/10.1/nios2eds/bin/gnu/h-i686-mingw32/bin/../lib/gcc/nios2-elf/4.1.2/../../../../nios2-elf/lib\libc.a(lib_a-impure.o)
                                  0x4 (size before relaxing)
 .rodata.str1.4
                0x00000000       0x1a c:/software/altera/10.1/nios2eds/bin/gnu/h-i686-mingw32/bin/../lib/gcc/nios2-elf/4.1.2/../../../../nios2-elf/lib\libc.a(lib_a-puts.o)
                                  0x4 (size before relaxing)
 .rodata.str1.4
                0x0083391c       0x5a c:/software/altera/10.1/nios2eds/bin/gnu/h-i686-mingw32/bin/../lib/gcc/nios2-elf/4.1.2/../../../../nios2-elf/lib\libc.a(lib_a-vfprintf.o)
                                 0x60 (size before relaxing)
 .rodata        0x00833976       0x20 c:/software/altera/10.1/nios2eds/bin/gnu/h-i686-mingw32/bin/../lib/gcc/nios2-elf/4.1.2/../../../../nios2-elf/lib\libc.a(lib_a-vfprintf.o)
 *fill*         0x00833996        0x2 00
 .rodata.str1.4
                0x00833998       0x10 c:/software/altera/10.1/nios2eds/bin/gnu/h-i686-mingw32/bin/../lib/gcc/nios2-elf/4.1.2/../../../../nios2-elf/lib\libc.a(lib_a-dtoa.o)
                                 0x14 (size before relaxing)
 .rodata.str1.4
                0x008339a8       0x10 c:/software/altera/10.1/nios2eds/bin/gnu/h-i686-mingw32/bin/../lib/gcc/nios2-elf/4.1.2/../../../../nios2-elf/lib\libc.a(lib_a-locale.o)
                                 0x18 (size before relaxing)
 .rodata        0x008339b8       0x30 c:/software/altera/10.1/nios2eds/bin/gnu/h-i686-mingw32/bin/../lib/gcc/nios2-elf/4.1.2/../../../../nios2-elf/lib\libc.a(lib_a-locale.o)
 .rodata        0x008339e8      0x124 c:/software/altera/10.1/nios2eds/bin/gnu/h-i686-mingw32/bin/../lib/gcc/nios2-elf/4.1.2/../../../../nios2-elf/lib\libc.a(lib_a-mprec.o)
                0x008339e8                __mprec_tens
                0x00833ab0                __mprec_bigtens
                0x00833ad8                __mprec_tinytens
 .rodata        0x00833b0c        0xc ../multi_test_1_bsp\libhal_bsp.a(alt_dev.o)
 .rodata        0x00833b18       0x14 ../multi_test_1_bsp\libhal_bsp.a(alt_main.o)
 .rodata        0x00833b2c       0xc0 ../multi_test_1_bsp\libhal_bsp.a(alt_sys_init.o)
 *(.rodata1)
                0x00833bec                . = ALIGN (0x4)
                0x00833bec                PROVIDE (__ram_rodata_end, ABSOLUTE (.))
                0x008335e4                PROVIDE (__flash_rodata_start, LOADADDR (.rodata))

.rwdata         0x00833bec     0x1e38 load address 0x00835a24
                0x00833bec                PROVIDE (__ram_rwdata_start, ABSOLUTE (.))
                0x00833bec                . = ALIGN (0x4)
 *(.got.plt)
 *(.got)
 *(.data1)
 *(.data .data.* .gnu.linkonce.d.*)
 .data          0x00833bec        0x0 ../multi_test_1_bsp/obj/HAL/src/crt0.o
 .data          0x00833bec      0x200 obj/common/tables.o
                0x00833bec                Yquant
                0x00833c6c                Cquant
                0x00833cec                zigzag_table
 .data          0x00833dec        0x0 obj/common/util.o
 .data          0x00833dec        0x0 obj/decoder/idct.o
 .data          0x00833dec        0x0 obj/decoder/lossless_decode.o
 .data          0x00833dec        0x0 obj/decoder/mjpeg423_decoder.o
 .data          0x00833dec        0x0 obj/decoder/ycbcr_to_rgb.o
 .data          0x00833dec       0x28 obj/hello_world.o
                0x00833dec                files
 .data          0x00833e14        0x0 obj/sd_card.o
 .data          0x00833e14        0x0 c:/software/altera/10.1/nios2eds/bin/gnu/h-i686-mingw32/bin/../lib/gcc/nios2-elf/4.1.2/../../../../nios2-elf/lib\libm.a(lib_a-s_ceil.o)
 .data          0x00833e14        0x0 c:/software/altera/10.1/nios2eds/bin/gnu/h-i686-mingw32/bin/../lib/gcc/nios2-elf/4.1.2\libgcc.a(_addsub_df.o)
 .data          0x00833e14        0x0 c:/software/altera/10.1/nios2eds/bin/gnu/h-i686-mingw32/bin/../lib/gcc/nios2-elf/4.1.2\libgcc.a(_mul_df.o)
 .data          0x00833e14        0x0 c:/software/altera/10.1/nios2eds/bin/gnu/h-i686-mingw32/bin/../lib/gcc/nios2-elf/4.1.2\libgcc.a(_gt_df.o)
 .data          0x00833e14        0x0 c:/software/altera/10.1/nios2eds/bin/gnu/h-i686-mingw32/bin/../lib/gcc/nios2-elf/4.1.2\libgcc.a(_df_to_si.o)
 .data          0x00833e14        0x0 c:/software/altera/10.1/nios2eds/bin/gnu/h-i686-mingw32/bin/../lib/gcc/nios2-elf/4.1.2\libgcc.a(_thenan_df.o)
 .data          0x00833e14        0x0 c:/software/altera/10.1/nios2eds/bin/gnu/h-i686-mingw32/bin/../lib/gcc/nios2-elf/4.1.2\libgcc.a(_usi_to_df.o)
 .data          0x00833e14        0x0 c:/software/altera/10.1/nios2eds/bin/gnu/h-i686-mingw32/bin/../lib/gcc/nios2-elf/4.1.2\libgcc.a(lib2-divmod.o)
 .data          0x00833e14      0x100 c:/software/altera/10.1/nios2eds/bin/gnu/h-i686-mingw32/bin/../lib/gcc/nios2-elf/4.1.2\libgcc.a(lib2-divtable.o)
                0x00833e14                __divsi3_table
 .data          0x00833f14        0x0 c:/software/altera/10.1/nios2eds/bin/gnu/h-i686-mingw32/bin/../lib/gcc/nios2-elf/4.1.2\libgcc.a(_muldi3.o)
 .data          0x00833f14        0x0 c:/software/altera/10.1/nios2eds/bin/gnu/h-i686-mingw32/bin/../lib/gcc/nios2-elf/4.1.2\libgcc.a(_clzsi2.o)
 .data          0x00833f14        0x0 c:/software/altera/10.1/nios2eds/bin/gnu/h-i686-mingw32/bin/../lib/gcc/nios2-elf/4.1.2\libgcc.a(_pack_df.o)
 .data          0x00833f14        0x0 c:/software/altera/10.1/nios2eds/bin/gnu/h-i686-mingw32/bin/../lib/gcc/nios2-elf/4.1.2\libgcc.a(_unpack_df.o)
 .data          0x00833f14        0x0 c:/software/altera/10.1/nios2eds/bin/gnu/h-i686-mingw32/bin/../lib/gcc/nios2-elf/4.1.2\libgcc.a(_fpcmp_parts_df.o)
 .data          0x00833f14        0x0 c:/software/altera/10.1/nios2eds/bin/gnu/h-i686-mingw32/bin/../lib/gcc/nios2-elf/4.1.2\libgcc.a(_clz.o)
 .data          0x00833f14        0x0 c:/software/altera/10.1/nios2eds/bin/gnu/h-i686-mingw32/bin/../lib/gcc/nios2-elf/4.1.2/../../../../nios2-elf/lib\libc.a(lib_a-exit.o)
 .data          0x00833f14      0x400 c:/software/altera/10.1/nios2eds/bin/gnu/h-i686-mingw32/bin/../lib/gcc/nios2-elf/4.1.2/../../../../nios2-elf/lib\libc.a(lib_a-impure.o)
 .data          0x00834314        0x0 c:/software/altera/10.1/nios2eds/bin/gnu/h-i686-mingw32/bin/../lib/gcc/nios2-elf/4.1.2/../../../../nios2-elf/lib\libc.a(lib_a-int_errno.o)
 .data          0x00834314        0x0 c:/software/altera/10.1/nios2eds/bin/gnu/h-i686-mingw32/bin/../lib/gcc/nios2-elf/4.1.2/../../../../nios2-elf/lib\libc.a(lib_a-malloc.o)
 .data          0x00834314      0x408 c:/software/altera/10.1/nios2eds/bin/gnu/h-i686-mingw32/bin/../lib/gcc/nios2-elf/4.1.2/../../../../nios2-elf/lib\libc.a(lib_a-mallocr.o)
                0x00834314                __malloc_av_
 .data          0x0083471c        0x0 c:/software/altera/10.1/nios2eds/bin/gnu/h-i686-mingw32/bin/../lib/gcc/nios2-elf/4.1.2/../../../../nios2-elf/lib\libc.a(lib_a-printf.o)
 .data          0x0083471c        0x0 c:/software/altera/10.1/nios2eds/bin/gnu/h-i686-mingw32/bin/../lib/gcc/nios2-elf/4.1.2/../../../../nios2-elf/lib\libc.a(lib_a-putchar.o)
 .data          0x0083471c        0x0 c:/software/altera/10.1/nios2eds/bin/gnu/h-i686-mingw32/bin/../lib/gcc/nios2-elf/4.1.2/../../../../nios2-elf/lib\libc.a(lib_a-puts.o)
 .data          0x0083471c        0x0 c:/software/altera/10.1/nios2eds/bin/gnu/h-i686-mingw32/bin/../lib/gcc/nios2-elf/4.1.2/../../../../nios2-elf/lib\libc.a(lib_a-sbrkr.o)
 .data          0x0083471c        0x0 c:/software/altera/10.1/nios2eds/bin/gnu/h-i686-mingw32/bin/../lib/gcc/nios2-elf/4.1.2/../../../../nios2-elf/lib\libc.a(lib_a-strlen.o)
 .data          0x0083471c        0x0 c:/software/altera/10.1/nios2eds/bin/gnu/h-i686-mingw32/bin/../lib/gcc/nios2-elf/4.1.2/../../../../nios2-elf/lib\libc.a(lib_a-vfprintf.o)
 .data          0x0083471c        0x0 c:/software/altera/10.1/nios2eds/bin/gnu/h-i686-mingw32/bin/../lib/gcc/nios2-elf/4.1.2/../../../../nios2-elf/lib\libc.a(lib_a-wsetup.o)
 .data          0x0083471c        0x0 c:/software/altera/10.1/nios2eds/bin/gnu/h-i686-mingw32/bin/../lib/gcc/nios2-elf/4.1.2/../../../../nios2-elf/lib\libc.a(lib_a-__call_atexit.o)
 .data          0x0083471c        0x0 c:/software/altera/10.1/nios2eds/bin/gnu/h-i686-mingw32/bin/../lib/gcc/nios2-elf/4.1.2/../../../../nios2-elf/lib\libc.a(lib_a-dtoa.o)
 .data          0x0083471c        0x0 c:/software/altera/10.1/nios2eds/bin/gnu/h-i686-mingw32/bin/../lib/gcc/nios2-elf/4.1.2/../../../../nios2-elf/lib\libc.a(lib_a-fflush.o)
 .data          0x0083471c        0x0 c:/software/altera/10.1/nios2eds/bin/gnu/h-i686-mingw32/bin/../lib/gcc/nios2-elf/4.1.2/../../../../nios2-elf/lib\libc.a(lib_a-findfp.o)
 .data          0x0083471c        0x0 c:/software/altera/10.1/nios2eds/bin/gnu/h-i686-mingw32/bin/../lib/gcc/nios2-elf/4.1.2/../../../../nios2-elf/lib\libc.a(lib_a-freer.o)
 .data          0x0083471c        0x0 c:/software/altera/10.1/nios2eds/bin/gnu/h-i686-mingw32/bin/../lib/gcc/nios2-elf/4.1.2/../../../../nios2-elf/lib\libc.a(lib_a-fvwrite.o)
 .data          0x0083471c        0x0 c:/software/altera/10.1/nios2eds/bin/gnu/h-i686-mingw32/bin/../lib/gcc/nios2-elf/4.1.2/../../../../nios2-elf/lib\libc.a(lib_a-fwalk.o)
 .data          0x0083471c        0xc c:/software/altera/10.1/nios2eds/bin/gnu/h-i686-mingw32/bin/../lib/gcc/nios2-elf/4.1.2/../../../../nios2-elf/lib\libc.a(lib_a-locale.o)
                0x0083471c                __lc_ctype
 .data          0x00834728        0x0 c:/software/altera/10.1/nios2eds/bin/gnu/h-i686-mingw32/bin/../lib/gcc/nios2-elf/4.1.2/../../../../nios2-elf/lib\libc.a(lib_a-makebuf.o)
 .data          0x00834728        0x0 c:/software/altera/10.1/nios2eds/bin/gnu/h-i686-mingw32/bin/../lib/gcc/nios2-elf/4.1.2/../../../../nios2-elf/lib\libc.a(lib_a-memchr.o)
 .data          0x00834728        0x0 c:/software/altera/10.1/nios2eds/bin/gnu/h-i686-mingw32/bin/../lib/gcc/nios2-elf/4.1.2/../../../../nios2-elf/lib\libc.a(lib_a-memcpy.o)
 .data          0x00834728        0x0 c:/software/altera/10.1/nios2eds/bin/gnu/h-i686-mingw32/bin/../lib/gcc/nios2-elf/4.1.2/../../../../nios2-elf/lib\libc.a(lib_a-memmove.o)
 .data          0x00834728        0x0 c:/software/altera/10.1/nios2eds/bin/gnu/h-i686-mingw32/bin/../lib/gcc/nios2-elf/4.1.2/../../../../nios2-elf/lib\libc.a(lib_a-memset.o)
 .data          0x00834728        0x0 c:/software/altera/10.1/nios2eds/bin/gnu/h-i686-mingw32/bin/../lib/gcc/nios2-elf/4.1.2/../../../../nios2-elf/lib\libc.a(lib_a-mprec.o)
 .data          0x00834728        0x0 c:/software/altera/10.1/nios2eds/bin/gnu/h-i686-mingw32/bin/../lib/gcc/nios2-elf/4.1.2/../../../../nios2-elf/lib\libc.a(lib_a-putc.o)
 .data          0x00834728        0x0 c:/software/altera/10.1/nios2eds/bin/gnu/h-i686-mingw32/bin/../lib/gcc/nios2-elf/4.1.2/../../../../nios2-elf/lib\libc.a(lib_a-reallocr.o)
 .data          0x00834728        0x0 c:/software/altera/10.1/nios2eds/bin/gnu/h-i686-mingw32/bin/../lib/gcc/nios2-elf/4.1.2/../../../../nios2-elf/lib\libc.a(lib_a-s_isinfd.o)
 .data          0x00834728        0x0 c:/software/altera/10.1/nios2eds/bin/gnu/h-i686-mingw32/bin/../lib/gcc/nios2-elf/4.1.2/../../../../nios2-elf/lib\libc.a(lib_a-s_isnand.o)
 .data          0x00834728        0x0 c:/software/altera/10.1/nios2eds/bin/gnu/h-i686-mingw32/bin/../lib/gcc/nios2-elf/4.1.2/../../../../nios2-elf/lib\libc.a(lib_a-stdio.o)
 .data          0x00834728        0x0 c:/software/altera/10.1/nios2eds/bin/gnu/h-i686-mingw32/bin/../lib/gcc/nios2-elf/4.1.2/../../../../nios2-elf/lib\libc.a(lib_a-strcmp.o)
 .data          0x00834728        0x0 c:/software/altera/10.1/nios2eds/bin/gnu/h-i686-mingw32/bin/../lib/gcc/nios2-elf/4.1.2/../../../../nios2-elf/lib\libc.a(lib_a-wbuf.o)
 .data          0x00834728        0x0 c:/software/altera/10.1/nios2eds/bin/gnu/h-i686-mingw32/bin/../lib/gcc/nios2-elf/4.1.2/../../../../nios2-elf/lib\libc.a(lib_a-writer.o)
 .data          0x00834728        0x0 c:/software/altera/10.1/nios2eds/bin/gnu/h-i686-mingw32/bin/../lib/gcc/nios2-elf/4.1.2/../../../../nios2-elf/lib\libc.a(lib_a-callocr.o)
 .data          0x00834728        0x0 c:/software/altera/10.1/nios2eds/bin/gnu/h-i686-mingw32/bin/../lib/gcc/nios2-elf/4.1.2/../../../../nios2-elf/lib\libc.a(lib_a-closer.o)
 .data          0x00834728        0x0 c:/software/altera/10.1/nios2eds/bin/gnu/h-i686-mingw32/bin/../lib/gcc/nios2-elf/4.1.2/../../../../nios2-elf/lib\libc.a(lib_a-fclose.o)
 .data          0x00834728        0x0 c:/software/altera/10.1/nios2eds/bin/gnu/h-i686-mingw32/bin/../lib/gcc/nios2-elf/4.1.2/../../../../nios2-elf/lib\libc.a(lib_a-fstatr.o)
 .data          0x00834728        0x0 c:/software/altera/10.1/nios2eds/bin/gnu/h-i686-mingw32/bin/../lib/gcc/nios2-elf/4.1.2/../../../../nios2-elf/lib\libc.a(lib_a-isattyr.o)
 .data          0x00834728        0x0 c:/software/altera/10.1/nios2eds/bin/gnu/h-i686-mingw32/bin/../lib/gcc/nios2-elf/4.1.2/../../../../nios2-elf/lib\libc.a(lib_a-lseekr.o)
 .data          0x00834728        0x0 c:/software/altera/10.1/nios2eds/bin/gnu/h-i686-mingw32/bin/../lib/gcc/nios2-elf/4.1.2/../../../../nios2-elf/lib\libc.a(lib_a-readr.o)
 .data          0x00834728        0x0 c:/software/altera/10.1/nios2eds/bin/gnu/h-i686-mingw32/bin/../lib/gcc/nios2-elf/4.1.2\libgcc.a(_udivdi3.o)
 .data          0x00834728        0x0 c:/software/altera/10.1/nios2eds/bin/gnu/h-i686-mingw32/bin/../lib/gcc/nios2-elf/4.1.2\libgcc.a(_umoddi3.o)
 .data          0x00834728        0x0 c:/software/altera/10.1/nios2eds/bin/gnu/h-i686-mingw32/bin/../lib/gcc/nios2-elf/4.1.2\libgcc.a(_div_df.o)
 .data          0x00834728        0x0 c:/software/altera/10.1/nios2eds/bin/gnu/h-i686-mingw32/bin/../lib/gcc/nios2-elf/4.1.2\libgcc.a(_eq_df.o)
 .data          0x00834728        0x0 c:/software/altera/10.1/nios2eds/bin/gnu/h-i686-mingw32/bin/../lib/gcc/nios2-elf/4.1.2\libgcc.a(_ne_df.o)
 .data          0x00834728        0x0 c:/software/altera/10.1/nios2eds/bin/gnu/h-i686-mingw32/bin/../lib/gcc/nios2-elf/4.1.2\libgcc.a(_ge_df.o)
 .data          0x00834728        0x0 c:/software/altera/10.1/nios2eds/bin/gnu/h-i686-mingw32/bin/../lib/gcc/nios2-elf/4.1.2\libgcc.a(_lt_df.o)
 .data          0x00834728        0x0 c:/software/altera/10.1/nios2eds/bin/gnu/h-i686-mingw32/bin/../lib/gcc/nios2-elf/4.1.2\libgcc.a(_si_to_df.o)
 .data          0x00834728        0x0 ../multi_test_1_bsp\libhal_bsp.a(alt_close.o)
 .data          0x00834728        0x0 ../multi_test_1_bsp\libhal_bsp.a(alt_dcache_flush_all.o)
 .data          0x00834728      0x1a8 ../multi_test_1_bsp\libhal_bsp.a(alt_dev.o)
                0x00834728                alt_dev_null
                0x00834750                alt_fd_list
 .data          0x008348d0        0x0 ../multi_test_1_bsp\libhal_bsp.a(alt_errno.o)
 .data          0x008348d0        0x0 ../multi_test_1_bsp\libhal_bsp.a(alt_exit.o)
 .data          0x008348d0        0x0 ../multi_test_1_bsp\libhal_bsp.a(alt_fstat.o)
 .data          0x008348d0        0x0 ../multi_test_1_bsp\libhal_bsp.a(alt_irq_register.o)
 .data          0x008348d0        0x0 ../multi_test_1_bsp\libhal_bsp.a(alt_irq_vars.o)
 .data          0x008348d0        0x0 ../multi_test_1_bsp\libhal_bsp.a(alt_isatty.o)
 .data          0x008348d0        0x0 ../multi_test_1_bsp\libhal_bsp.a(alt_load.o)
 .data          0x008348d0        0x0 ../multi_test_1_bsp\libhal_bsp.a(alt_lseek.o)
 .data          0x008348d0        0x0 ../multi_test_1_bsp\libhal_bsp.a(alt_main.o)
 .data          0x008348d0        0x0 ../multi_test_1_bsp\libhal_bsp.a(alt_malloc_lock.o)
 .data          0x008348d0        0x0 ../multi_test_1_bsp\libhal_bsp.a(alt_read.o)
 .data          0x008348d0        0x0 ../multi_test_1_bsp\libhal_bsp.a(alt_release_fd.o)
 .data          0x008348d0        0x0 ../multi_test_1_bsp\libhal_bsp.a(alt_sbrk.o)
 .data          0x008348d0        0x0 ../multi_test_1_bsp\libhal_bsp.a(alt_write.o)
 .data          0x008348d0     0x1104 ../multi_test_1_bsp\libhal_bsp.a(alt_sys_init.o)
 .data          0x008359d4        0x0 ../multi_test_1_bsp\libhal_bsp.a(altera_avalon_jtag_uart_fd.o)
 .data          0x008359d4        0x0 ../multi_test_1_bsp\libhal_bsp.a(altera_avalon_jtag_uart_init.o)
 .data          0x008359d4        0x0 ../multi_test_1_bsp\libhal_bsp.a(altera_avalon_jtag_uart_ioctl.o)
 .data          0x008359d4        0x0 ../multi_test_1_bsp\libhal_bsp.a(altera_avalon_jtag_uart_read.o)
 .data          0x008359d4        0x0 ../multi_test_1_bsp\libhal_bsp.a(altera_avalon_jtag_uart_write.o)
 .data          0x008359d4        0x0 ../multi_test_1_bsp\libhal_bsp.a(altera_avalon_mailbox.o)
 .data          0x008359d4        0x0 ../multi_test_1_bsp\libhal_bsp.a(altera_avalon_mutex.o)
 .data          0x008359d4        0x0 ../multi_test_1_bsp\libhal_bsp.a(altera_avalon_timer_sc.o)
 .data          0x008359d4        0x0 ../multi_test_1_bsp\libhal_bsp.a(altera_up_sd_card_avalon_interface.o)
 .data          0x008359d4        0x0 ../multi_test_1_bsp\libhal_bsp.a(alt_alarm_start.o)
 .data          0x008359d4        0x0 ../multi_test_1_bsp\libhal_bsp.a(alt_dev_llist_insert.o)
 .data          0x008359d4        0x0 ../multi_test_1_bsp\libhal_bsp.a(alt_do_ctors.o)
 .data          0x008359d4        0x0 ../multi_test_1_bsp\libhal_bsp.a(alt_do_dtors.o)
 .data          0x008359d4        0x0 ../multi_test_1_bsp\libhal_bsp.a(alt_find_dev.o)
 .data          0x008359d4        0x0 ../multi_test_1_bsp\libhal_bsp.a(alt_icache_flush_all.o)
 .data          0x008359d4        0x0 ../multi_test_1_bsp\libhal_bsp.a(alt_iic.o)
 .data          0x008359d4        0x0 ../multi_test_1_bsp\libhal_bsp.a(alt_iic_isr_register.o)
 .data          0x008359d4        0x0 ../multi_test_1_bsp\libhal_bsp.a(alt_io_redirect.o)
 .data          0x008359d4        0x0 ../multi_test_1_bsp\libhal_bsp.a(alt_irq_entry.o)
 .data          0x008359d4        0x0 ../multi_test_1_bsp\libhal_bsp.a(alt_irq_handler.o)
 .data          0x008359d4        0x0 ../multi_test_1_bsp\libhal_bsp.a(alt_open.o)
 .data          0x008359d4        0x0 ../multi_test_1_bsp\libhal_bsp.a(alt_tick.o)
 .data          0x008359d4        0x0 ../multi_test_1_bsp\libhal_bsp.a(altera_nios2_irq.o)
 .data          0x008359d4        0x0 ../multi_test_1_bsp\libhal_bsp.a(alt_exception_entry.o)
 .data          0x008359d4        0x0 ../multi_test_1_bsp\libhal_bsp.a(alt_find_file.o)
 .data          0x008359d4        0x0 ../multi_test_1_bsp\libhal_bsp.a(alt_get_fd.o)
 .data          0x008359d4        0x0 ../multi_test_1_bsp\libhal_bsp.a(alt_icache_flush.o)
 .data          0x008359d4        0x0 c:/software/altera/10.1/nios2eds/bin/gnu/h-i686-mingw32/bin/../lib/gcc/nios2-elf/4.1.2/../../../../nios2-elf/lib\libc.a(lib_a-atexit.o)
 .data          0x008359d4        0x0 c:/software/altera/10.1/nios2eds/bin/gnu/h-i686-mingw32/bin/../lib/gcc/nios2-elf/4.1.2/../../../../nios2-elf/lib\libc.a(lib_a-memcmp.o)
 .data          0x008359d4        0x0 c:/software/altera/10.1/nios2eds/bin/gnu/h-i686-mingw32/bin/../lib/gcc/nios2-elf/4.1.2/../../../../nios2-elf/lib\libc.a(lib_a-__atexit.o)
                0x0083d9d4                _gp = ABSOLUTE ((. + 0x8000))
                0x0083d9d4                PROVIDE (gp, _gp)
 *(.sdata .sdata.* .gnu.linkonce.s.*)
 .sdata         0x008359d4        0x8 c:/software/altera/10.1/nios2eds/bin/gnu/h-i686-mingw32/bin/../lib/gcc/nios2-elf/4.1.2/../../../../nios2-elf/lib\libc.a(lib_a-impure.o)
                0x008359d4                _impure_ptr
                0x008359d8                _global_impure_ptr
 .sdata         0x008359dc        0x8 c:/software/altera/10.1/nios2eds/bin/gnu/h-i686-mingw32/bin/../lib/gcc/nios2-elf/4.1.2/../../../../nios2-elf/lib\libc.a(lib_a-mallocr.o)
                0x008359dc                __malloc_trim_threshold
                0x008359e0                __malloc_sbrk_base
 .sdata         0x008359e4        0x8 c:/software/altera/10.1/nios2eds/bin/gnu/h-i686-mingw32/bin/../lib/gcc/nios2-elf/4.1.2/../../../../nios2-elf/lib\libc.a(lib_a-locale.o)
                0x008359e4                __mb_cur_max
 .sdata         0x008359ec       0x14 ../multi_test_1_bsp\libhal_bsp.a(alt_dev.o)
                0x008359ec                alt_fs_list
                0x008359f4                alt_dev_list
                0x008359fc                alt_max_fd
 .sdata         0x00835a00        0x4 ../multi_test_1_bsp\libhal_bsp.a(alt_errno.o)
                0x00835a00                alt_errno
 .sdata         0x00835a04        0x4 ../multi_test_1_bsp\libhal_bsp.a(alt_irq_vars.o)
                0x00835a04                alt_priority_mask
 .sdata         0x00835a08        0x4 ../multi_test_1_bsp\libhal_bsp.a(alt_sbrk.o)
 .sdata         0x00835a0c        0x8 ../multi_test_1_bsp\libhal_bsp.a(altera_avalon_mailbox.o)
                0x00835a0c                alt_mailbox_list
 .sdata         0x00835a14        0x8 ../multi_test_1_bsp\libhal_bsp.a(altera_avalon_mutex.o)
                0x00835a14                alt_mutex_list
 .sdata         0x00835a1c        0x8 ../multi_test_1_bsp\libhal_bsp.a(alt_tick.o)
                0x00835a1c                alt_alarm_list
 *(.sdata2 .sdata2.* .gnu.linkonce.s2.*)
                0x00835a24                . = ALIGN (0x4)
                0x00835a24                _edata = ABSOLUTE (.)
                0x00835a24                PROVIDE (edata, ABSOLUTE (.))
                0x00835a24                PROVIDE (__ram_rwdata_end, ABSOLUTE (.))
                0x00835a24                PROVIDE (__flash_rwdata_start, LOADADDR (.rwdata))

.bss            0x0083785c      0x900
                0x0083785c                __bss_start = ABSOLUTE (.)
                0x0083785c                PROVIDE (__sbss_start, ABSOLUTE (.))
                0x0083785c                PROVIDE (___sbss_start, ABSOLUTE (.))
 *(.dynsbss)
 *(.sbss .sbss.* .gnu.linkonce.sb.*)
 .sbss          0x0083785c        0x4 obj/decoder/mjpeg423_decoder.o
                0x0083785c                counter
 .sbss          0x00837860       0x54 obj/decoder/mjpeg423_decoder.o
                0x00837860                recv_dev
                0x00837864                last_tested
                0x00837868                CrDCAC
                0x0083786c                edge_capture
                0x00837870                send_dev
                0x00837874                sendmessage
                0x00837878                playing
                0x0083787c                sendMsg
                0x00837880                YDCAC
                0x00837884                Yblock
                0x00837888                Cbblock
                0x0083788c                receiveMessage
                0x00837890                playedOnceFlag
                0x00837894                backward
                0x00837898                flip
                0x0083789c                fastForward
                0x008378a0                Crblock
                0x008378a4                CbDCAC
                0x008378a8                frame_index
                0x008378ac                getNextFile
                0x008378b0                current_frame
 .sbss          0x008378b4       0x10 obj/hello_world.o
                0x008378b4                blah
                0x008378b8                index
                0x008378bc                button_latch
                0x008378c0                button_state
 .sbss          0x008378c4       0x10 obj/sd_card.o
                0x008378c4                sectors
                0x008378c8                sd_card_curr_read_sector
                0x008378cc                sd_card_start_byte_in_sector
                0x008378d0                sd_card_sectors_num
 .sbss          0x008378d4        0x4 c:/software/altera/10.1/nios2eds/bin/gnu/h-i686-mingw32/bin/../lib/gcc/nios2-elf/4.1.2/../../../../nios2-elf/lib\libc.a(lib_a-int_errno.o)
                0x008378d4                errno
 .sbss          0x008378d8        0xc c:/software/altera/10.1/nios2eds/bin/gnu/h-i686-mingw32/bin/../lib/gcc/nios2-elf/4.1.2/../../../../nios2-elf/lib\libc.a(lib_a-mallocr.o)
                0x008378d8                __malloc_top_pad
                0x008378dc                __malloc_max_sbrked_mem
                0x008378e0                __malloc_max_total_mem
 .sbss          0x008378e4        0xc c:/software/altera/10.1/nios2eds/bin/gnu/h-i686-mingw32/bin/../lib/gcc/nios2-elf/4.1.2/../../../../nios2-elf/lib\libc.a(lib_a-locale.o)
                0x008378e4                __nlocale_changed
                0x008378e8                __mlocale_changed
                0x008378ec                _PathLocale
 .sbss          0x008378f0        0x4 ../multi_test_1_bsp\libhal_bsp.a(alt_irq_vars.o)
                0x008378f0                alt_irq_active
 .sbss          0x008378f4        0xc ../multi_test_1_bsp\libhal_bsp.a(alt_main.o)
                0x008378f4                alt_argc
                0x008378f8                alt_argv
                0x008378fc                alt_envp
 .sbss          0x00837900       0x34 ../multi_test_1_bsp\libhal_bsp.a(altera_up_sd_card_avalon_interface.o)
                0x00837900                initialized
                0x00837904                is_sd_card_formated_as_FAT16
                0x00837908                aux_status_register
                0x0083790c                status_register
                0x00837910                CSD_register_w0
                0x00837914                command_register
                0x00837918                command_argument_register
                0x0083791c                buffer_memory
                0x00837920                fat_partition_offset_in_512_byte_sectors
                0x00837924                fat_partition_size_in_512_byte_sectors
                0x00837928                device_pointer
                0x0083792c                current_sector_modified
                0x00837930                current_sector_index
 .sbss          0x00837934        0x8 ../multi_test_1_bsp\libhal_bsp.a(alt_tick.o)
                0x00837934                _alt_tick_rate
                0x00837938                _alt_nticks
 *(.sbss2 .sbss2.* .gnu.linkonce.sb2.*)
 *(.scommon)
                0x0083793c                PROVIDE (__sbss_end, ABSOLUTE (.))
                0x0083793c                PROVIDE (___sbss_end, ABSOLUTE (.))
 *(.dynbss)
 *(.bss .bss.* .gnu.linkonce.b.*)
 .bss           0x0083793c        0x0 ../multi_test_1_bsp/obj/HAL/src/crt0.o
 .bss           0x0083793c        0x0 obj/common/tables.o
 .bss           0x0083793c        0x0 obj/common/util.o
 .bss           0x0083793c        0x0 obj/decoder/idct.o
 .bss           0x0083793c        0x0 obj/decoder/lossless_decode.o
 .bss           0x0083793c        0x0 obj/decoder/mjpeg423_decoder.o
 .bss           0x0083793c        0x0 obj/decoder/ycbcr_to_rgb.o
 .bss           0x0083793c        0x0 obj/hello_world.o
 .bss           0x0083793c        0x0 obj/sd_card.o
 .bss           0x0083793c        0x0 c:/software/altera/10.1/nios2eds/bin/gnu/h-i686-mingw32/bin/../lib/gcc/nios2-elf/4.1.2/../../../../nios2-elf/lib\libm.a(lib_a-s_ceil.o)
 .bss           0x0083793c        0x0 c:/software/altera/10.1/nios2eds/bin/gnu/h-i686-mingw32/bin/../lib/gcc/nios2-elf/4.1.2\libgcc.a(_addsub_df.o)
 .bss           0x0083793c        0x0 c:/software/altera/10.1/nios2eds/bin/gnu/h-i686-mingw32/bin/../lib/gcc/nios2-elf/4.1.2\libgcc.a(_mul_df.o)
 .bss           0x0083793c        0x0 c:/software/altera/10.1/nios2eds/bin/gnu/h-i686-mingw32/bin/../lib/gcc/nios2-elf/4.1.2\libgcc.a(_gt_df.o)
 .bss           0x0083793c        0x0 c:/software/altera/10.1/nios2eds/bin/gnu/h-i686-mingw32/bin/../lib/gcc/nios2-elf/4.1.2\libgcc.a(_df_to_si.o)
 .bss           0x0083793c        0x0 c:/software/altera/10.1/nios2eds/bin/gnu/h-i686-mingw32/bin/../lib/gcc/nios2-elf/4.1.2\libgcc.a(_thenan_df.o)
 .bss           0x0083793c        0x0 c:/software/altera/10.1/nios2eds/bin/gnu/h-i686-mingw32/bin/../lib/gcc/nios2-elf/4.1.2\libgcc.a(_usi_to_df.o)
 .bss           0x0083793c        0x0 c:/software/altera/10.1/nios2eds/bin/gnu/h-i686-mingw32/bin/../lib/gcc/nios2-elf/4.1.2\libgcc.a(lib2-divmod.o)
 .bss           0x0083793c        0x0 c:/software/altera/10.1/nios2eds/bin/gnu/h-i686-mingw32/bin/../lib/gcc/nios2-elf/4.1.2\libgcc.a(lib2-divtable.o)
 .bss           0x0083793c        0x0 c:/software/altera/10.1/nios2eds/bin/gnu/h-i686-mingw32/bin/../lib/gcc/nios2-elf/4.1.2\libgcc.a(_muldi3.o)
 .bss           0x0083793c        0x0 c:/software/altera/10.1/nios2eds/bin/gnu/h-i686-mingw32/bin/../lib/gcc/nios2-elf/4.1.2\libgcc.a(_clzsi2.o)
 .bss           0x0083793c        0x0 c:/software/altera/10.1/nios2eds/bin/gnu/h-i686-mingw32/bin/../lib/gcc/nios2-elf/4.1.2\libgcc.a(_pack_df.o)
 .bss           0x0083793c        0x0 c:/software/altera/10.1/nios2eds/bin/gnu/h-i686-mingw32/bin/../lib/gcc/nios2-elf/4.1.2\libgcc.a(_unpack_df.o)
 .bss           0x0083793c        0x0 c:/software/altera/10.1/nios2eds/bin/gnu/h-i686-mingw32/bin/../lib/gcc/nios2-elf/4.1.2\libgcc.a(_fpcmp_parts_df.o)
 .bss           0x0083793c        0x0 c:/software/altera/10.1/nios2eds/bin/gnu/h-i686-mingw32/bin/../lib/gcc/nios2-elf/4.1.2\libgcc.a(_clz.o)
 .bss           0x0083793c        0x0 c:/software/altera/10.1/nios2eds/bin/gnu/h-i686-mingw32/bin/../lib/gcc/nios2-elf/4.1.2/../../../../nios2-elf/lib\libc.a(lib_a-exit.o)
 .bss           0x0083793c        0x0 c:/software/altera/10.1/nios2eds/bin/gnu/h-i686-mingw32/bin/../lib/gcc/nios2-elf/4.1.2/../../../../nios2-elf/lib\libc.a(lib_a-impure.o)
 .bss           0x0083793c        0x0 c:/software/altera/10.1/nios2eds/bin/gnu/h-i686-mingw32/bin/../lib/gcc/nios2-elf/4.1.2/../../../../nios2-elf/lib\libc.a(lib_a-int_errno.o)
 .bss           0x0083793c        0x0 c:/software/altera/10.1/nios2eds/bin/gnu/h-i686-mingw32/bin/../lib/gcc/nios2-elf/4.1.2/../../../../nios2-elf/lib\libc.a(lib_a-malloc.o)
 .bss           0x0083793c       0x28 c:/software/altera/10.1/nios2eds/bin/gnu/h-i686-mingw32/bin/../lib/gcc/nios2-elf/4.1.2/../../../../nios2-elf/lib\libc.a(lib_a-mallocr.o)
                0x0083793c                __malloc_current_mallinfo
 .bss           0x00837964        0x0 c:/software/altera/10.1/nios2eds/bin/gnu/h-i686-mingw32/bin/../lib/gcc/nios2-elf/4.1.2/../../../../nios2-elf/lib\libc.a(lib_a-printf.o)
 .bss           0x00837964        0x0 c:/software/altera/10.1/nios2eds/bin/gnu/h-i686-mingw32/bin/../lib/gcc/nios2-elf/4.1.2/../../../../nios2-elf/lib\libc.a(lib_a-putchar.o)
 .bss           0x00837964        0x0 c:/software/altera/10.1/nios2eds/bin/gnu/h-i686-mingw32/bin/../lib/gcc/nios2-elf/4.1.2/../../../../nios2-elf/lib\libc.a(lib_a-puts.o)
 .bss           0x00837964        0x0 c:/software/altera/10.1/nios2eds/bin/gnu/h-i686-mingw32/bin/../lib/gcc/nios2-elf/4.1.2/../../../../nios2-elf/lib\libc.a(lib_a-sbrkr.o)
 .bss           0x00837964        0x0 c:/software/altera/10.1/nios2eds/bin/gnu/h-i686-mingw32/bin/../lib/gcc/nios2-elf/4.1.2/../../../../nios2-elf/lib\libc.a(lib_a-strlen.o)
 .bss           0x00837964        0x0 c:/software/altera/10.1/nios2eds/bin/gnu/h-i686-mingw32/bin/../lib/gcc/nios2-elf/4.1.2/../../../../nios2-elf/lib\libc.a(lib_a-vfprintf.o)
 .bss           0x00837964        0x0 c:/software/altera/10.1/nios2eds/bin/gnu/h-i686-mingw32/bin/../lib/gcc/nios2-elf/4.1.2/../../../../nios2-elf/lib\libc.a(lib_a-wsetup.o)
 .bss           0x00837964        0x0 c:/software/altera/10.1/nios2eds/bin/gnu/h-i686-mingw32/bin/../lib/gcc/nios2-elf/4.1.2/../../../../nios2-elf/lib\libc.a(lib_a-__call_atexit.o)
 .bss           0x00837964        0x0 c:/software/altera/10.1/nios2eds/bin/gnu/h-i686-mingw32/bin/../lib/gcc/nios2-elf/4.1.2/../../../../nios2-elf/lib\libc.a(lib_a-dtoa.o)
 .bss           0x00837964        0x0 c:/software/altera/10.1/nios2eds/bin/gnu/h-i686-mingw32/bin/../lib/gcc/nios2-elf/4.1.2/../../../../nios2-elf/lib\libc.a(lib_a-fflush.o)
 .bss           0x00837964        0x0 c:/software/altera/10.1/nios2eds/bin/gnu/h-i686-mingw32/bin/../lib/gcc/nios2-elf/4.1.2/../../../../nios2-elf/lib\libc.a(lib_a-findfp.o)
 .bss           0x00837964        0x0 c:/software/altera/10.1/nios2eds/bin/gnu/h-i686-mingw32/bin/../lib/gcc/nios2-elf/4.1.2/../../../../nios2-elf/lib\libc.a(lib_a-freer.o)
 .bss           0x00837964        0x0 c:/software/altera/10.1/nios2eds/bin/gnu/h-i686-mingw32/bin/../lib/gcc/nios2-elf/4.1.2/../../../../nios2-elf/lib\libc.a(lib_a-fvwrite.o)
 .bss           0x00837964        0x0 c:/software/altera/10.1/nios2eds/bin/gnu/h-i686-mingw32/bin/../lib/gcc/nios2-elf/4.1.2/../../../../nios2-elf/lib\libc.a(lib_a-fwalk.o)
 .bss           0x00837964        0x0 c:/software/altera/10.1/nios2eds/bin/gnu/h-i686-mingw32/bin/../lib/gcc/nios2-elf/4.1.2/../../../../nios2-elf/lib\libc.a(lib_a-locale.o)
 .bss           0x00837964        0x0 c:/software/altera/10.1/nios2eds/bin/gnu/h-i686-mingw32/bin/../lib/gcc/nios2-elf/4.1.2/../../../../nios2-elf/lib\libc.a(lib_a-makebuf.o)
 .bss           0x00837964        0x0 c:/software/altera/10.1/nios2eds/bin/gnu/h-i686-mingw32/bin/../lib/gcc/nios2-elf/4.1.2/../../../../nios2-elf/lib\libc.a(lib_a-memchr.o)
 .bss           0x00837964        0x0 c:/software/altera/10.1/nios2eds/bin/gnu/h-i686-mingw32/bin/../lib/gcc/nios2-elf/4.1.2/../../../../nios2-elf/lib\libc.a(lib_a-memcpy.o)
 .bss           0x00837964        0x0 c:/software/altera/10.1/nios2eds/bin/gnu/h-i686-mingw32/bin/../lib/gcc/nios2-elf/4.1.2/../../../../nios2-elf/lib\libc.a(lib_a-memmove.o)
 .bss           0x00837964        0x0 c:/software/altera/10.1/nios2eds/bin/gnu/h-i686-mingw32/bin/../lib/gcc/nios2-elf/4.1.2/../../../../nios2-elf/lib\libc.a(lib_a-memset.o)
 .bss           0x00837964        0x0 c:/software/altera/10.1/nios2eds/bin/gnu/h-i686-mingw32/bin/../lib/gcc/nios2-elf/4.1.2/../../../../nios2-elf/lib\libc.a(lib_a-mprec.o)
 .bss           0x00837964        0x0 c:/software/altera/10.1/nios2eds/bin/gnu/h-i686-mingw32/bin/../lib/gcc/nios2-elf/4.1.2/../../../../nios2-elf/lib\libc.a(lib_a-putc.o)
 .bss           0x00837964        0x0 c:/software/altera/10.1/nios2eds/bin/gnu/h-i686-mingw32/bin/../lib/gcc/nios2-elf/4.1.2/../../../../nios2-elf/lib\libc.a(lib_a-reallocr.o)
 .bss           0x00837964        0x0 c:/software/altera/10.1/nios2eds/bin/gnu/h-i686-mingw32/bin/../lib/gcc/nios2-elf/4.1.2/../../../../nios2-elf/lib\libc.a(lib_a-s_isinfd.o)
 .bss           0x00837964        0x0 c:/software/altera/10.1/nios2eds/bin/gnu/h-i686-mingw32/bin/../lib/gcc/nios2-elf/4.1.2/../../../../nios2-elf/lib\libc.a(lib_a-s_isnand.o)
 .bss           0x00837964        0x0 c:/software/altera/10.1/nios2eds/bin/gnu/h-i686-mingw32/bin/../lib/gcc/nios2-elf/4.1.2/../../../../nios2-elf/lib\libc.a(lib_a-stdio.o)
 .bss           0x00837964        0x0 c:/software/altera/10.1/nios2eds/bin/gnu/h-i686-mingw32/bin/../lib/gcc/nios2-elf/4.1.2/../../../../nios2-elf/lib\libc.a(lib_a-strcmp.o)
 .bss           0x00837964        0x0 c:/software/altera/10.1/nios2eds/bin/gnu/h-i686-mingw32/bin/../lib/gcc/nios2-elf/4.1.2/../../../../nios2-elf/lib\libc.a(lib_a-wbuf.o)
 .bss           0x00837964        0x0 c:/software/altera/10.1/nios2eds/bin/gnu/h-i686-mingw32/bin/../lib/gcc/nios2-elf/4.1.2/../../../../nios2-elf/lib\libc.a(lib_a-writer.o)
 .bss           0x00837964        0x0 c:/software/altera/10.1/nios2eds/bin/gnu/h-i686-mingw32/bin/../lib/gcc/nios2-elf/4.1.2/../../../../nios2-elf/lib\libc.a(lib_a-callocr.o)
 .bss           0x00837964        0x0 c:/software/altera/10.1/nios2eds/bin/gnu/h-i686-mingw32/bin/../lib/gcc/nios2-elf/4.1.2/../../../../nios2-elf/lib\libc.a(lib_a-closer.o)
 .bss           0x00837964        0x0 c:/software/altera/10.1/nios2eds/bin/gnu/h-i686-mingw32/bin/../lib/gcc/nios2-elf/4.1.2/../../../../nios2-elf/lib\libc.a(lib_a-fclose.o)
 .bss           0x00837964        0x0 c:/software/altera/10.1/nios2eds/bin/gnu/h-i686-mingw32/bin/../lib/gcc/nios2-elf/4.1.2/../../../../nios2-elf/lib\libc.a(lib_a-fstatr.o)
 .bss           0x00837964        0x0 c:/software/altera/10.1/nios2eds/bin/gnu/h-i686-mingw32/bin/../lib/gcc/nios2-elf/4.1.2/../../../../nios2-elf/lib\libc.a(lib_a-isattyr.o)
 .bss           0x00837964        0x0 c:/software/altera/10.1/nios2eds/bin/gnu/h-i686-mingw32/bin/../lib/gcc/nios2-elf/4.1.2/../../../../nios2-elf/lib\libc.a(lib_a-lseekr.o)
 .bss           0x00837964        0x0 c:/software/altera/10.1/nios2eds/bin/gnu/h-i686-mingw32/bin/../lib/gcc/nios2-elf/4.1.2/../../../../nios2-elf/lib\libc.a(lib_a-readr.o)
 .bss           0x00837964        0x0 c:/software/altera/10.1/nios2eds/bin/gnu/h-i686-mingw32/bin/../lib/gcc/nios2-elf/4.1.2\libgcc.a(_udivdi3.o)
 .bss           0x00837964        0x0 c:/software/altera/10.1/nios2eds/bin/gnu/h-i686-mingw32/bin/../lib/gcc/nios2-elf/4.1.2\libgcc.a(_umoddi3.o)
 .bss           0x00837964        0x0 c:/software/altera/10.1/nios2eds/bin/gnu/h-i686-mingw32/bin/../lib/gcc/nios2-elf/4.1.2\libgcc.a(_div_df.o)
 .bss           0x00837964        0x0 c:/software/altera/10.1/nios2eds/bin/gnu/h-i686-mingw32/bin/../lib/gcc/nios2-elf/4.1.2\libgcc.a(_eq_df.o)
 .bss           0x00837964        0x0 c:/software/altera/10.1/nios2eds/bin/gnu/h-i686-mingw32/bin/../lib/gcc/nios2-elf/4.1.2\libgcc.a(_ne_df.o)
 .bss           0x00837964        0x0 c:/software/altera/10.1/nios2eds/bin/gnu/h-i686-mingw32/bin/../lib/gcc/nios2-elf/4.1.2\libgcc.a(_ge_df.o)
 .bss           0x00837964        0x0 c:/software/altera/10.1/nios2eds/bin/gnu/h-i686-mingw32/bin/../lib/gcc/nios2-elf/4.1.2\libgcc.a(_lt_df.o)
 .bss           0x00837964        0x0 c:/software/altera/10.1/nios2eds/bin/gnu/h-i686-mingw32/bin/../lib/gcc/nios2-elf/4.1.2\libgcc.a(_si_to_df.o)
 .bss           0x00837964        0x0 ../multi_test_1_bsp\libhal_bsp.a(alt_close.o)
 .bss           0x00837964        0x0 ../multi_test_1_bsp\libhal_bsp.a(alt_dcache_flush_all.o)
 .bss           0x00837964        0x0 ../multi_test_1_bsp\libhal_bsp.a(alt_dev.o)
 .bss           0x00837964        0x0 ../multi_test_1_bsp\libhal_bsp.a(alt_errno.o)
 .bss           0x00837964        0x0 ../multi_test_1_bsp\libhal_bsp.a(alt_exit.o)
 .bss           0x00837964        0x0 ../multi_test_1_bsp\libhal_bsp.a(alt_fstat.o)
 .bss           0x00837964        0x0 ../multi_test_1_bsp\libhal_bsp.a(alt_irq_register.o)
 .bss           0x00837964        0x0 ../multi_test_1_bsp\libhal_bsp.a(alt_irq_vars.o)
 .bss           0x00837964        0x0 ../multi_test_1_bsp\libhal_bsp.a(alt_isatty.o)
 .bss           0x00837964        0x0 ../multi_test_1_bsp\libhal_bsp.a(alt_load.o)
 .bss           0x00837964        0x0 ../multi_test_1_bsp\libhal_bsp.a(alt_lseek.o)
 .bss           0x00837964        0x0 ../multi_test_1_bsp\libhal_bsp.a(alt_main.o)
 .bss           0x00837964        0x0 ../multi_test_1_bsp\libhal_bsp.a(alt_malloc_lock.o)
 .bss           0x00837964        0x0 ../multi_test_1_bsp\libhal_bsp.a(alt_read.o)
 .bss           0x00837964        0x0 ../multi_test_1_bsp\libhal_bsp.a(alt_release_fd.o)
 .bss           0x00837964        0x0 ../multi_test_1_bsp\libhal_bsp.a(alt_sbrk.o)
 .bss           0x00837964        0x0 ../multi_test_1_bsp\libhal_bsp.a(alt_write.o)
 .bss           0x00837964        0x0 ../multi_test_1_bsp\libhal_bsp.a(alt_sys_init.o)
 .bss           0x00837964        0x0 ../multi_test_1_bsp\libhal_bsp.a(altera_avalon_jtag_uart_fd.o)
 .bss           0x00837964        0x0 ../multi_test_1_bsp\libhal_bsp.a(altera_avalon_jtag_uart_init.o)
 .bss           0x00837964        0x0 ../multi_test_1_bsp\libhal_bsp.a(altera_avalon_jtag_uart_ioctl.o)
 .bss           0x00837964        0x0 ../multi_test_1_bsp\libhal_bsp.a(altera_avalon_jtag_uart_read.o)
 .bss           0x00837964        0x0 ../multi_test_1_bsp\libhal_bsp.a(altera_avalon_jtag_uart_write.o)
 .bss           0x00837964        0x0 ../multi_test_1_bsp\libhal_bsp.a(altera_avalon_mailbox.o)
 .bss           0x00837964        0x0 ../multi_test_1_bsp\libhal_bsp.a(altera_avalon_mutex.o)
 .bss           0x00837964        0x0 ../multi_test_1_bsp\libhal_bsp.a(altera_avalon_timer_sc.o)
 .bss           0x00837964        0x0 ../multi_test_1_bsp\libhal_bsp.a(altera_up_sd_card_avalon_interface.o)
 .bss           0x00837964        0x0 ../multi_test_1_bsp\libhal_bsp.a(alt_alarm_start.o)
 .bss           0x00837964        0x0 ../multi_test_1_bsp\libhal_bsp.a(alt_dev_llist_insert.o)
 .bss           0x00837964        0x0 ../multi_test_1_bsp\libhal_bsp.a(alt_do_ctors.o)
 .bss           0x00837964        0x0 ../multi_test_1_bsp\libhal_bsp.a(alt_do_dtors.o)
 .bss           0x00837964        0x0 ../multi_test_1_bsp\libhal_bsp.a(alt_find_dev.o)
 .bss           0x00837964        0x0 ../multi_test_1_bsp\libhal_bsp.a(alt_icache_flush_all.o)
 .bss           0x00837964        0x0 ../multi_test_1_bsp\libhal_bsp.a(alt_iic.o)
 .bss           0x00837964        0x0 ../multi_test_1_bsp\libhal_bsp.a(alt_iic_isr_register.o)
 .bss           0x00837964        0x0 ../multi_test_1_bsp\libhal_bsp.a(alt_io_redirect.o)
 .bss           0x00837964        0x0 ../multi_test_1_bsp\libhal_bsp.a(alt_irq_entry.o)
 .bss           0x00837964        0x0 ../multi_test_1_bsp\libhal_bsp.a(alt_irq_handler.o)
 .bss           0x00837964        0x0 ../multi_test_1_bsp\libhal_bsp.a(alt_open.o)
 .bss           0x00837964        0x0 ../multi_test_1_bsp\libhal_bsp.a(alt_tick.o)
 .bss           0x00837964        0x0 ../multi_test_1_bsp\libhal_bsp.a(altera_nios2_irq.o)
 .bss           0x00837964        0x0 ../multi_test_1_bsp\libhal_bsp.a(alt_exception_entry.o)
 .bss           0x00837964        0x0 ../multi_test_1_bsp\libhal_bsp.a(alt_find_file.o)
 .bss           0x00837964        0x0 ../multi_test_1_bsp\libhal_bsp.a(alt_get_fd.o)
 .bss           0x00837964        0x0 ../multi_test_1_bsp\libhal_bsp.a(alt_icache_flush.o)
 .bss           0x00837964        0x0 c:/software/altera/10.1/nios2eds/bin/gnu/h-i686-mingw32/bin/../lib/gcc/nios2-elf/4.1.2/../../../../nios2-elf/lib\libc.a(lib_a-atexit.o)
 .bss           0x00837964        0x0 c:/software/altera/10.1/nios2eds/bin/gnu/h-i686-mingw32/bin/../lib/gcc/nios2-elf/4.1.2/../../../../nios2-elf/lib\libc.a(lib_a-memcmp.o)
 .bss           0x00837964        0x0 c:/software/altera/10.1/nios2eds/bin/gnu/h-i686-mingw32/bin/../lib/gcc/nios2-elf/4.1.2/../../../../nios2-elf/lib\libc.a(lib_a-__atexit.o)
 *(COMMON)
 COMMON         0x00837964      0x568 ../multi_test_1_bsp\libhal_bsp.a(altera_up_sd_card_avalon_interface.o)
                0x00837964                search_data
                0x00837978                boot_sector_data
                0x008379cc                active_files
 COMMON         0x00837ecc      0x100 ../multi_test_1_bsp\libhal_bsp.a(alt_irq_handler.o)
                0x00837ecc                alt_irq
 COMMON         0x00837fcc      0x190 c:/software/altera/10.1/nios2eds/bin/gnu/h-i686-mingw32/bin/../lib/gcc/nios2-elf/4.1.2/../../../../nios2-elf/lib\libc.a(lib_a-atexit.o)
                0x00837fcc                _atexit0
                0x0083815c                . = ALIGN (0x4)
                0x0083815c                __bss_end = ABSOLUTE (.)

.sdram_0        0x0083815c        0x0
                0x0083815c                PROVIDE (_alt_partition_sdram_0_start, ABSOLUTE (.))
 *(.sdram_0. sdram_0.*)
                0x0083815c                . = ALIGN (0x4)
                0x0083815c                PROVIDE (_alt_partition_sdram_0_end, ABSOLUTE (.))
                0x0083815c                _end = ABSOLUTE (.)
                0x0083815c                end = ABSOLUTE (.)
                0x0083815c                __alt_stack_base = ABSOLUTE (.)
                0x0083815c                PROVIDE (_alt_partition_sdram_0_load_addr, LOADADDR (.sdram_0))

.stab
 *(.stab)

.stabstr
 *(.stabstr)

.stab.excl
 *(.stab.excl)

.stab.exclstr
 *(.stab.exclstr)

.stab.index
 *(.stab.index)

.stab.indexstr
 *(.stab.indexstr)

.comment        0x00000000       0x23
 *(.comment)
 .comment       0x00000000       0x23 obj/common/tables.o
                                 0x24 (size before relaxing)
 .comment       0x00000000       0x24 obj/common/util.o
 .comment       0x00000000       0x24 obj/decoder/idct.o
 .comment       0x00000000       0x24 obj/decoder/lossless_decode.o
 .comment       0x00000000       0x24 obj/decoder/mjpeg423_decoder.o
 .comment       0x00000000       0x24 obj/decoder/ycbcr_to_rgb.o
 .comment       0x00000000       0x24 obj/hello_world.o
 .comment       0x00000000       0x24 obj/sd_card.o
 .comment       0x00000000       0x24 c:/software/altera/10.1/nios2eds/bin/gnu/h-i686-mingw32/bin/../lib/gcc/nios2-elf/4.1.2/../../../../nios2-elf/lib\libm.a(lib_a-s_ceil.o)
 .comment       0x00000000       0x24 c:/software/altera/10.1/nios2eds/bin/gnu/h-i686-mingw32/bin/../lib/gcc/nios2-elf/4.1.2\libgcc.a(_addsub_df.o)
 .comment       0x00000000       0x24 c:/software/altera/10.1/nios2eds/bin/gnu/h-i686-mingw32/bin/../lib/gcc/nios2-elf/4.1.2\libgcc.a(_mul_df.o)
 .comment       0x00000000       0x24 c:/software/altera/10.1/nios2eds/bin/gnu/h-i686-mingw32/bin/../lib/gcc/nios2-elf/4.1.2\libgcc.a(_gt_df.o)
 .comment       0x00000000       0x24 c:/software/altera/10.1/nios2eds/bin/gnu/h-i686-mingw32/bin/../lib/gcc/nios2-elf/4.1.2\libgcc.a(_df_to_si.o)
 .comment       0x00000000       0x24 c:/software/altera/10.1/nios2eds/bin/gnu/h-i686-mingw32/bin/../lib/gcc/nios2-elf/4.1.2\libgcc.a(_thenan_df.o)
 .comment       0x00000000       0x24 c:/software/altera/10.1/nios2eds/bin/gnu/h-i686-mingw32/bin/../lib/gcc/nios2-elf/4.1.2\libgcc.a(_usi_to_df.o)
 .comment       0x00000000       0x24 c:/software/altera/10.1/nios2eds/bin/gnu/h-i686-mingw32/bin/../lib/gcc/nios2-elf/4.1.2\libgcc.a(lib2-divmod.o)
 .comment       0x00000000       0x24 c:/software/altera/10.1/nios2eds/bin/gnu/h-i686-mingw32/bin/../lib/gcc/nios2-elf/4.1.2\libgcc.a(lib2-divtable.o)
 .comment       0x00000000       0x24 c:/software/altera/10.1/nios2eds/bin/gnu/h-i686-mingw32/bin/../lib/gcc/nios2-elf/4.1.2\libgcc.a(_muldi3.o)
 .comment       0x00000000       0x24 c:/software/altera/10.1/nios2eds/bin/gnu/h-i686-mingw32/bin/../lib/gcc/nios2-elf/4.1.2\libgcc.a(_clzsi2.o)
 .comment       0x00000000       0x24 c:/software/altera/10.1/nios2eds/bin/gnu/h-i686-mingw32/bin/../lib/gcc/nios2-elf/4.1.2\libgcc.a(_pack_df.o)
 .comment       0x00000000       0x24 c:/software/altera/10.1/nios2eds/bin/gnu/h-i686-mingw32/bin/../lib/gcc/nios2-elf/4.1.2\libgcc.a(_unpack_df.o)
 .comment       0x00000000       0x24 c:/software/altera/10.1/nios2eds/bin/gnu/h-i686-mingw32/bin/../lib/gcc/nios2-elf/4.1.2\libgcc.a(_fpcmp_parts_df.o)
 .comment       0x00000000       0x24 c:/software/altera/10.1/nios2eds/bin/gnu/h-i686-mingw32/bin/../lib/gcc/nios2-elf/4.1.2\libgcc.a(_clz.o)
 .comment       0x00000000       0x24 c:/software/altera/10.1/nios2eds/bin/gnu/h-i686-mingw32/bin/../lib/gcc/nios2-elf/4.1.2/../../../../nios2-elf/lib\libc.a(lib_a-exit.o)
 .comment       0x00000000       0x24 c:/software/altera/10.1/nios2eds/bin/gnu/h-i686-mingw32/bin/../lib/gcc/nios2-elf/4.1.2/../../../../nios2-elf/lib\libc.a(lib_a-impure.o)
 .comment       0x00000000       0x24 c:/software/altera/10.1/nios2eds/bin/gnu/h-i686-mingw32/bin/../lib/gcc/nios2-elf/4.1.2/../../../../nios2-elf/lib\libc.a(lib_a-int_errno.o)
 .comment       0x00000000       0x24 c:/software/altera/10.1/nios2eds/bin/gnu/h-i686-mingw32/bin/../lib/gcc/nios2-elf/4.1.2/../../../../nios2-elf/lib\libc.a(lib_a-malloc.o)
 .comment       0x00000000       0x24 c:/software/altera/10.1/nios2eds/bin/gnu/h-i686-mingw32/bin/../lib/gcc/nios2-elf/4.1.2/../../../../nios2-elf/lib\libc.a(lib_a-mallocr.o)
 .comment       0x00000000       0x24 c:/software/altera/10.1/nios2eds/bin/gnu/h-i686-mingw32/bin/../lib/gcc/nios2-elf/4.1.2/../../../../nios2-elf/lib\libc.a(lib_a-printf.o)
 .comment       0x00000000       0x24 c:/software/altera/10.1/nios2eds/bin/gnu/h-i686-mingw32/bin/../lib/gcc/nios2-elf/4.1.2/../../../../nios2-elf/lib\libc.a(lib_a-putchar.o)
 .comment       0x00000000       0x24 c:/software/altera/10.1/nios2eds/bin/gnu/h-i686-mingw32/bin/../lib/gcc/nios2-elf/4.1.2/../../../../nios2-elf/lib\libc.a(lib_a-puts.o)
 .comment       0x00000000       0x24 c:/software/altera/10.1/nios2eds/bin/gnu/h-i686-mingw32/bin/../lib/gcc/nios2-elf/4.1.2/../../../../nios2-elf/lib\libc.a(lib_a-sbrkr.o)
 .comment       0x00000000       0x24 c:/software/altera/10.1/nios2eds/bin/gnu/h-i686-mingw32/bin/../lib/gcc/nios2-elf/4.1.2/../../../../nios2-elf/lib\libc.a(lib_a-strlen.o)
 .comment       0x00000000       0x24 c:/software/altera/10.1/nios2eds/bin/gnu/h-i686-mingw32/bin/../lib/gcc/nios2-elf/4.1.2/../../../../nios2-elf/lib\libc.a(lib_a-vfprintf.o)
 .comment       0x00000000       0x24 c:/software/altera/10.1/nios2eds/bin/gnu/h-i686-mingw32/bin/../lib/gcc/nios2-elf/4.1.2/../../../../nios2-elf/lib\libc.a(lib_a-wsetup.o)
 .comment       0x00000000       0x24 c:/software/altera/10.1/nios2eds/bin/gnu/h-i686-mingw32/bin/../lib/gcc/nios2-elf/4.1.2/../../../../nios2-elf/lib\libc.a(lib_a-__call_atexit.o)
 .comment       0x00000000       0x24 c:/software/altera/10.1/nios2eds/bin/gnu/h-i686-mingw32/bin/../lib/gcc/nios2-elf/4.1.2/../../../../nios2-elf/lib\libc.a(lib_a-dtoa.o)
 .comment       0x00000000       0x24 c:/software/altera/10.1/nios2eds/bin/gnu/h-i686-mingw32/bin/../lib/gcc/nios2-elf/4.1.2/../../../../nios2-elf/lib\libc.a(lib_a-fflush.o)
 .comment       0x00000000       0x24 c:/software/altera/10.1/nios2eds/bin/gnu/h-i686-mingw32/bin/../lib/gcc/nios2-elf/4.1.2/../../../../nios2-elf/lib\libc.a(lib_a-findfp.o)
 .comment       0x00000000       0x24 c:/software/altera/10.1/nios2eds/bin/gnu/h-i686-mingw32/bin/../lib/gcc/nios2-elf/4.1.2/../../../../nios2-elf/lib\libc.a(lib_a-freer.o)
 .comment       0x00000000       0x24 c:/software/altera/10.1/nios2eds/bin/gnu/h-i686-mingw32/bin/../lib/gcc/nios2-elf/4.1.2/../../../../nios2-elf/lib\libc.a(lib_a-fvwrite.o)
 .comment       0x00000000       0x24 c:/software/altera/10.1/nios2eds/bin/gnu/h-i686-mingw32/bin/../lib/gcc/nios2-elf/4.1.2/../../../../nios2-elf/lib\libc.a(lib_a-fwalk.o)
 .comment       0x00000000       0x24 c:/software/altera/10.1/nios2eds/bin/gnu/h-i686-mingw32/bin/../lib/gcc/nios2-elf/4.1.2/../../../../nios2-elf/lib\libc.a(lib_a-locale.o)
 .comment       0x00000000       0x24 c:/software/altera/10.1/nios2eds/bin/gnu/h-i686-mingw32/bin/../lib/gcc/nios2-elf/4.1.2/../../../../nios2-elf/lib\libc.a(lib_a-makebuf.o)
 .comment       0x00000000       0x24 c:/software/altera/10.1/nios2eds/bin/gnu/h-i686-mingw32/bin/../lib/gcc/nios2-elf/4.1.2/../../../../nios2-elf/lib\libc.a(lib_a-memchr.o)
 .comment       0x00000000       0x24 c:/software/altera/10.1/nios2eds/bin/gnu/h-i686-mingw32/bin/../lib/gcc/nios2-elf/4.1.2/../../../../nios2-elf/lib\libc.a(lib_a-memcpy.o)
 .comment       0x00000000       0x24 c:/software/altera/10.1/nios2eds/bin/gnu/h-i686-mingw32/bin/../lib/gcc/nios2-elf/4.1.2/../../../../nios2-elf/lib\libc.a(lib_a-memmove.o)
 .comment       0x00000000       0x24 c:/software/altera/10.1/nios2eds/bin/gnu/h-i686-mingw32/bin/../lib/gcc/nios2-elf/4.1.2/../../../../nios2-elf/lib\libc.a(lib_a-memset.o)
 .comment       0x00000000       0x24 c:/software/altera/10.1/nios2eds/bin/gnu/h-i686-mingw32/bin/../lib/gcc/nios2-elf/4.1.2/../../../../nios2-elf/lib\libc.a(lib_a-mprec.o)
 .comment       0x00000000       0x24 c:/software/altera/10.1/nios2eds/bin/gnu/h-i686-mingw32/bin/../lib/gcc/nios2-elf/4.1.2/../../../../nios2-elf/lib\libc.a(lib_a-putc.o)
 .comment       0x00000000       0x24 c:/software/altera/10.1/nios2eds/bin/gnu/h-i686-mingw32/bin/../lib/gcc/nios2-elf/4.1.2/../../../../nios2-elf/lib\libc.a(lib_a-reallocr.o)
 .comment       0x00000000       0x24 c:/software/altera/10.1/nios2eds/bin/gnu/h-i686-mingw32/bin/../lib/gcc/nios2-elf/4.1.2/../../../../nios2-elf/lib\libc.a(lib_a-s_isinfd.o)
 .comment       0x00000000       0x24 c:/software/altera/10.1/nios2eds/bin/gnu/h-i686-mingw32/bin/../lib/gcc/nios2-elf/4.1.2/../../../../nios2-elf/lib\libc.a(lib_a-s_isnand.o)
 .comment       0x00000000       0x24 c:/software/altera/10.1/nios2eds/bin/gnu/h-i686-mingw32/bin/../lib/gcc/nios2-elf/4.1.2/../../../../nios2-elf/lib\libc.a(lib_a-stdio.o)
 .comment       0x00000000       0x24 c:/software/altera/10.1/nios2eds/bin/gnu/h-i686-mingw32/bin/../lib/gcc/nios2-elf/4.1.2/../../../../nios2-elf/lib\libc.a(lib_a-strcmp.o)
 .comment       0x00000000       0x24 c:/software/altera/10.1/nios2eds/bin/gnu/h-i686-mingw32/bin/../lib/gcc/nios2-elf/4.1.2/../../../../nios2-elf/lib\libc.a(lib_a-wbuf.o)
 .comment       0x00000000       0x24 c:/software/altera/10.1/nios2eds/bin/gnu/h-i686-mingw32/bin/../lib/gcc/nios2-elf/4.1.2/../../../../nios2-elf/lib\libc.a(lib_a-writer.o)
 .comment       0x00000000       0x24 c:/software/altera/10.1/nios2eds/bin/gnu/h-i686-mingw32/bin/../lib/gcc/nios2-elf/4.1.2/../../../../nios2-elf/lib\libc.a(lib_a-callocr.o)
 .comment       0x00000000       0x24 c:/software/altera/10.1/nios2eds/bin/gnu/h-i686-mingw32/bin/../lib/gcc/nios2-elf/4.1.2/../../../../nios2-elf/lib\libc.a(lib_a-closer.o)
 .comment       0x00000000       0x24 c:/software/altera/10.1/nios2eds/bin/gnu/h-i686-mingw32/bin/../lib/gcc/nios2-elf/4.1.2/../../../../nios2-elf/lib\libc.a(lib_a-fclose.o)
 .comment       0x00000000       0x24 c:/software/altera/10.1/nios2eds/bin/gnu/h-i686-mingw32/bin/../lib/gcc/nios2-elf/4.1.2/../../../../nios2-elf/lib\libc.a(lib_a-fstatr.o)
 .comment       0x00000000       0x24 c:/software/altera/10.1/nios2eds/bin/gnu/h-i686-mingw32/bin/../lib/gcc/nios2-elf/4.1.2/../../../../nios2-elf/lib\libc.a(lib_a-isattyr.o)
 .comment       0x00000000       0x24 c:/software/altera/10.1/nios2eds/bin/gnu/h-i686-mingw32/bin/../lib/gcc/nios2-elf/4.1.2/../../../../nios2-elf/lib\libc.a(lib_a-lseekr.o)
 .comment       0x00000000       0x24 c:/software/altera/10.1/nios2eds/bin/gnu/h-i686-mingw32/bin/../lib/gcc/nios2-elf/4.1.2/../../../../nios2-elf/lib\libc.a(lib_a-readr.o)
 .comment       0x00000000       0x24 c:/software/altera/10.1/nios2eds/bin/gnu/h-i686-mingw32/bin/../lib/gcc/nios2-elf/4.1.2\libgcc.a(_udivdi3.o)
 .comment       0x00000000       0x24 c:/software/altera/10.1/nios2eds/bin/gnu/h-i686-mingw32/bin/../lib/gcc/nios2-elf/4.1.2\libgcc.a(_umoddi3.o)
 .comment       0x00000000       0x24 c:/software/altera/10.1/nios2eds/bin/gnu/h-i686-mingw32/bin/../lib/gcc/nios2-elf/4.1.2\libgcc.a(_div_df.o)
 .comment       0x00000000       0x24 c:/software/altera/10.1/nios2eds/bin/gnu/h-i686-mingw32/bin/../lib/gcc/nios2-elf/4.1.2\libgcc.a(_eq_df.o)
 .comment       0x00000000       0x24 c:/software/altera/10.1/nios2eds/bin/gnu/h-i686-mingw32/bin/../lib/gcc/nios2-elf/4.1.2\libgcc.a(_ne_df.o)
 .comment       0x00000000       0x24 c:/software/altera/10.1/nios2eds/bin/gnu/h-i686-mingw32/bin/../lib/gcc/nios2-elf/4.1.2\libgcc.a(_ge_df.o)
 .comment       0x00000000       0x24 c:/software/altera/10.1/nios2eds/bin/gnu/h-i686-mingw32/bin/../lib/gcc/nios2-elf/4.1.2\libgcc.a(_lt_df.o)
 .comment       0x00000000       0x24 c:/software/altera/10.1/nios2eds/bin/gnu/h-i686-mingw32/bin/../lib/gcc/nios2-elf/4.1.2\libgcc.a(_si_to_df.o)
 .comment       0x00000000       0x24 ../multi_test_1_bsp\libhal_bsp.a(alt_close.o)
 .comment       0x00000000       0x24 ../multi_test_1_bsp\libhal_bsp.a(alt_dcache_flush_all.o)
 .comment       0x00000000       0x24 ../multi_test_1_bsp\libhal_bsp.a(alt_dev.o)
 .comment       0x00000000       0x24 ../multi_test_1_bsp\libhal_bsp.a(alt_errno.o)
 .comment       0x00000000       0x24 ../multi_test_1_bsp\libhal_bsp.a(alt_exit.o)
 .comment       0x00000000       0x24 ../multi_test_1_bsp\libhal_bsp.a(alt_fstat.o)
 .comment       0x00000000       0x24 ../multi_test_1_bsp\libhal_bsp.a(alt_irq_register.o)
 .comment       0x00000000       0x24 ../multi_test_1_bsp\libhal_bsp.a(alt_irq_vars.o)
 .comment       0x00000000       0x24 ../multi_test_1_bsp\libhal_bsp.a(alt_isatty.o)
 .comment       0x00000000       0x24 ../multi_test_1_bsp\libhal_bsp.a(alt_load.o)
 .comment       0x00000000       0x24 ../multi_test_1_bsp\libhal_bsp.a(alt_lseek.o)
 .comment       0x00000000       0x24 ../multi_test_1_bsp\libhal_bsp.a(alt_main.o)
 .comment       0x00000000       0x24 ../multi_test_1_bsp\libhal_bsp.a(alt_malloc_lock.o)
 .comment       0x00000000       0x24 ../multi_test_1_bsp\libhal_bsp.a(alt_read.o)
 .comment       0x00000000       0x24 ../multi_test_1_bsp\libhal_bsp.a(alt_release_fd.o)
 .comment       0x00000000       0x24 ../multi_test_1_bsp\libhal_bsp.a(alt_sbrk.o)
 .comment       0x00000000       0x24 ../multi_test_1_bsp\libhal_bsp.a(alt_write.o)
 .comment       0x00000000       0x24 ../multi_test_1_bsp\libhal_bsp.a(alt_sys_init.o)
 .comment       0x00000000       0x24 ../multi_test_1_bsp\libhal_bsp.a(altera_avalon_jtag_uart_fd.o)
 .comment       0x00000000       0x24 ../multi_test_1_bsp\libhal_bsp.a(altera_avalon_jtag_uart_init.o)
 .comment       0x00000000       0x24 ../multi_test_1_bsp\libhal_bsp.a(altera_avalon_jtag_uart_ioctl.o)
 .comment       0x00000000       0x24 ../multi_test_1_bsp\libhal_bsp.a(altera_avalon_jtag_uart_read.o)
 .comment       0x00000000       0x24 ../multi_test_1_bsp\libhal_bsp.a(altera_avalon_jtag_uart_write.o)
 .comment       0x00000000       0x24 ../multi_test_1_bsp\libhal_bsp.a(altera_avalon_mailbox.o)
 .comment       0x00000000       0x24 ../multi_test_1_bsp\libhal_bsp.a(altera_avalon_mutex.o)
 .comment       0x00000000       0x24 ../multi_test_1_bsp\libhal_bsp.a(altera_avalon_timer_sc.o)
 .comment       0x00000000       0x24 ../multi_test_1_bsp\libhal_bsp.a(altera_up_sd_card_avalon_interface.o)
 .comment       0x00000000       0x24 ../multi_test_1_bsp\libhal_bsp.a(alt_alarm_start.o)
 .comment       0x00000000       0x24 ../multi_test_1_bsp\libhal_bsp.a(alt_dev_llist_insert.o)
 .comment       0x00000000       0x24 ../multi_test_1_bsp\libhal_bsp.a(alt_do_ctors.o)
 .comment       0x00000000       0x24 ../multi_test_1_bsp\libhal_bsp.a(alt_do_dtors.o)
 .comment       0x00000000       0x24 ../multi_test_1_bsp\libhal_bsp.a(alt_find_dev.o)
 .comment       0x00000000       0x24 ../multi_test_1_bsp\libhal_bsp.a(alt_icache_flush_all.o)
 .comment       0x00000000       0x24 ../multi_test_1_bsp\libhal_bsp.a(alt_iic.o)
 .comment       0x00000000       0x24 ../multi_test_1_bsp\libhal_bsp.a(alt_iic_isr_register.o)
 .comment       0x00000000       0x24 ../multi_test_1_bsp\libhal_bsp.a(alt_io_redirect.o)
 .comment       0x00000000       0x24 ../multi_test_1_bsp\libhal_bsp.a(alt_irq_handler.o)
 .comment       0x00000000       0x24 ../multi_test_1_bsp\libhal_bsp.a(alt_open.o)
 .comment       0x00000000       0x24 ../multi_test_1_bsp\libhal_bsp.a(alt_tick.o)
 .comment       0x00000000       0x24 ../multi_test_1_bsp\libhal_bsp.a(altera_nios2_irq.o)
 .comment       0x00000000       0x24 ../multi_test_1_bsp\libhal_bsp.a(alt_find_file.o)
 .comment       0x00000000       0x24 ../multi_test_1_bsp\libhal_bsp.a(alt_get_fd.o)
 .comment       0x00000000       0x24 ../multi_test_1_bsp\libhal_bsp.a(alt_icache_flush.o)
 .comment       0x00000000       0x24 c:/software/altera/10.1/nios2eds/bin/gnu/h-i686-mingw32/bin/../lib/gcc/nios2-elf/4.1.2/../../../../nios2-elf/lib\libc.a(lib_a-atexit.o)
 .comment       0x00000000       0x24 c:/software/altera/10.1/nios2eds/bin/gnu/h-i686-mingw32/bin/../lib/gcc/nios2-elf/4.1.2/../../../../nios2-elf/lib\libc.a(lib_a-memcmp.o)
 .comment       0x00000000       0x24 c:/software/altera/10.1/nios2eds/bin/gnu/h-i686-mingw32/bin/../lib/gcc/nios2-elf/4.1.2/../../../../nios2-elf/lib\libc.a(lib_a-__atexit.o)

.debug
 *(.debug)

.line
 *(.line)

.debug_srcinfo
 *(.debug_srcinfo)

.debug_sfnames
 *(.debug_sfnames)

.debug_aranges  0x00000000      0xe58
 *(.debug_aranges)
 .debug_aranges
                0x00000000       0x28 ../multi_test_1_bsp/obj/HAL/src/crt0.o
 .debug_aranges
                0x00000028       0x20 obj/common/util.o
 .debug_aranges
                0x00000048       0x20 obj/decoder/idct.o
 .debug_aranges
                0x00000068       0x20 obj/decoder/lossless_decode.o
 .debug_aranges
                0x00000088       0x20 obj/decoder/mjpeg423_decoder.o
 .debug_aranges
                0x000000a8       0x20 obj/decoder/ycbcr_to_rgb.o
 .debug_aranges
                0x000000c8       0x20 obj/hello_world.o
 .debug_aranges
                0x000000e8       0x20 obj/sd_card.o
 .debug_aranges
                0x00000108       0x20 c:/software/altera/10.1/nios2eds/bin/gnu/h-i686-mingw32/bin/../lib/gcc/nios2-elf/4.1.2/../../../../nios2-elf/lib\libm.a(lib_a-s_ceil.o)
 .debug_aranges
                0x00000128       0x20 c:/software/altera/10.1/nios2eds/bin/gnu/h-i686-mingw32/bin/../lib/gcc/nios2-elf/4.1.2\libgcc.a(_addsub_df.o)
 .debug_aranges
                0x00000148       0x20 c:/software/altera/10.1/nios2eds/bin/gnu/h-i686-mingw32/bin/../lib/gcc/nios2-elf/4.1.2\libgcc.a(_mul_df.o)
 .debug_aranges
                0x00000168       0x20 c:/software/altera/10.1/nios2eds/bin/gnu/h-i686-mingw32/bin/../lib/gcc/nios2-elf/4.1.2\libgcc.a(_gt_df.o)
 .debug_aranges
                0x00000188       0x20 c:/software/altera/10.1/nios2eds/bin/gnu/h-i686-mingw32/bin/../lib/gcc/nios2-elf/4.1.2\libgcc.a(_df_to_si.o)
 .debug_aranges
                0x000001a8       0x20 c:/software/altera/10.1/nios2eds/bin/gnu/h-i686-mingw32/bin/../lib/gcc/nios2-elf/4.1.2\libgcc.a(_usi_to_df.o)
 .debug_aranges
                0x000001c8       0x20 c:/software/altera/10.1/nios2eds/bin/gnu/h-i686-mingw32/bin/../lib/gcc/nios2-elf/4.1.2\libgcc.a(lib2-divmod.o)
 .debug_aranges
                0x000001e8       0x20 c:/software/altera/10.1/nios2eds/bin/gnu/h-i686-mingw32/bin/../lib/gcc/nios2-elf/4.1.2\libgcc.a(_muldi3.o)
 .debug_aranges
                0x00000208       0x20 c:/software/altera/10.1/nios2eds/bin/gnu/h-i686-mingw32/bin/../lib/gcc/nios2-elf/4.1.2\libgcc.a(_clzsi2.o)
 .debug_aranges
                0x00000228       0x20 c:/software/altera/10.1/nios2eds/bin/gnu/h-i686-mingw32/bin/../lib/gcc/nios2-elf/4.1.2\libgcc.a(_pack_df.o)
 .debug_aranges
                0x00000248       0x20 c:/software/altera/10.1/nios2eds/bin/gnu/h-i686-mingw32/bin/../lib/gcc/nios2-elf/4.1.2\libgcc.a(_unpack_df.o)
 .debug_aranges
                0x00000268       0x20 c:/software/altera/10.1/nios2eds/bin/gnu/h-i686-mingw32/bin/../lib/gcc/nios2-elf/4.1.2\libgcc.a(_fpcmp_parts_df.o)
 .debug_aranges
                0x00000288       0x20 c:/software/altera/10.1/nios2eds/bin/gnu/h-i686-mingw32/bin/../lib/gcc/nios2-elf/4.1.2/../../../../nios2-elf/lib\libc.a(lib_a-exit.o)
 .debug_aranges
                0x000002a8       0x20 c:/software/altera/10.1/nios2eds/bin/gnu/h-i686-mingw32/bin/../lib/gcc/nios2-elf/4.1.2/../../../../nios2-elf/lib\libc.a(lib_a-malloc.o)
 .debug_aranges
                0x000002c8       0x20 c:/software/altera/10.1/nios2eds/bin/gnu/h-i686-mingw32/bin/../lib/gcc/nios2-elf/4.1.2/../../../../nios2-elf/lib\libc.a(lib_a-mallocr.o)
 .debug_aranges
                0x000002e8       0x20 c:/software/altera/10.1/nios2eds/bin/gnu/h-i686-mingw32/bin/../lib/gcc/nios2-elf/4.1.2/../../../../nios2-elf/lib\libc.a(lib_a-printf.o)
 .debug_aranges
                0x00000308       0x20 c:/software/altera/10.1/nios2eds/bin/gnu/h-i686-mingw32/bin/../lib/gcc/nios2-elf/4.1.2/../../../../nios2-elf/lib\libc.a(lib_a-putchar.o)
 .debug_aranges
                0x00000328       0x20 c:/software/altera/10.1/nios2eds/bin/gnu/h-i686-mingw32/bin/../lib/gcc/nios2-elf/4.1.2/../../../../nios2-elf/lib\libc.a(lib_a-puts.o)
 .debug_aranges
                0x00000348       0x20 c:/software/altera/10.1/nios2eds/bin/gnu/h-i686-mingw32/bin/../lib/gcc/nios2-elf/4.1.2/../../../../nios2-elf/lib\libc.a(lib_a-sbrkr.o)
 .debug_aranges
                0x00000368       0x20 c:/software/altera/10.1/nios2eds/bin/gnu/h-i686-mingw32/bin/../lib/gcc/nios2-elf/4.1.2/../../../../nios2-elf/lib\libc.a(lib_a-strlen.o)
 .debug_aranges
                0x00000388       0x20 c:/software/altera/10.1/nios2eds/bin/gnu/h-i686-mingw32/bin/../lib/gcc/nios2-elf/4.1.2/../../../../nios2-elf/lib\libc.a(lib_a-vfprintf.o)
 .debug_aranges
                0x000003a8       0x20 c:/software/altera/10.1/nios2eds/bin/gnu/h-i686-mingw32/bin/../lib/gcc/nios2-elf/4.1.2/../../../../nios2-elf/lib\libc.a(lib_a-wsetup.o)
 .debug_aranges
                0x000003c8       0x20 c:/software/altera/10.1/nios2eds/bin/gnu/h-i686-mingw32/bin/../lib/gcc/nios2-elf/4.1.2/../../../../nios2-elf/lib\libc.a(lib_a-__call_atexit.o)
 .debug_aranges
                0x000003e8       0x20 c:/software/altera/10.1/nios2eds/bin/gnu/h-i686-mingw32/bin/../lib/gcc/nios2-elf/4.1.2/../../../../nios2-elf/lib\libc.a(lib_a-dtoa.o)
 .debug_aranges
                0x00000408       0x20 c:/software/altera/10.1/nios2eds/bin/gnu/h-i686-mingw32/bin/../lib/gcc/nios2-elf/4.1.2/../../../../nios2-elf/lib\libc.a(lib_a-fflush.o)
 .debug_aranges
                0x00000428       0x20 c:/software/altera/10.1/nios2eds/bin/gnu/h-i686-mingw32/bin/../lib/gcc/nios2-elf/4.1.2/../../../../nios2-elf/lib\libc.a(lib_a-findfp.o)
 .debug_aranges
                0x00000448       0x20 c:/software/altera/10.1/nios2eds/bin/gnu/h-i686-mingw32/bin/../lib/gcc/nios2-elf/4.1.2/../../../../nios2-elf/lib\libc.a(lib_a-freer.o)
 .debug_aranges
                0x00000468       0x20 c:/software/altera/10.1/nios2eds/bin/gnu/h-i686-mingw32/bin/../lib/gcc/nios2-elf/4.1.2/../../../../nios2-elf/lib\libc.a(lib_a-fvwrite.o)
 .debug_aranges
                0x00000488       0x20 c:/software/altera/10.1/nios2eds/bin/gnu/h-i686-mingw32/bin/../lib/gcc/nios2-elf/4.1.2/../../../../nios2-elf/lib\libc.a(lib_a-fwalk.o)
 .debug_aranges
                0x000004a8       0x20 c:/software/altera/10.1/nios2eds/bin/gnu/h-i686-mingw32/bin/../lib/gcc/nios2-elf/4.1.2/../../../../nios2-elf/lib\libc.a(lib_a-locale.o)
 .debug_aranges
                0x000004c8       0x20 c:/software/altera/10.1/nios2eds/bin/gnu/h-i686-mingw32/bin/../lib/gcc/nios2-elf/4.1.2/../../../../nios2-elf/lib\libc.a(lib_a-makebuf.o)
 .debug_aranges
                0x000004e8       0x20 c:/software/altera/10.1/nios2eds/bin/gnu/h-i686-mingw32/bin/../lib/gcc/nios2-elf/4.1.2/../../../../nios2-elf/lib\libc.a(lib_a-memchr.o)
 .debug_aranges
                0x00000508       0x20 c:/software/altera/10.1/nios2eds/bin/gnu/h-i686-mingw32/bin/../lib/gcc/nios2-elf/4.1.2/../../../../nios2-elf/lib\libc.a(lib_a-memcpy.o)
 .debug_aranges
                0x00000528       0x20 c:/software/altera/10.1/nios2eds/bin/gnu/h-i686-mingw32/bin/../lib/gcc/nios2-elf/4.1.2/../../../../nios2-elf/lib\libc.a(lib_a-memmove.o)
 .debug_aranges
                0x00000548       0x20 c:/software/altera/10.1/nios2eds/bin/gnu/h-i686-mingw32/bin/../lib/gcc/nios2-elf/4.1.2/../../../../nios2-elf/lib\libc.a(lib_a-memset.o)
 .debug_aranges
                0x00000568       0x20 c:/software/altera/10.1/nios2eds/bin/gnu/h-i686-mingw32/bin/../lib/gcc/nios2-elf/4.1.2/../../../../nios2-elf/lib\libc.a(lib_a-mprec.o)
 .debug_aranges
                0x00000588       0x20 c:/software/altera/10.1/nios2eds/bin/gnu/h-i686-mingw32/bin/../lib/gcc/nios2-elf/4.1.2/../../../../nios2-elf/lib\libc.a(lib_a-putc.o)
 .debug_aranges
                0x000005a8       0x20 c:/software/altera/10.1/nios2eds/bin/gnu/h-i686-mingw32/bin/../lib/gcc/nios2-elf/4.1.2/../../../../nios2-elf/lib\libc.a(lib_a-reallocr.o)
 .debug_aranges
                0x000005c8       0x20 c:/software/altera/10.1/nios2eds/bin/gnu/h-i686-mingw32/bin/../lib/gcc/nios2-elf/4.1.2/../../../../nios2-elf/lib\libc.a(lib_a-s_isinfd.o)
 .debug_aranges
                0x000005e8       0x20 c:/software/altera/10.1/nios2eds/bin/gnu/h-i686-mingw32/bin/../lib/gcc/nios2-elf/4.1.2/../../../../nios2-elf/lib\libc.a(lib_a-s_isnand.o)
 .debug_aranges
                0x00000608       0x20 c:/software/altera/10.1/nios2eds/bin/gnu/h-i686-mingw32/bin/../lib/gcc/nios2-elf/4.1.2/../../../../nios2-elf/lib\libc.a(lib_a-stdio.o)
 .debug_aranges
                0x00000628       0x20 c:/software/altera/10.1/nios2eds/bin/gnu/h-i686-mingw32/bin/../lib/gcc/nios2-elf/4.1.2/../../../../nios2-elf/lib\libc.a(lib_a-strcmp.o)
 .debug_aranges
                0x00000648       0x20 c:/software/altera/10.1/nios2eds/bin/gnu/h-i686-mingw32/bin/../lib/gcc/nios2-elf/4.1.2/../../../../nios2-elf/lib\libc.a(lib_a-wbuf.o)
 .debug_aranges
                0x00000668       0x20 c:/software/altera/10.1/nios2eds/bin/gnu/h-i686-mingw32/bin/../lib/gcc/nios2-elf/4.1.2/../../../../nios2-elf/lib\libc.a(lib_a-writer.o)
 .debug_aranges
                0x00000688       0x20 c:/software/altera/10.1/nios2eds/bin/gnu/h-i686-mingw32/bin/../lib/gcc/nios2-elf/4.1.2/../../../../nios2-elf/lib\libc.a(lib_a-callocr.o)
 .debug_aranges
                0x000006a8       0x20 c:/software/altera/10.1/nios2eds/bin/gnu/h-i686-mingw32/bin/../lib/gcc/nios2-elf/4.1.2/../../../../nios2-elf/lib\libc.a(lib_a-closer.o)
 .debug_aranges
                0x000006c8       0x20 c:/software/altera/10.1/nios2eds/bin/gnu/h-i686-mingw32/bin/../lib/gcc/nios2-elf/4.1.2/../../../../nios2-elf/lib\libc.a(lib_a-fclose.o)
 .debug_aranges
                0x000006e8       0x20 c:/software/altera/10.1/nios2eds/bin/gnu/h-i686-mingw32/bin/../lib/gcc/nios2-elf/4.1.2/../../../../nios2-elf/lib\libc.a(lib_a-fstatr.o)
 .debug_aranges
                0x00000708       0x20 c:/software/altera/10.1/nios2eds/bin/gnu/h-i686-mingw32/bin/../lib/gcc/nios2-elf/4.1.2/../../../../nios2-elf/lib\libc.a(lib_a-isattyr.o)
 .debug_aranges
                0x00000728       0x20 c:/software/altera/10.1/nios2eds/bin/gnu/h-i686-mingw32/bin/../lib/gcc/nios2-elf/4.1.2/../../../../nios2-elf/lib\libc.a(lib_a-lseekr.o)
 .debug_aranges
                0x00000748       0x20 c:/software/altera/10.1/nios2eds/bin/gnu/h-i686-mingw32/bin/../lib/gcc/nios2-elf/4.1.2/../../../../nios2-elf/lib\libc.a(lib_a-readr.o)
 .debug_aranges
                0x00000768       0x20 c:/software/altera/10.1/nios2eds/bin/gnu/h-i686-mingw32/bin/../lib/gcc/nios2-elf/4.1.2\libgcc.a(_udivdi3.o)
 .debug_aranges
                0x00000788       0x20 c:/software/altera/10.1/nios2eds/bin/gnu/h-i686-mingw32/bin/../lib/gcc/nios2-elf/4.1.2\libgcc.a(_umoddi3.o)
 .debug_aranges
                0x000007a8       0x20 c:/software/altera/10.1/nios2eds/bin/gnu/h-i686-mingw32/bin/../lib/gcc/nios2-elf/4.1.2\libgcc.a(_div_df.o)
 .debug_aranges
                0x000007c8       0x20 c:/software/altera/10.1/nios2eds/bin/gnu/h-i686-mingw32/bin/../lib/gcc/nios2-elf/4.1.2\libgcc.a(_eq_df.o)
 .debug_aranges
                0x000007e8       0x20 c:/software/altera/10.1/nios2eds/bin/gnu/h-i686-mingw32/bin/../lib/gcc/nios2-elf/4.1.2\libgcc.a(_ne_df.o)
 .debug_aranges
                0x00000808       0x20 c:/software/altera/10.1/nios2eds/bin/gnu/h-i686-mingw32/bin/../lib/gcc/nios2-elf/4.1.2\libgcc.a(_ge_df.o)
 .debug_aranges
                0x00000828       0x20 c:/software/altera/10.1/nios2eds/bin/gnu/h-i686-mingw32/bin/../lib/gcc/nios2-elf/4.1.2\libgcc.a(_lt_df.o)
 .debug_aranges
                0x00000848       0x20 c:/software/altera/10.1/nios2eds/bin/gnu/h-i686-mingw32/bin/../lib/gcc/nios2-elf/4.1.2\libgcc.a(_si_to_df.o)
 .debug_aranges
                0x00000868       0x20 ../multi_test_1_bsp\libhal_bsp.a(alt_close.o)
 .debug_aranges
                0x00000888       0x20 ../multi_test_1_bsp\libhal_bsp.a(alt_dcache_flush_all.o)
 .debug_aranges
                0x000008a8       0x20 ../multi_test_1_bsp\libhal_bsp.a(alt_dev.o)
 .debug_aranges
                0x000008c8       0x20 ../multi_test_1_bsp\libhal_bsp.a(alt_exit.o)
 .debug_aranges
                0x000008e8       0x20 ../multi_test_1_bsp\libhal_bsp.a(alt_fstat.o)
 .debug_aranges
                0x00000908       0x20 ../multi_test_1_bsp\libhal_bsp.a(alt_irq_register.o)
 .debug_aranges
                0x00000928       0x20 ../multi_test_1_bsp\libhal_bsp.a(alt_isatty.o)
 .debug_aranges
                0x00000948       0x20 ../multi_test_1_bsp\libhal_bsp.a(alt_load.o)
 .debug_aranges
                0x00000968       0x20 ../multi_test_1_bsp\libhal_bsp.a(alt_lseek.o)
 .debug_aranges
                0x00000988       0x20 ../multi_test_1_bsp\libhal_bsp.a(alt_main.o)
 .debug_aranges
                0x000009a8       0x20 ../multi_test_1_bsp\libhal_bsp.a(alt_malloc_lock.o)
 .debug_aranges
                0x000009c8       0x20 ../multi_test_1_bsp\libhal_bsp.a(alt_read.o)
 .debug_aranges
                0x000009e8       0x20 ../multi_test_1_bsp\libhal_bsp.a(alt_release_fd.o)
 .debug_aranges
                0x00000a08       0x20 ../multi_test_1_bsp\libhal_bsp.a(alt_sbrk.o)
 .debug_aranges
                0x00000a28       0x20 ../multi_test_1_bsp\libhal_bsp.a(alt_write.o)
 .debug_aranges
                0x00000a48       0x20 ../multi_test_1_bsp\libhal_bsp.a(alt_sys_init.o)
 .debug_aranges
                0x00000a68       0x20 ../multi_test_1_bsp\libhal_bsp.a(altera_avalon_jtag_uart_fd.o)
 .debug_aranges
                0x00000a88       0x20 ../multi_test_1_bsp\libhal_bsp.a(altera_avalon_jtag_uart_init.o)
 .debug_aranges
                0x00000aa8       0x20 ../multi_test_1_bsp\libhal_bsp.a(altera_avalon_jtag_uart_ioctl.o)
 .debug_aranges
                0x00000ac8       0x20 ../multi_test_1_bsp\libhal_bsp.a(altera_avalon_jtag_uart_read.o)
 .debug_aranges
                0x00000ae8       0x20 ../multi_test_1_bsp\libhal_bsp.a(altera_avalon_jtag_uart_write.o)
 .debug_aranges
                0x00000b08       0x20 ../multi_test_1_bsp\libhal_bsp.a(altera_avalon_mailbox.o)
 .debug_aranges
                0x00000b28       0x20 ../multi_test_1_bsp\libhal_bsp.a(altera_avalon_mutex.o)
 .debug_aranges
                0x00000b48       0x20 ../multi_test_1_bsp\libhal_bsp.a(altera_avalon_timer_sc.o)
 .debug_aranges
                0x00000b68       0x20 ../multi_test_1_bsp\libhal_bsp.a(altera_up_sd_card_avalon_interface.o)
 .debug_aranges
                0x00000b88       0x20 ../multi_test_1_bsp\libhal_bsp.a(alt_alarm_start.o)
 .debug_aranges
                0x00000ba8       0x20 ../multi_test_1_bsp\libhal_bsp.a(alt_dev_llist_insert.o)
 .debug_aranges
                0x00000bc8       0x20 ../multi_test_1_bsp\libhal_bsp.a(alt_do_ctors.o)
 .debug_aranges
                0x00000be8       0x20 ../multi_test_1_bsp\libhal_bsp.a(alt_do_dtors.o)
 .debug_aranges
                0x00000c08       0x20 ../multi_test_1_bsp\libhal_bsp.a(alt_find_dev.o)
 .debug_aranges
                0x00000c28       0x20 ../multi_test_1_bsp\libhal_bsp.a(alt_icache_flush_all.o)
 .debug_aranges
                0x00000c48       0x20 ../multi_test_1_bsp\libhal_bsp.a(alt_iic.o)
 .debug_aranges
                0x00000c68       0x20 ../multi_test_1_bsp\libhal_bsp.a(alt_iic_isr_register.o)
 .debug_aranges
                0x00000c88       0x20 ../multi_test_1_bsp\libhal_bsp.a(alt_io_redirect.o)
 .debug_aranges
                0x00000ca8       0x30 ../multi_test_1_bsp\libhal_bsp.a(alt_irq_entry.o)
 .debug_aranges
                0x00000cd8       0x28 ../multi_test_1_bsp\libhal_bsp.a(alt_irq_handler.o)
 .debug_aranges
                0x00000d00       0x20 ../multi_test_1_bsp\libhal_bsp.a(alt_open.o)
 .debug_aranges
                0x00000d20       0x20 ../multi_test_1_bsp\libhal_bsp.a(alt_tick.o)
 .debug_aranges
                0x00000d40       0x20 ../multi_test_1_bsp\libhal_bsp.a(altera_nios2_irq.o)
 .debug_aranges
                0x00000d60       0x38 ../multi_test_1_bsp\libhal_bsp.a(alt_exception_entry.o)
 .debug_aranges
                0x00000d98       0x20 ../multi_test_1_bsp\libhal_bsp.a(alt_find_file.o)
 .debug_aranges
                0x00000db8       0x20 ../multi_test_1_bsp\libhal_bsp.a(alt_get_fd.o)
 .debug_aranges
                0x00000dd8       0x20 ../multi_test_1_bsp\libhal_bsp.a(alt_icache_flush.o)
 .debug_aranges
                0x00000df8       0x20 c:/software/altera/10.1/nios2eds/bin/gnu/h-i686-mingw32/bin/../lib/gcc/nios2-elf/4.1.2/../../../../nios2-elf/lib\libc.a(lib_a-atexit.o)
 .debug_aranges
                0x00000e18       0x20 c:/software/altera/10.1/nios2eds/bin/gnu/h-i686-mingw32/bin/../lib/gcc/nios2-elf/4.1.2/../../../../nios2-elf/lib\libc.a(lib_a-memcmp.o)
 .debug_aranges
                0x00000e38       0x20 c:/software/altera/10.1/nios2eds/bin/gnu/h-i686-mingw32/bin/../lib/gcc/nios2-elf/4.1.2/../../../../nios2-elf/lib\libc.a(lib_a-__atexit.o)

.debug_pubnames
                0x00000000     0x2036
 *(.debug_pubnames)
 .debug_pubnames
                0x00000000       0x39 obj/common/tables.o
 .debug_pubnames
                0x00000039       0x57 obj/common/util.o
 .debug_pubnames
                0x00000090       0x1b obj/decoder/idct.o
 .debug_pubnames
                0x000000ab       0x52 obj/decoder/lossless_decode.o
 .debug_pubnames
                0x000000fd      0x156 obj/decoder/mjpeg423_decoder.o
 .debug_pubnames
                0x00000253       0x23 obj/decoder/ycbcr_to_rgb.o
 .debug_pubnames
                0x00000276      0x16a obj/hello_world.o
 .debug_pubnames
                0x000003e0       0xfd obj/sd_card.o
 .debug_pubnames
                0x000004dd       0x1b c:/software/altera/10.1/nios2eds/bin/gnu/h-i686-mingw32/bin/../lib/gcc/nios2-elf/4.1.2/../../../../nios2-elf/lib\libm.a(lib_a-s_ceil.o)
 .debug_pubnames
                0x000004f8       0x2c c:/software/altera/10.1/nios2eds/bin/gnu/h-i686-mingw32/bin/../lib/gcc/nios2-elf/4.1.2\libgcc.a(_addsub_df.o)
 .debug_pubnames
                0x00000524       0x1f c:/software/altera/10.1/nios2eds/bin/gnu/h-i686-mingw32/bin/../lib/gcc/nios2-elf/4.1.2\libgcc.a(_mul_df.o)
 .debug_pubnames
                0x00000543       0x1e c:/software/altera/10.1/nios2eds/bin/gnu/h-i686-mingw32/bin/../lib/gcc/nios2-elf/4.1.2\libgcc.a(_gt_df.o)
 .debug_pubnames
                0x00000561       0x20 c:/software/altera/10.1/nios2eds/bin/gnu/h-i686-mingw32/bin/../lib/gcc/nios2-elf/4.1.2\libgcc.a(_df_to_si.o)
 .debug_pubnames
                0x00000581       0x22 c:/software/altera/10.1/nios2eds/bin/gnu/h-i686-mingw32/bin/../lib/gcc/nios2-elf/4.1.2\libgcc.a(_thenan_df.o)
 .debug_pubnames
                0x000005a3       0x24 c:/software/altera/10.1/nios2eds/bin/gnu/h-i686-mingw32/bin/../lib/gcc/nios2-elf/4.1.2\libgcc.a(_usi_to_df.o)
 .debug_pubnames
                0x000005c7       0x48 c:/software/altera/10.1/nios2eds/bin/gnu/h-i686-mingw32/bin/../lib/gcc/nios2-elf/4.1.2\libgcc.a(lib2-divmod.o)
 .debug_pubnames
                0x0000060f       0x25 c:/software/altera/10.1/nios2eds/bin/gnu/h-i686-mingw32/bin/../lib/gcc/nios2-elf/4.1.2\libgcc.a(lib2-divtable.o)
 .debug_pubnames
                0x00000634       0x1f c:/software/altera/10.1/nios2eds/bin/gnu/h-i686-mingw32/bin/../lib/gcc/nios2-elf/4.1.2\libgcc.a(_muldi3.o)
 .debug_pubnames
                0x00000653       0x1f c:/software/altera/10.1/nios2eds/bin/gnu/h-i686-mingw32/bin/../lib/gcc/nios2-elf/4.1.2\libgcc.a(_clzsi2.o)
 .debug_pubnames
                0x00000672       0x1f c:/software/altera/10.1/nios2eds/bin/gnu/h-i686-mingw32/bin/../lib/gcc/nios2-elf/4.1.2\libgcc.a(_pack_df.o)
 .debug_pubnames
                0x00000691       0x21 c:/software/altera/10.1/nios2eds/bin/gnu/h-i686-mingw32/bin/../lib/gcc/nios2-elf/4.1.2\libgcc.a(_unpack_df.o)
 .debug_pubnames
                0x000006b2       0x26 c:/software/altera/10.1/nios2eds/bin/gnu/h-i686-mingw32/bin/../lib/gcc/nios2-elf/4.1.2\libgcc.a(_fpcmp_parts_df.o)
 .debug_pubnames
                0x000006d8       0x20 c:/software/altera/10.1/nios2eds/bin/gnu/h-i686-mingw32/bin/../lib/gcc/nios2-elf/4.1.2\libgcc.a(_clz.o)
 .debug_pubnames
                0x000006f8       0x1b c:/software/altera/10.1/nios2eds/bin/gnu/h-i686-mingw32/bin/../lib/gcc/nios2-elf/4.1.2/../../../../nios2-elf/lib\libc.a(lib_a-exit.o)
 .debug_pubnames
                0x00000713       0x39 c:/software/altera/10.1/nios2eds/bin/gnu/h-i686-mingw32/bin/../lib/gcc/nios2-elf/4.1.2/../../../../nios2-elf/lib\libc.a(lib_a-impure.o)
 .debug_pubnames
                0x0000074c       0x1c c:/software/altera/10.1/nios2eds/bin/gnu/h-i686-mingw32/bin/../lib/gcc/nios2-elf/4.1.2/../../../../nios2-elf/lib\libc.a(lib_a-int_errno.o)
 .debug_pubnames
                0x00000768       0x26 c:/software/altera/10.1/nios2eds/bin/gnu/h-i686-mingw32/bin/../lib/gcc/nios2-elf/4.1.2/../../../../nios2-elf/lib\libc.a(lib_a-malloc.o)
 .debug_pubnames
                0x0000078e       0xce c:/software/altera/10.1/nios2eds/bin/gnu/h-i686-mingw32/bin/../lib/gcc/nios2-elf/4.1.2/../../../../nios2-elf/lib\libc.a(lib_a-mallocr.o)
 .debug_pubnames
                0x0000085c       0x2b c:/software/altera/10.1/nios2eds/bin/gnu/h-i686-mingw32/bin/../lib/gcc/nios2-elf/4.1.2/../../../../nios2-elf/lib\libc.a(lib_a-printf.o)
 .debug_pubnames
                0x00000887       0x2d c:/software/altera/10.1/nios2eds/bin/gnu/h-i686-mingw32/bin/../lib/gcc/nios2-elf/4.1.2/../../../../nios2-elf/lib\libc.a(lib_a-putchar.o)
 .debug_pubnames
                0x000008b4       0x27 c:/software/altera/10.1/nios2eds/bin/gnu/h-i686-mingw32/bin/../lib/gcc/nios2-elf/4.1.2/../../../../nios2-elf/lib\libc.a(lib_a-puts.o)
 .debug_pubnames
                0x000008db       0x1e c:/software/altera/10.1/nios2eds/bin/gnu/h-i686-mingw32/bin/../lib/gcc/nios2-elf/4.1.2/../../../../nios2-elf/lib\libc.a(lib_a-sbrkr.o)
 .debug_pubnames
                0x000008f9       0x1d c:/software/altera/10.1/nios2eds/bin/gnu/h-i686-mingw32/bin/../lib/gcc/nios2-elf/4.1.2/../../../../nios2-elf/lib\libc.a(lib_a-strlen.o)
 .debug_pubnames
                0x00000916       0x45 c:/software/altera/10.1/nios2eds/bin/gnu/h-i686-mingw32/bin/../lib/gcc/nios2-elf/4.1.2/../../../../nios2-elf/lib\libc.a(lib_a-vfprintf.o)
 .debug_pubnames
                0x0000095b       0x22 c:/software/altera/10.1/nios2eds/bin/gnu/h-i686-mingw32/bin/../lib/gcc/nios2-elf/4.1.2/../../../../nios2-elf/lib\libc.a(lib_a-wsetup.o)
 .debug_pubnames
                0x0000097d       0x27 c:/software/altera/10.1/nios2eds/bin/gnu/h-i686-mingw32/bin/../lib/gcc/nios2-elf/4.1.2/../../../../nios2-elf/lib\libc.a(lib_a-__call_atexit.o)
 .debug_pubnames
                0x000009a4       0x1e c:/software/altera/10.1/nios2eds/bin/gnu/h-i686-mingw32/bin/../lib/gcc/nios2-elf/4.1.2/../../../../nios2-elf/lib\libc.a(lib_a-dtoa.o)
 .debug_pubnames
                0x000009c2       0x2b c:/software/altera/10.1/nios2eds/bin/gnu/h-i686-mingw32/bin/../lib/gcc/nios2-elf/4.1.2/../../../../nios2-elf/lib\libc.a(lib_a-fflush.o)
 .debug_pubnames
                0x000009ed       0xdb c:/software/altera/10.1/nios2eds/bin/gnu/h-i686-mingw32/bin/../lib/gcc/nios2-elf/4.1.2/../../../../nios2-elf/lib\libc.a(lib_a-findfp.o)
 .debug_pubnames
                0x00000ac8       0x31 c:/software/altera/10.1/nios2eds/bin/gnu/h-i686-mingw32/bin/../lib/gcc/nios2-elf/4.1.2/../../../../nios2-elf/lib\libc.a(lib_a-freer.o)
 .debug_pubnames
                0x00000af9       0x23 c:/software/altera/10.1/nios2eds/bin/gnu/h-i686-mingw32/bin/../lib/gcc/nios2-elf/4.1.2/../../../../nios2-elf/lib\libc.a(lib_a-fvwrite.o)
 .debug_pubnames
                0x00000b1c       0x2e c:/software/altera/10.1/nios2eds/bin/gnu/h-i686-mingw32/bin/../lib/gcc/nios2-elf/4.1.2/../../../../nios2-elf/lib\libc.a(lib_a-fwalk.o)
 .debug_pubnames
                0x00000b4a       0xc3 c:/software/altera/10.1/nios2eds/bin/gnu/h-i686-mingw32/bin/../lib/gcc/nios2-elf/4.1.2/../../../../nios2-elf/lib\libc.a(lib_a-locale.o)
 .debug_pubnames
                0x00000c0d       0x23 c:/software/altera/10.1/nios2eds/bin/gnu/h-i686-mingw32/bin/../lib/gcc/nios2-elf/4.1.2/../../../../nios2-elf/lib\libc.a(lib_a-makebuf.o)
 .debug_pubnames
                0x00000c30       0x1d c:/software/altera/10.1/nios2eds/bin/gnu/h-i686-mingw32/bin/../lib/gcc/nios2-elf/4.1.2/../../../../nios2-elf/lib\libc.a(lib_a-memchr.o)
 .debug_pubnames
                0x00000c4d       0x1d c:/software/altera/10.1/nios2eds/bin/gnu/h-i686-mingw32/bin/../lib/gcc/nios2-elf/4.1.2/../../../../nios2-elf/lib\libc.a(lib_a-memcpy.o)
 .debug_pubnames
                0x00000c6a       0x1e c:/software/altera/10.1/nios2eds/bin/gnu/h-i686-mingw32/bin/../lib/gcc/nios2-elf/4.1.2/../../../../nios2-elf/lib\libc.a(lib_a-memmove.o)
 .debug_pubnames
                0x00000c88       0x1d c:/software/altera/10.1/nios2eds/bin/gnu/h-i686-mingw32/bin/../lib/gcc/nios2-elf/4.1.2/../../../../nios2-elf/lib\libc.a(lib_a-memset.o)
 .debug_pubnames
                0x00000ca5      0x13a c:/software/altera/10.1/nios2eds/bin/gnu/h-i686-mingw32/bin/../lib/gcc/nios2-elf/4.1.2/../../../../nios2-elf/lib\libc.a(lib_a-mprec.o)
 .debug_pubnames
                0x00000ddf       0x27 c:/software/altera/10.1/nios2eds/bin/gnu/h-i686-mingw32/bin/../lib/gcc/nios2-elf/4.1.2/../../../../nios2-elf/lib\libc.a(lib_a-putc.o)
 .debug_pubnames
                0x00000e06       0x21 c:/software/altera/10.1/nios2eds/bin/gnu/h-i686-mingw32/bin/../lib/gcc/nios2-elf/4.1.2/../../../../nios2-elf/lib\libc.a(lib_a-reallocr.o)
 .debug_pubnames
                0x00000e27       0x1f c:/software/altera/10.1/nios2eds/bin/gnu/h-i686-mingw32/bin/../lib/gcc/nios2-elf/4.1.2/../../../../nios2-elf/lib\libc.a(lib_a-s_isinfd.o)
 .debug_pubnames
                0x00000e46       0x1f c:/software/altera/10.1/nios2eds/bin/gnu/h-i686-mingw32/bin/../lib/gcc/nios2-elf/4.1.2/../../../../nios2-elf/lib\libc.a(lib_a-s_isnand.o)
 .debug_pubnames
                0x00000e65       0x44 c:/software/altera/10.1/nios2eds/bin/gnu/h-i686-mingw32/bin/../lib/gcc/nios2-elf/4.1.2/../../../../nios2-elf/lib\libc.a(lib_a-stdio.o)
 .debug_pubnames
                0x00000ea9       0x1d c:/software/altera/10.1/nios2eds/bin/gnu/h-i686-mingw32/bin/../lib/gcc/nios2-elf/4.1.2/../../../../nios2-elf/lib\libc.a(lib_a-strcmp.o)
 .debug_pubnames
                0x00000ec6       0x2c c:/software/altera/10.1/nios2eds/bin/gnu/h-i686-mingw32/bin/../lib/gcc/nios2-elf/4.1.2/../../../../nios2-elf/lib\libc.a(lib_a-wbuf.o)
 .debug_pubnames
                0x00000ef2       0x1f c:/software/altera/10.1/nios2eds/bin/gnu/h-i686-mingw32/bin/../lib/gcc/nios2-elf/4.1.2/../../../../nios2-elf/lib\libc.a(lib_a-writer.o)
 .debug_pubnames
                0x00000f11       0x20 c:/software/altera/10.1/nios2eds/bin/gnu/h-i686-mingw32/bin/../lib/gcc/nios2-elf/4.1.2/../../../../nios2-elf/lib\libc.a(lib_a-callocr.o)
 .debug_pubnames
                0x00000f31       0x1f c:/software/altera/10.1/nios2eds/bin/gnu/h-i686-mingw32/bin/../lib/gcc/nios2-elf/4.1.2/../../../../nios2-elf/lib\libc.a(lib_a-closer.o)
 .debug_pubnames
                0x00000f50       0x2b c:/software/altera/10.1/nios2eds/bin/gnu/h-i686-mingw32/bin/../lib/gcc/nios2-elf/4.1.2/../../../../nios2-elf/lib\libc.a(lib_a-fclose.o)
 .debug_pubnames
                0x00000f7b       0x1f c:/software/altera/10.1/nios2eds/bin/gnu/h-i686-mingw32/bin/../lib/gcc/nios2-elf/4.1.2/../../../../nios2-elf/lib\libc.a(lib_a-fstatr.o)
 .debug_pubnames
                0x00000f9a       0x20 c:/software/altera/10.1/nios2eds/bin/gnu/h-i686-mingw32/bin/../lib/gcc/nios2-elf/4.1.2/../../../../nios2-elf/lib\libc.a(lib_a-isattyr.o)
 .debug_pubnames
                0x00000fba       0x1f c:/software/altera/10.1/nios2eds/bin/gnu/h-i686-mingw32/bin/../lib/gcc/nios2-elf/4.1.2/../../../../nios2-elf/lib\libc.a(lib_a-lseekr.o)
 .debug_pubnames
                0x00000fd9       0x1e c:/software/altera/10.1/nios2eds/bin/gnu/h-i686-mingw32/bin/../lib/gcc/nios2-elf/4.1.2/../../../../nios2-elf/lib\libc.a(lib_a-readr.o)
 .debug_pubnames
                0x00000ff7       0x20 c:/software/altera/10.1/nios2eds/bin/gnu/h-i686-mingw32/bin/../lib/gcc/nios2-elf/4.1.2\libgcc.a(_udivdi3.o)
 .debug_pubnames
                0x00001017       0x20 c:/software/altera/10.1/nios2eds/bin/gnu/h-i686-mingw32/bin/../lib/gcc/nios2-elf/4.1.2\libgcc.a(_umoddi3.o)
 .debug_pubnames
                0x00001037       0x1f c:/software/altera/10.1/nios2eds/bin/gnu/h-i686-mingw32/bin/../lib/gcc/nios2-elf/4.1.2\libgcc.a(_div_df.o)
 .debug_pubnames
                0x00001056       0x1e c:/software/altera/10.1/nios2eds/bin/gnu/h-i686-mingw32/bin/../lib/gcc/nios2-elf/4.1.2\libgcc.a(_eq_df.o)
 .debug_pubnames
                0x00001074       0x1e c:/software/altera/10.1/nios2eds/bin/gnu/h-i686-mingw32/bin/../lib/gcc/nios2-elf/4.1.2\libgcc.a(_ne_df.o)
 .debug_pubnames
                0x00001092       0x1e c:/software/altera/10.1/nios2eds/bin/gnu/h-i686-mingw32/bin/../lib/gcc/nios2-elf/4.1.2\libgcc.a(_ge_df.o)
 .debug_pubnames
                0x000010b0       0x1e c:/software/altera/10.1/nios2eds/bin/gnu/h-i686-mingw32/bin/../lib/gcc/nios2-elf/4.1.2\libgcc.a(_lt_df.o)
 .debug_pubnames
                0x000010ce       0x22 c:/software/altera/10.1/nios2eds/bin/gnu/h-i686-mingw32/bin/../lib/gcc/nios2-elf/4.1.2\libgcc.a(_si_to_df.o)
 .debug_pubnames
                0x000010f0       0x1c ../multi_test_1_bsp\libhal_bsp.a(alt_close.o)
 .debug_pubnames
                0x0000110c       0x2b ../multi_test_1_bsp\libhal_bsp.a(alt_dcache_flush_all.o)
 .debug_pubnames
                0x00001137       0x63 ../multi_test_1_bsp\libhal_bsp.a(alt_dev.o)
 .debug_pubnames
                0x0000119a       0x20 ../multi_test_1_bsp\libhal_bsp.a(alt_errno.o)
 .debug_pubnames
                0x000011ba       0x1c ../multi_test_1_bsp\libhal_bsp.a(alt_exit.o)
 .debug_pubnames
                0x000011d6       0x1c ../multi_test_1_bsp\libhal_bsp.a(alt_fstat.o)
 .debug_pubnames
                0x000011f2       0x27 ../multi_test_1_bsp\libhal_bsp.a(alt_irq_register.o)
 .debug_pubnames
                0x00001219       0x3b ../multi_test_1_bsp\libhal_bsp.a(alt_irq_vars.o)
 .debug_pubnames
                0x00001254       0x1d ../multi_test_1_bsp\libhal_bsp.a(alt_isatty.o)
 .debug_pubnames
                0x00001271       0x1f ../multi_test_1_bsp\libhal_bsp.a(alt_load.o)
 .debug_pubnames
                0x00001290       0x1c ../multi_test_1_bsp\libhal_bsp.a(alt_lseek.o)
 .debug_pubnames
                0x000012ac       0x46 ../multi_test_1_bsp\libhal_bsp.a(alt_main.o)
 .debug_pubnames
                0x000012f2       0x38 ../multi_test_1_bsp\libhal_bsp.a(alt_malloc_lock.o)
 .debug_pubnames
                0x0000132a       0x1b ../multi_test_1_bsp\libhal_bsp.a(alt_read.o)
 .debug_pubnames
                0x00001345       0x25 ../multi_test_1_bsp\libhal_bsp.a(alt_release_fd.o)
 .debug_pubnames
                0x0000136a       0x1b ../multi_test_1_bsp\libhal_bsp.a(alt_sbrk.o)
 .debug_pubnames
                0x00001385       0x1c ../multi_test_1_bsp\libhal_bsp.a(alt_write.o)
 .debug_pubnames
                0x000013a1       0x34 ../multi_test_1_bsp\libhal_bsp.a(alt_sys_init.o)
 .debug_pubnames
                0x000013d5       0xa5 ../multi_test_1_bsp\libhal_bsp.a(altera_avalon_jtag_uart_fd.o)
 .debug_pubnames
                0x0000147a       0x55 ../multi_test_1_bsp\libhal_bsp.a(altera_avalon_jtag_uart_init.o)
 .debug_pubnames
                0x000014cf       0x34 ../multi_test_1_bsp\libhal_bsp.a(altera_avalon_jtag_uart_ioctl.o)
 .debug_pubnames
                0x00001503       0x33 ../multi_test_1_bsp\libhal_bsp.a(altera_avalon_jtag_uart_read.o)
 .debug_pubnames
                0x00001536       0x34 ../multi_test_1_bsp\libhal_bsp.a(altera_avalon_jtag_uart_write.o)
 .debug_pubnames
                0x0000156a       0xde ../multi_test_1_bsp\libhal_bsp.a(altera_avalon_mailbox.o)
 .debug_pubnames
                0x00001648       0xff ../multi_test_1_bsp\libhal_bsp.a(altera_avalon_mutex.o)
 .debug_pubnames
                0x00001747       0x2f ../multi_test_1_bsp\libhal_bsp.a(altera_avalon_timer_sc.o)
 .debug_pubnames
                0x00001776      0x564 ../multi_test_1_bsp\libhal_bsp.a(altera_up_sd_card_avalon_interface.o)
 .debug_pubnames
                0x00001cda       0x26 ../multi_test_1_bsp\libhal_bsp.a(alt_alarm_start.o)
 .debug_pubnames
                0x00001d00       0x2b ../multi_test_1_bsp\libhal_bsp.a(alt_dev_llist_insert.o)
 .debug_pubnames
                0x00001d2b       0x20 ../multi_test_1_bsp\libhal_bsp.a(alt_do_ctors.o)
 .debug_pubnames
                0x00001d4b       0x20 ../multi_test_1_bsp\libhal_bsp.a(alt_do_dtors.o)
 .debug_pubnames
                0x00001d6b       0x23 ../multi_test_1_bsp\libhal_bsp.a(alt_find_dev.o)
 .debug_pubnames
                0x00001d8e       0x2b ../multi_test_1_bsp\libhal_bsp.a(alt_icache_flush_all.o)
 .debug_pubnames
                0x00001db9       0x6e ../multi_test_1_bsp\libhal_bsp.a(alt_iic.o)
 .debug_pubnames
                0x00001e27       0x2b ../multi_test_1_bsp\libhal_bsp.a(alt_iic_isr_register.o)
 .debug_pubnames
                0x00001e52       0x26 ../multi_test_1_bsp\libhal_bsp.a(alt_io_redirect.o)
 .debug_pubnames
                0x00001e78       0x32 ../multi_test_1_bsp\libhal_bsp.a(alt_irq_handler.o)
 .debug_pubnames
                0x00001eaa       0x1b ../multi_test_1_bsp\libhal_bsp.a(alt_open.o)
 .debug_pubnames
                0x00001ec5       0x68 ../multi_test_1_bsp\libhal_bsp.a(alt_tick.o)
 .debug_pubnames
                0x00001f2d       0x2c ../multi_test_1_bsp\libhal_bsp.a(altera_nios2_irq.o)
 .debug_pubnames
                0x00001f59       0x24 ../multi_test_1_bsp\libhal_bsp.a(alt_find_file.o)
 .debug_pubnames
                0x00001f7d       0x21 ../multi_test_1_bsp\libhal_bsp.a(alt_get_fd.o)
 .debug_pubnames
                0x00001f9e       0x27 ../multi_test_1_bsp\libhal_bsp.a(alt_icache_flush.o)
 .debug_pubnames
                0x00001fc5       0x2a c:/software/altera/10.1/nios2eds/bin/gnu/h-i686-mingw32/bin/../lib/gcc/nios2-elf/4.1.2/../../../../nios2-elf/lib\libc.a(lib_a-atexit.o)
 .debug_pubnames
                0x00001fef       0x1d c:/software/altera/10.1/nios2eds/bin/gnu/h-i686-mingw32/bin/../lib/gcc/nios2-elf/4.1.2/../../../../nios2-elf/lib\libc.a(lib_a-memcmp.o)
 .debug_pubnames
                0x0000200c       0x2a c:/software/altera/10.1/nios2eds/bin/gnu/h-i686-mingw32/bin/../lib/gcc/nios2-elf/4.1.2/../../../../nios2-elf/lib\libc.a(lib_a-__atexit.o)

.debug_info     0x00000000    0x2b410
 *(.debug_info .gnu.linkonce.wi.*)
 .debug_info    0x00000000       0x9f ../multi_test_1_bsp/obj/HAL/src/crt0.o
 .debug_info    0x0000009f       0xec obj/common/tables.o
 .debug_info    0x0000018b      0x206 obj/common/util.o
 .debug_info    0x00000391      0x151 obj/decoder/idct.o
 .debug_info    0x000004e2      0x44b obj/decoder/lossless_decode.o
 .debug_info    0x0000092d      0xf19 obj/decoder/mjpeg423_decoder.o
 .debug_info    0x00001846      0x1cd obj/decoder/ycbcr_to_rgb.o
 .debug_info    0x00001a13      0x738 obj/hello_world.o
 .debug_info    0x0000214b      0x697 obj/sd_card.o
 .debug_info    0x000027e2      0x1bf c:/software/altera/10.1/nios2eds/bin/gnu/h-i686-mingw32/bin/../lib/gcc/nios2-elf/4.1.2/../../../../nios2-elf/lib\libm.a(lib_a-s_ceil.o)
 .debug_info    0x000029a1      0x493 c:/software/altera/10.1/nios2eds/bin/gnu/h-i686-mingw32/bin/../lib/gcc/nios2-elf/4.1.2\libgcc.a(_addsub_df.o)
 .debug_info    0x00002e34      0x488 c:/software/altera/10.1/nios2eds/bin/gnu/h-i686-mingw32/bin/../lib/gcc/nios2-elf/4.1.2\libgcc.a(_mul_df.o)
 .debug_info    0x000032bc      0x29d c:/software/altera/10.1/nios2eds/bin/gnu/h-i686-mingw32/bin/../lib/gcc/nios2-elf/4.1.2\libgcc.a(_gt_df.o)
 .debug_info    0x00003559      0x2cd c:/software/altera/10.1/nios2eds/bin/gnu/h-i686-mingw32/bin/../lib/gcc/nios2-elf/4.1.2\libgcc.a(_df_to_si.o)
 .debug_info    0x00003826      0x164 c:/software/altera/10.1/nios2eds/bin/gnu/h-i686-mingw32/bin/../lib/gcc/nios2-elf/4.1.2\libgcc.a(_thenan_df.o)
 .debug_info    0x0000398a      0x213 c:/software/altera/10.1/nios2eds/bin/gnu/h-i686-mingw32/bin/../lib/gcc/nios2-elf/4.1.2\libgcc.a(_usi_to_df.o)
 .debug_info    0x00003b9d      0x21c c:/software/altera/10.1/nios2eds/bin/gnu/h-i686-mingw32/bin/../lib/gcc/nios2-elf/4.1.2\libgcc.a(lib2-divmod.o)
 .debug_info    0x00003db9       0xae c:/software/altera/10.1/nios2eds/bin/gnu/h-i686-mingw32/bin/../lib/gcc/nios2-elf/4.1.2\libgcc.a(lib2-divtable.o)
 .debug_info    0x00003e67      0x215 c:/software/altera/10.1/nios2eds/bin/gnu/h-i686-mingw32/bin/../lib/gcc/nios2-elf/4.1.2\libgcc.a(_muldi3.o)
 .debug_info    0x0000407c      0x130 c:/software/altera/10.1/nios2eds/bin/gnu/h-i686-mingw32/bin/../lib/gcc/nios2-elf/4.1.2\libgcc.a(_clzsi2.o)
 .debug_info    0x000041ac      0x2fc c:/software/altera/10.1/nios2eds/bin/gnu/h-i686-mingw32/bin/../lib/gcc/nios2-elf/4.1.2\libgcc.a(_pack_df.o)
 .debug_info    0x000044a8      0x268 c:/software/altera/10.1/nios2eds/bin/gnu/h-i686-mingw32/bin/../lib/gcc/nios2-elf/4.1.2\libgcc.a(_unpack_df.o)
 .debug_info    0x00004710      0x21b c:/software/altera/10.1/nios2eds/bin/gnu/h-i686-mingw32/bin/../lib/gcc/nios2-elf/4.1.2\libgcc.a(_fpcmp_parts_df.o)
 .debug_info    0x0000492b       0xc9 c:/software/altera/10.1/nios2eds/bin/gnu/h-i686-mingw32/bin/../lib/gcc/nios2-elf/4.1.2\libgcc.a(_clz.o)
 .debug_info    0x000049f4      0x93f c:/software/altera/10.1/nios2eds/bin/gnu/h-i686-mingw32/bin/../lib/gcc/nios2-elf/4.1.2/../../../../nios2-elf/lib\libc.a(lib_a-exit.o)
 .debug_info    0x00005333      0x93d c:/software/altera/10.1/nios2eds/bin/gnu/h-i686-mingw32/bin/../lib/gcc/nios2-elf/4.1.2/../../../../nios2-elf/lib\libc.a(lib_a-impure.o)
 .debug_info    0x00005c70       0x8c c:/software/altera/10.1/nios2eds/bin/gnu/h-i686-mingw32/bin/../lib/gcc/nios2-elf/4.1.2/../../../../nios2-elf/lib\libc.a(lib_a-int_errno.o)
 .debug_info    0x00005cfc      0x96e c:/software/altera/10.1/nios2eds/bin/gnu/h-i686-mingw32/bin/../lib/gcc/nios2-elf/4.1.2/../../../../nios2-elf/lib\libc.a(lib_a-malloc.o)
 .debug_info    0x0000666a      0xcd0 c:/software/altera/10.1/nios2eds/bin/gnu/h-i686-mingw32/bin/../lib/gcc/nios2-elf/4.1.2/../../../../nios2-elf/lib\libc.a(lib_a-mallocr.o)
 .debug_info    0x0000733a      0x9d1 c:/software/altera/10.1/nios2eds/bin/gnu/h-i686-mingw32/bin/../lib/gcc/nios2-elf/4.1.2/../../../../nios2-elf/lib\libc.a(lib_a-printf.o)
 .debug_info    0x00007d0b      0x972 c:/software/altera/10.1/nios2eds/bin/gnu/h-i686-mingw32/bin/../lib/gcc/nios2-elf/4.1.2/../../../../nios2-elf/lib\libc.a(lib_a-putchar.o)
 .debug_info    0x0000867d      0xa25 c:/software/altera/10.1/nios2eds/bin/gnu/h-i686-mingw32/bin/../lib/gcc/nios2-elf/4.1.2/../../../../nios2-elf/lib\libc.a(lib_a-puts.o)
 .debug_info    0x000090a2      0x962 c:/software/altera/10.1/nios2eds/bin/gnu/h-i686-mingw32/bin/../lib/gcc/nios2-elf/4.1.2/../../../../nios2-elf/lib\libc.a(lib_a-sbrkr.o)
 .debug_info    0x00009a04       0xdb c:/software/altera/10.1/nios2eds/bin/gnu/h-i686-mingw32/bin/../lib/gcc/nios2-elf/4.1.2/../../../../nios2-elf/lib\libc.a(lib_a-strlen.o)
 .debug_info    0x00009adf     0x10d5 c:/software/altera/10.1/nios2eds/bin/gnu/h-i686-mingw32/bin/../lib/gcc/nios2-elf/4.1.2/../../../../nios2-elf/lib\libc.a(lib_a-vfprintf.o)
 .debug_info    0x0000abb4      0x95d c:/software/altera/10.1/nios2eds/bin/gnu/h-i686-mingw32/bin/../lib/gcc/nios2-elf/4.1.2/../../../../nios2-elf/lib\libc.a(lib_a-wsetup.o)
 .debug_info    0x0000b511      0x9e2 c:/software/altera/10.1/nios2eds/bin/gnu/h-i686-mingw32/bin/../lib/gcc/nios2-elf/4.1.2/../../../../nios2-elf/lib\libc.a(lib_a-__call_atexit.o)
 .debug_info    0x0000bef3      0xd6f c:/software/altera/10.1/nios2eds/bin/gnu/h-i686-mingw32/bin/../lib/gcc/nios2-elf/4.1.2/../../../../nios2-elf/lib\libc.a(lib_a-dtoa.o)
 .debug_info    0x0000cc62      0x9fe c:/software/altera/10.1/nios2eds/bin/gnu/h-i686-mingw32/bin/../lib/gcc/nios2-elf/4.1.2/../../../../nios2-elf/lib\libc.a(lib_a-fflush.o)
 .debug_info    0x0000d660      0xb72 c:/software/altera/10.1/nios2eds/bin/gnu/h-i686-mingw32/bin/../lib/gcc/nios2-elf/4.1.2/../../../../nios2-elf/lib\libc.a(lib_a-findfp.o)
 .debug_info    0x0000e1d2      0xbc9 c:/software/altera/10.1/nios2eds/bin/gnu/h-i686-mingw32/bin/../lib/gcc/nios2-elf/4.1.2/../../../../nios2-elf/lib\libc.a(lib_a-freer.o)
 .debug_info    0x0000ed9b      0xa88 c:/software/altera/10.1/nios2eds/bin/gnu/h-i686-mingw32/bin/../lib/gcc/nios2-elf/4.1.2/../../../../nios2-elf/lib\libc.a(lib_a-fvwrite.o)
 .debug_info    0x0000f823      0xaed c:/software/altera/10.1/nios2eds/bin/gnu/h-i686-mingw32/bin/../lib/gcc/nios2-elf/4.1.2/../../../../nios2-elf/lib\libc.a(lib_a-fwalk.o)
 .debug_info    0x00010310      0xb97 c:/software/altera/10.1/nios2eds/bin/gnu/h-i686-mingw32/bin/../lib/gcc/nios2-elf/4.1.2/../../../../nios2-elf/lib\libc.a(lib_a-locale.o)
 .debug_info    0x00010ea7      0xb1a c:/software/altera/10.1/nios2eds/bin/gnu/h-i686-mingw32/bin/../lib/gcc/nios2-elf/4.1.2/../../../../nios2-elf/lib\libc.a(lib_a-makebuf.o)
 .debug_info    0x000119c1      0x138 c:/software/altera/10.1/nios2eds/bin/gnu/h-i686-mingw32/bin/../lib/gcc/nios2-elf/4.1.2/../../../../nios2-elf/lib\libc.a(lib_a-memchr.o)
 .debug_info    0x00011af9      0x106 c:/software/altera/10.1/nios2eds/bin/gnu/h-i686-mingw32/bin/../lib/gcc/nios2-elf/4.1.2/../../../../nios2-elf/lib\libc.a(lib_a-memcpy.o)
 .debug_info    0x00011bff      0x13e c:/software/altera/10.1/nios2eds/bin/gnu/h-i686-mingw32/bin/../lib/gcc/nios2-elf/4.1.2/../../../../nios2-elf/lib\libc.a(lib_a-memmove.o)
 .debug_info    0x00011d3d      0x113 c:/software/altera/10.1/nios2eds/bin/gnu/h-i686-mingw32/bin/../lib/gcc/nios2-elf/4.1.2/../../../../nios2-elf/lib\libc.a(lib_a-memset.o)
 .debug_info    0x00011e50     0x1437 c:/software/altera/10.1/nios2eds/bin/gnu/h-i686-mingw32/bin/../lib/gcc/nios2-elf/4.1.2/../../../../nios2-elf/lib\libc.a(lib_a-mprec.o)
 .debug_info    0x00013287      0x9c1 c:/software/altera/10.1/nios2eds/bin/gnu/h-i686-mingw32/bin/../lib/gcc/nios2-elf/4.1.2/../../../../nios2-elf/lib\libc.a(lib_a-putc.o)
 .debug_info    0x00013c48      0xbd7 c:/software/altera/10.1/nios2eds/bin/gnu/h-i686-mingw32/bin/../lib/gcc/nios2-elf/4.1.2/../../../../nios2-elf/lib\libc.a(lib_a-reallocr.o)
 .debug_info    0x0001481f       0xd7 c:/software/altera/10.1/nios2eds/bin/gnu/h-i686-mingw32/bin/../lib/gcc/nios2-elf/4.1.2/../../../../nios2-elf/lib\libc.a(lib_a-s_isinfd.o)
 .debug_info    0x000148f6       0xd5 c:/software/altera/10.1/nios2eds/bin/gnu/h-i686-mingw32/bin/../lib/gcc/nios2-elf/4.1.2/../../../../nios2-elf/lib\libc.a(lib_a-s_isnand.o)
 .debug_info    0x000149cb      0xaac c:/software/altera/10.1/nios2eds/bin/gnu/h-i686-mingw32/bin/../lib/gcc/nios2-elf/4.1.2/../../../../nios2-elf/lib\libc.a(lib_a-stdio.o)
 .debug_info    0x00015477       0xdd c:/software/altera/10.1/nios2eds/bin/gnu/h-i686-mingw32/bin/../lib/gcc/nios2-elf/4.1.2/../../../../nios2-elf/lib\libc.a(lib_a-strcmp.o)
 .debug_info    0x00015554      0x9ae c:/software/altera/10.1/nios2eds/bin/gnu/h-i686-mingw32/bin/../lib/gcc/nios2-elf/4.1.2/../../../../nios2-elf/lib\libc.a(lib_a-wbuf.o)
 .debug_info    0x00015f02      0x993 c:/software/altera/10.1/nios2eds/bin/gnu/h-i686-mingw32/bin/../lib/gcc/nios2-elf/4.1.2/../../../../nios2-elf/lib\libc.a(lib_a-writer.o)
 .debug_info    0x00016895      0xa1b c:/software/altera/10.1/nios2eds/bin/gnu/h-i686-mingw32/bin/../lib/gcc/nios2-elf/4.1.2/../../../../nios2-elf/lib\libc.a(lib_a-callocr.o)
 .debug_info    0x000172b0      0x958 c:/software/altera/10.1/nios2eds/bin/gnu/h-i686-mingw32/bin/../lib/gcc/nios2-elf/4.1.2/../../../../nios2-elf/lib\libc.a(lib_a-closer.o)
 .debug_info    0x00017c08      0x994 c:/software/altera/10.1/nios2eds/bin/gnu/h-i686-mingw32/bin/../lib/gcc/nios2-elf/4.1.2/../../../../nios2-elf/lib\libc.a(lib_a-fclose.o)
 .debug_info    0x0001859c      0xafc c:/software/altera/10.1/nios2eds/bin/gnu/h-i686-mingw32/bin/../lib/gcc/nios2-elf/4.1.2/../../../../nios2-elf/lib\libc.a(lib_a-fstatr.o)
 .debug_info    0x00019098      0x958 c:/software/altera/10.1/nios2eds/bin/gnu/h-i686-mingw32/bin/../lib/gcc/nios2-elf/4.1.2/../../../../nios2-elf/lib\libc.a(lib_a-isattyr.o)
 .debug_info    0x000199f0      0x981 c:/software/altera/10.1/nios2eds/bin/gnu/h-i686-mingw32/bin/../lib/gcc/nios2-elf/4.1.2/../../../../nios2-elf/lib\libc.a(lib_a-lseekr.o)
 .debug_info    0x0001a371      0x98c c:/software/altera/10.1/nios2eds/bin/gnu/h-i686-mingw32/bin/../lib/gcc/nios2-elf/4.1.2/../../../../nios2-elf/lib\libc.a(lib_a-readr.o)
 .debug_info    0x0001acfd      0x724 c:/software/altera/10.1/nios2eds/bin/gnu/h-i686-mingw32/bin/../lib/gcc/nios2-elf/4.1.2\libgcc.a(_udivdi3.o)
 .debug_info    0x0001b421      0x751 c:/software/altera/10.1/nios2eds/bin/gnu/h-i686-mingw32/bin/../lib/gcc/nios2-elf/4.1.2\libgcc.a(_umoddi3.o)
 .debug_info    0x0001bb72      0x39b c:/software/altera/10.1/nios2eds/bin/gnu/h-i686-mingw32/bin/../lib/gcc/nios2-elf/4.1.2\libgcc.a(_div_df.o)
 .debug_info    0x0001bf0d      0x29d c:/software/altera/10.1/nios2eds/bin/gnu/h-i686-mingw32/bin/../lib/gcc/nios2-elf/4.1.2\libgcc.a(_eq_df.o)
 .debug_info    0x0001c1aa      0x29d c:/software/altera/10.1/nios2eds/bin/gnu/h-i686-mingw32/bin/../lib/gcc/nios2-elf/4.1.2\libgcc.a(_ne_df.o)
 .debug_info    0x0001c447      0x29d c:/software/altera/10.1/nios2eds/bin/gnu/h-i686-mingw32/bin/../lib/gcc/nios2-elf/4.1.2\libgcc.a(_ge_df.o)
 .debug_info    0x0001c6e4      0x29d c:/software/altera/10.1/nios2eds/bin/gnu/h-i686-mingw32/bin/../lib/gcc/nios2-elf/4.1.2\libgcc.a(_lt_df.o)
 .debug_info    0x0001c981      0x218 c:/software/altera/10.1/nios2eds/bin/gnu/h-i686-mingw32/bin/../lib/gcc/nios2-elf/4.1.2\libgcc.a(_si_to_df.o)
 .debug_info    0x0001cb99      0x48b ../multi_test_1_bsp\libhal_bsp.a(alt_close.o)
 .debug_info    0x0001d024      0x193 ../multi_test_1_bsp\libhal_bsp.a(alt_dcache_flush_all.o)
 .debug_info    0x0001d1b7      0x6a3 ../multi_test_1_bsp\libhal_bsp.a(alt_dev.o)
 .debug_info    0x0001d85a      0x188 ../multi_test_1_bsp\libhal_bsp.a(alt_errno.o)
 .debug_info    0x0001d9e2      0x1b1 ../multi_test_1_bsp\libhal_bsp.a(alt_exit.o)
 .debug_info    0x0001db93      0x684 ../multi_test_1_bsp\libhal_bsp.a(alt_fstat.o)
 .debug_info    0x0001e217      0x44e ../multi_test_1_bsp\libhal_bsp.a(alt_irq_register.o)
 .debug_info    0x0001e665      0x18b ../multi_test_1_bsp\libhal_bsp.a(alt_irq_vars.o)
 .debug_info    0x0001e7f0      0x68a ../multi_test_1_bsp\libhal_bsp.a(alt_isatty.o)
 .debug_info    0x0001ee7a      0x2b1 ../multi_test_1_bsp\libhal_bsp.a(alt_load.o)
 .debug_info    0x0001f12b      0x4be ../multi_test_1_bsp\libhal_bsp.a(alt_lseek.o)
 .debug_info    0x0001f5e9      0x249 ../multi_test_1_bsp\libhal_bsp.a(alt_main.o)
 .debug_info    0x0001f832      0xc05 ../multi_test_1_bsp\libhal_bsp.a(alt_malloc_lock.o)
 .debug_info    0x00020437      0x6ae ../multi_test_1_bsp\libhal_bsp.a(alt_read.o)
 .debug_info    0x00020ae5      0x416 ../multi_test_1_bsp\libhal_bsp.a(alt_release_fd.o)
 .debug_info    0x00020efb      0x2db ../multi_test_1_bsp\libhal_bsp.a(alt_sbrk.o)
 .debug_info    0x000211d6      0x6b7 ../multi_test_1_bsp\libhal_bsp.a(alt_write.o)
 .debug_info    0x0002188d      0x943 ../multi_test_1_bsp\libhal_bsp.a(alt_sys_init.o)
 .debug_info    0x000221d0      0x7fd ../multi_test_1_bsp\libhal_bsp.a(altera_avalon_jtag_uart_fd.o)
 .debug_info    0x000229cd      0x625 ../multi_test_1_bsp\libhal_bsp.a(altera_avalon_jtag_uart_init.o)
 .debug_info    0x00022ff2      0x467 ../multi_test_1_bsp\libhal_bsp.a(altera_avalon_jtag_uart_ioctl.o)
 .debug_info    0x00023459      0x56a ../multi_test_1_bsp\libhal_bsp.a(altera_avalon_jtag_uart_read.o)
 .debug_info    0x000239c3      0x562 ../multi_test_1_bsp\libhal_bsp.a(altera_avalon_jtag_uart_write.o)
 .debug_info    0x00023f25      0x697 ../multi_test_1_bsp\libhal_bsp.a(altera_avalon_mailbox.o)
 .debug_info    0x000245bc      0x5ae ../multi_test_1_bsp\libhal_bsp.a(altera_avalon_mutex.o)
 .debug_info    0x00024b6a      0x3af ../multi_test_1_bsp\libhal_bsp.a(altera_avalon_timer_sc.o)
 .debug_info    0x00024f19     0x21c3 ../multi_test_1_bsp\libhal_bsp.a(altera_up_sd_card_avalon_interface.o)
 .debug_info    0x000270dc      0x466 ../multi_test_1_bsp\libhal_bsp.a(alt_alarm_start.o)
 .debug_info    0x00027542      0x2db ../multi_test_1_bsp\libhal_bsp.a(alt_dev_llist_insert.o)
 .debug_info    0x0002781d       0xfc ../multi_test_1_bsp\libhal_bsp.a(alt_do_ctors.o)
 .debug_info    0x00027919       0xfb ../multi_test_1_bsp\libhal_bsp.a(alt_do_dtors.o)
 .debug_info    0x00027a14      0x43c ../multi_test_1_bsp\libhal_bsp.a(alt_find_dev.o)
 .debug_info    0x00027e50      0x180 ../multi_test_1_bsp\libhal_bsp.a(alt_icache_flush_all.o)
 .debug_info    0x00027fd0      0x4b7 ../multi_test_1_bsp\libhal_bsp.a(alt_iic.o)
 .debug_info    0x00028487      0x338 ../multi_test_1_bsp\libhal_bsp.a(alt_iic_isr_register.o)
 .debug_info    0x000287bf      0x6b9 ../multi_test_1_bsp\libhal_bsp.a(alt_io_redirect.o)
 .debug_info    0x00028e78       0xa8 ../multi_test_1_bsp\libhal_bsp.a(alt_irq_entry.o)
 .debug_info    0x00028f20      0x299 ../multi_test_1_bsp\libhal_bsp.a(alt_irq_handler.o)
 .debug_info    0x000291b9      0x549 ../multi_test_1_bsp\libhal_bsp.a(alt_open.o)
 .debug_info    0x00029702      0x422 ../multi_test_1_bsp\libhal_bsp.a(alt_tick.o)
 .debug_info    0x00029b24      0x17d ../multi_test_1_bsp\libhal_bsp.a(altera_nios2_irq.o)
 .debug_info    0x00029ca1       0xae ../multi_test_1_bsp\libhal_bsp.a(alt_exception_entry.o)
 .debug_info    0x00029d4f      0x443 ../multi_test_1_bsp\libhal_bsp.a(alt_find_file.o)
 .debug_info    0x0002a192      0x484 ../multi_test_1_bsp\libhal_bsp.a(alt_get_fd.o)
 .debug_info    0x0002a616      0x1c8 ../multi_test_1_bsp\libhal_bsp.a(alt_icache_flush.o)
 .debug_info    0x0002a7de      0x181 c:/software/altera/10.1/nios2eds/bin/gnu/h-i686-mingw32/bin/../lib/gcc/nios2-elf/4.1.2/../../../../nios2-elf/lib\libc.a(lib_a-atexit.o)
 .debug_info    0x0002a95f      0x115 c:/software/altera/10.1/nios2eds/bin/gnu/h-i686-mingw32/bin/../lib/gcc/nios2-elf/4.1.2/../../../../nios2-elf/lib\libc.a(lib_a-memcmp.o)
 .debug_info    0x0002aa74      0x99c c:/software/altera/10.1/nios2eds/bin/gnu/h-i686-mingw32/bin/../lib/gcc/nios2-elf/4.1.2/../../../../nios2-elf/lib\libc.a(lib_a-__atexit.o)

.debug_abbrev   0x00000000     0x9016
 *(.debug_abbrev)
 .debug_abbrev  0x00000000       0x12 ../multi_test_1_bsp/obj/HAL/src/crt0.o
 .debug_abbrev  0x00000012       0x5a obj/common/tables.o
 .debug_abbrev  0x0000006c       0xec obj/common/util.o
 .debug_abbrev  0x00000158       0x94 obj/decoder/idct.o
 .debug_abbrev  0x000001ec      0x1b5 obj/decoder/lossless_decode.o
 .debug_abbrev  0x000003a1      0x1e4 obj/decoder/mjpeg423_decoder.o
 .debug_abbrev  0x00000585       0xfa obj/decoder/ycbcr_to_rgb.o
 .debug_abbrev  0x0000067f      0x1a8 obj/hello_world.o
 .debug_abbrev  0x00000827      0x1c5 obj/sd_card.o
 .debug_abbrev  0x000009ec       0xea c:/software/altera/10.1/nios2eds/bin/gnu/h-i686-mingw32/bin/../lib/gcc/nios2-elf/4.1.2/../../../../nios2-elf/lib\libm.a(lib_a-s_ceil.o)
 .debug_abbrev  0x00000ad6      0x1d2 c:/software/altera/10.1/nios2eds/bin/gnu/h-i686-mingw32/bin/../lib/gcc/nios2-elf/4.1.2\libgcc.a(_addsub_df.o)
 .debug_abbrev  0x00000ca8      0x204 c:/software/altera/10.1/nios2eds/bin/gnu/h-i686-mingw32/bin/../lib/gcc/nios2-elf/4.1.2\libgcc.a(_mul_df.o)
 .debug_abbrev  0x00000eac      0x151 c:/software/altera/10.1/nios2eds/bin/gnu/h-i686-mingw32/bin/../lib/gcc/nios2-elf/4.1.2\libgcc.a(_gt_df.o)
 .debug_abbrev  0x00000ffd      0x176 c:/software/altera/10.1/nios2eds/bin/gnu/h-i686-mingw32/bin/../lib/gcc/nios2-elf/4.1.2\libgcc.a(_df_to_si.o)
 .debug_abbrev  0x00001173       0xba c:/software/altera/10.1/nios2eds/bin/gnu/h-i686-mingw32/bin/../lib/gcc/nios2-elf/4.1.2\libgcc.a(_thenan_df.o)
 .debug_abbrev  0x0000122d      0x155 c:/software/altera/10.1/nios2eds/bin/gnu/h-i686-mingw32/bin/../lib/gcc/nios2-elf/4.1.2\libgcc.a(_usi_to_df.o)
 .debug_abbrev  0x00001382       0xe0 c:/software/altera/10.1/nios2eds/bin/gnu/h-i686-mingw32/bin/../lib/gcc/nios2-elf/4.1.2\libgcc.a(lib2-divmod.o)
 .debug_abbrev  0x00001462       0x5a c:/software/altera/10.1/nios2eds/bin/gnu/h-i686-mingw32/bin/../lib/gcc/nios2-elf/4.1.2\libgcc.a(lib2-divtable.o)
 .debug_abbrev  0x000014bc       0xee c:/software/altera/10.1/nios2eds/bin/gnu/h-i686-mingw32/bin/../lib/gcc/nios2-elf/4.1.2\libgcc.a(_muldi3.o)
 .debug_abbrev  0x000015aa       0xb9 c:/software/altera/10.1/nios2eds/bin/gnu/h-i686-mingw32/bin/../lib/gcc/nios2-elf/4.1.2\libgcc.a(_clzsi2.o)
 .debug_abbrev  0x00001663      0x1b1 c:/software/altera/10.1/nios2eds/bin/gnu/h-i686-mingw32/bin/../lib/gcc/nios2-elf/4.1.2\libgcc.a(_pack_df.o)
 .debug_abbrev  0x00001814      0x149 c:/software/altera/10.1/nios2eds/bin/gnu/h-i686-mingw32/bin/../lib/gcc/nios2-elf/4.1.2\libgcc.a(_unpack_df.o)
 .debug_abbrev  0x0000195d      0x132 c:/software/altera/10.1/nios2eds/bin/gnu/h-i686-mingw32/bin/../lib/gcc/nios2-elf/4.1.2\libgcc.a(_fpcmp_parts_df.o)
 .debug_abbrev  0x00001a8f       0x61 c:/software/altera/10.1/nios2eds/bin/gnu/h-i686-mingw32/bin/../lib/gcc/nios2-elf/4.1.2\libgcc.a(_clz.o)
 .debug_abbrev  0x00001af0      0x16e c:/software/altera/10.1/nios2eds/bin/gnu/h-i686-mingw32/bin/../lib/gcc/nios2-elf/4.1.2/../../../../nios2-elf/lib\libc.a(lib_a-exit.o)
 .debug_abbrev  0x00001c5e      0x157 c:/software/altera/10.1/nios2eds/bin/gnu/h-i686-mingw32/bin/../lib/gcc/nios2-elf/4.1.2/../../../../nios2-elf/lib\libc.a(lib_a-impure.o)
 .debug_abbrev  0x00001db5       0x3b c:/software/altera/10.1/nios2eds/bin/gnu/h-i686-mingw32/bin/../lib/gcc/nios2-elf/4.1.2/../../../../nios2-elf/lib\libc.a(lib_a-int_errno.o)
 .debug_abbrev  0x00001df0      0x187 c:/software/altera/10.1/nios2eds/bin/gnu/h-i686-mingw32/bin/../lib/gcc/nios2-elf/4.1.2/../../../../nios2-elf/lib\libc.a(lib_a-malloc.o)
 .debug_abbrev  0x00001f77      0x216 c:/software/altera/10.1/nios2eds/bin/gnu/h-i686-mingw32/bin/../lib/gcc/nios2-elf/4.1.2/../../../../nios2-elf/lib\libc.a(lib_a-mallocr.o)
 .debug_abbrev  0x0000218d      0x191 c:/software/altera/10.1/nios2eds/bin/gnu/h-i686-mingw32/bin/../lib/gcc/nios2-elf/4.1.2/../../../../nios2-elf/lib\libc.a(lib_a-printf.o)
 .debug_abbrev  0x0000231e      0x170 c:/software/altera/10.1/nios2eds/bin/gnu/h-i686-mingw32/bin/../lib/gcc/nios2-elf/4.1.2/../../../../nios2-elf/lib\libc.a(lib_a-putchar.o)
 .debug_abbrev  0x0000248e      0x1ac c:/software/altera/10.1/nios2eds/bin/gnu/h-i686-mingw32/bin/../lib/gcc/nios2-elf/4.1.2/../../../../nios2-elf/lib\libc.a(lib_a-puts.o)
 .debug_abbrev  0x0000263a      0x18c c:/software/altera/10.1/nios2eds/bin/gnu/h-i686-mingw32/bin/../lib/gcc/nios2-elf/4.1.2/../../../../nios2-elf/lib\libc.a(lib_a-sbrkr.o)
 .debug_abbrev  0x000027c6       0x8b c:/software/altera/10.1/nios2eds/bin/gnu/h-i686-mingw32/bin/../lib/gcc/nios2-elf/4.1.2/../../../../nios2-elf/lib\libc.a(lib_a-strlen.o)
 .debug_abbrev  0x00002851      0x30a c:/software/altera/10.1/nios2eds/bin/gnu/h-i686-mingw32/bin/../lib/gcc/nios2-elf/4.1.2/../../../../nios2-elf/lib\libc.a(lib_a-vfprintf.o)
 .debug_abbrev  0x00002b5b      0x170 c:/software/altera/10.1/nios2eds/bin/gnu/h-i686-mingw32/bin/../lib/gcc/nios2-elf/4.1.2/../../../../nios2-elf/lib\libc.a(lib_a-wsetup.o)
 .debug_abbrev  0x00002ccb      0x1de c:/software/altera/10.1/nios2eds/bin/gnu/h-i686-mingw32/bin/../lib/gcc/nios2-elf/4.1.2/../../../../nios2-elf/lib\libc.a(lib_a-__call_atexit.o)
 .debug_abbrev  0x00002ea9      0x232 c:/software/altera/10.1/nios2eds/bin/gnu/h-i686-mingw32/bin/../lib/gcc/nios2-elf/4.1.2/../../../../nios2-elf/lib\libc.a(lib_a-dtoa.o)
 .debug_abbrev  0x000030db      0x1c6 c:/software/altera/10.1/nios2eds/bin/gnu/h-i686-mingw32/bin/../lib/gcc/nios2-elf/4.1.2/../../../../nios2-elf/lib\libc.a(lib_a-fflush.o)
 .debug_abbrev  0x000032a1      0x24c c:/software/altera/10.1/nios2eds/bin/gnu/h-i686-mingw32/bin/../lib/gcc/nios2-elf/4.1.2/../../../../nios2-elf/lib\libc.a(lib_a-findfp.o)
 .debug_abbrev  0x000034ed      0x1d9 c:/software/altera/10.1/nios2eds/bin/gnu/h-i686-mingw32/bin/../lib/gcc/nios2-elf/4.1.2/../../../../nios2-elf/lib\libc.a(lib_a-freer.o)
 .debug_abbrev  0x000036c6      0x1a3 c:/software/altera/10.1/nios2eds/bin/gnu/h-i686-mingw32/bin/../lib/gcc/nios2-elf/4.1.2/../../../../nios2-elf/lib\libc.a(lib_a-fvwrite.o)
 .debug_abbrev  0x00003869      0x1e3 c:/software/altera/10.1/nios2eds/bin/gnu/h-i686-mingw32/bin/../lib/gcc/nios2-elf/4.1.2/../../../../nios2-elf/lib\libc.a(lib_a-fwalk.o)
 .debug_abbrev  0x00003a4c      0x1ed c:/software/altera/10.1/nios2eds/bin/gnu/h-i686-mingw32/bin/../lib/gcc/nios2-elf/4.1.2/../../../../nios2-elf/lib\libc.a(lib_a-locale.o)
 .debug_abbrev  0x00003c39      0x197 c:/software/altera/10.1/nios2eds/bin/gnu/h-i686-mingw32/bin/../lib/gcc/nios2-elf/4.1.2/../../../../nios2-elf/lib\libc.a(lib_a-makebuf.o)
 .debug_abbrev  0x00003dd0       0xb5 c:/software/altera/10.1/nios2eds/bin/gnu/h-i686-mingw32/bin/../lib/gcc/nios2-elf/4.1.2/../../../../nios2-elf/lib\libc.a(lib_a-memchr.o)
 .debug_abbrev  0x00003e85       0xb5 c:/software/altera/10.1/nios2eds/bin/gnu/h-i686-mingw32/bin/../lib/gcc/nios2-elf/4.1.2/../../../../nios2-elf/lib\libc.a(lib_a-memcpy.o)
 .debug_abbrev  0x00003f3a       0xb5 c:/software/altera/10.1/nios2eds/bin/gnu/h-i686-mingw32/bin/../lib/gcc/nios2-elf/4.1.2/../../../../nios2-elf/lib\libc.a(lib_a-memmove.o)
 .debug_abbrev  0x00003fef       0xb8 c:/software/altera/10.1/nios2eds/bin/gnu/h-i686-mingw32/bin/../lib/gcc/nios2-elf/4.1.2/../../../../nios2-elf/lib\libc.a(lib_a-memset.o)
 .debug_abbrev  0x000040a7      0x297 c:/software/altera/10.1/nios2eds/bin/gnu/h-i686-mingw32/bin/../lib/gcc/nios2-elf/4.1.2/../../../../nios2-elf/lib\libc.a(lib_a-mprec.o)
 .debug_abbrev  0x0000433e      0x17f c:/software/altera/10.1/nios2eds/bin/gnu/h-i686-mingw32/bin/../lib/gcc/nios2-elf/4.1.2/../../../../nios2-elf/lib\libc.a(lib_a-putc.o)
 .debug_abbrev  0x000044bd      0x1c3 c:/software/altera/10.1/nios2eds/bin/gnu/h-i686-mingw32/bin/../lib/gcc/nios2-elf/4.1.2/../../../../nios2-elf/lib\libc.a(lib_a-reallocr.o)
 .debug_abbrev  0x00004680       0x79 c:/software/altera/10.1/nios2eds/bin/gnu/h-i686-mingw32/bin/../lib/gcc/nios2-elf/4.1.2/../../../../nios2-elf/lib\libc.a(lib_a-s_isinfd.o)
 .debug_abbrev  0x000046f9       0x79 c:/software/altera/10.1/nios2eds/bin/gnu/h-i686-mingw32/bin/../lib/gcc/nios2-elf/4.1.2/../../../../nios2-elf/lib\libc.a(lib_a-s_isnand.o)
 .debug_abbrev  0x00004772      0x1c9 c:/software/altera/10.1/nios2eds/bin/gnu/h-i686-mingw32/bin/../lib/gcc/nios2-elf/4.1.2/../../../../nios2-elf/lib\libc.a(lib_a-stdio.o)
 .debug_abbrev  0x0000493b       0x80 c:/software/altera/10.1/nios2eds/bin/gnu/h-i686-mingw32/bin/../lib/gcc/nios2-elf/4.1.2/../../../../nios2-elf/lib\libc.a(lib_a-strcmp.o)
 .debug_abbrev  0x000049bb      0x198 c:/software/altera/10.1/nios2eds/bin/gnu/h-i686-mingw32/bin/../lib/gcc/nios2-elf/4.1.2/../../../../nios2-elf/lib\libc.a(lib_a-wbuf.o)
 .debug_abbrev  0x00004b53      0x184 c:/software/altera/10.1/nios2eds/bin/gnu/h-i686-mingw32/bin/../lib/gcc/nios2-elf/4.1.2/../../../../nios2-elf/lib\libc.a(lib_a-writer.o)
 .debug_abbrev  0x00004cd7      0x1b8 c:/software/altera/10.1/nios2eds/bin/gnu/h-i686-mingw32/bin/../lib/gcc/nios2-elf/4.1.2/../../../../nios2-elf/lib\libc.a(lib_a-callocr.o)
 .debug_abbrev  0x00004e8f      0x17f c:/software/altera/10.1/nios2eds/bin/gnu/h-i686-mingw32/bin/../lib/gcc/nios2-elf/4.1.2/../../../../nios2-elf/lib\libc.a(lib_a-closer.o)
 .debug_abbrev  0x0000500e      0x1a7 c:/software/altera/10.1/nios2eds/bin/gnu/h-i686-mingw32/bin/../lib/gcc/nios2-elf/4.1.2/../../../../nios2-elf/lib\libc.a(lib_a-fclose.o)
 .debug_abbrev  0x000051b5      0x18e c:/software/altera/10.1/nios2eds/bin/gnu/h-i686-mingw32/bin/../lib/gcc/nios2-elf/4.1.2/../../../../nios2-elf/lib\libc.a(lib_a-fstatr.o)
 .debug_abbrev  0x00005343      0x17f c:/software/altera/10.1/nios2eds/bin/gnu/h-i686-mingw32/bin/../lib/gcc/nios2-elf/4.1.2/../../../../nios2-elf/lib\libc.a(lib_a-isattyr.o)
 .debug_abbrev  0x000054c2      0x18e c:/software/altera/10.1/nios2eds/bin/gnu/h-i686-mingw32/bin/../lib/gcc/nios2-elf/4.1.2/../../../../nios2-elf/lib\libc.a(lib_a-lseekr.o)
 .debug_abbrev  0x00005650      0x17f c:/software/altera/10.1/nios2eds/bin/gnu/h-i686-mingw32/bin/../lib/gcc/nios2-elf/4.1.2/../../../../nios2-elf/lib\libc.a(lib_a-readr.o)
 .debug_abbrev  0x000057cf      0x16b c:/software/altera/10.1/nios2eds/bin/gnu/h-i686-mingw32/bin/../lib/gcc/nios2-elf/4.1.2\libgcc.a(_udivdi3.o)
 .debug_abbrev  0x0000593a      0x18e c:/software/altera/10.1/nios2eds/bin/gnu/h-i686-mingw32/bin/../lib/gcc/nios2-elf/4.1.2\libgcc.a(_umoddi3.o)
 .debug_abbrev  0x00005ac8      0x1e3 c:/software/altera/10.1/nios2eds/bin/gnu/h-i686-mingw32/bin/../lib/gcc/nios2-elf/4.1.2\libgcc.a(_div_df.o)
 .debug_abbrev  0x00005cab      0x151 c:/software/altera/10.1/nios2eds/bin/gnu/h-i686-mingw32/bin/../lib/gcc/nios2-elf/4.1.2\libgcc.a(_eq_df.o)
 .debug_abbrev  0x00005dfc      0x151 c:/software/altera/10.1/nios2eds/bin/gnu/h-i686-mingw32/bin/../lib/gcc/nios2-elf/4.1.2\libgcc.a(_ne_df.o)
 .debug_abbrev  0x00005f4d      0x151 c:/software/altera/10.1/nios2eds/bin/gnu/h-i686-mingw32/bin/../lib/gcc/nios2-elf/4.1.2\libgcc.a(_ge_df.o)
 .debug_abbrev  0x0000609e      0x151 c:/software/altera/10.1/nios2eds/bin/gnu/h-i686-mingw32/bin/../lib/gcc/nios2-elf/4.1.2\libgcc.a(_lt_df.o)
 .debug_abbrev  0x000061ef      0x13f c:/software/altera/10.1/nios2eds/bin/gnu/h-i686-mingw32/bin/../lib/gcc/nios2-elf/4.1.2\libgcc.a(_si_to_df.o)
 .debug_abbrev  0x0000632e       0xfb ../multi_test_1_bsp\libhal_bsp.a(alt_close.o)
 .debug_abbrev  0x00006429       0x57 ../multi_test_1_bsp\libhal_bsp.a(alt_dcache_flush_all.o)
 .debug_abbrev  0x00006480       0xc7 ../multi_test_1_bsp\libhal_bsp.a(alt_dev.o)
 .debug_abbrev  0x00006547       0x5e ../multi_test_1_bsp\libhal_bsp.a(alt_errno.o)
 .debug_abbrev  0x000065a5       0x72 ../multi_test_1_bsp\libhal_bsp.a(alt_exit.o)
 .debug_abbrev  0x00006617       0xfb ../multi_test_1_bsp\libhal_bsp.a(alt_fstat.o)
 .debug_abbrev  0x00006712      0x180 ../multi_test_1_bsp\libhal_bsp.a(alt_irq_register.o)
 .debug_abbrev  0x00006892       0x44 ../multi_test_1_bsp\libhal_bsp.a(alt_irq_vars.o)
 .debug_abbrev  0x000068d6       0xfb ../multi_test_1_bsp\libhal_bsp.a(alt_isatty.o)
 .debug_abbrev  0x000069d1       0x88 ../multi_test_1_bsp\libhal_bsp.a(alt_load.o)
 .debug_abbrev  0x00006a59       0xfb ../multi_test_1_bsp\libhal_bsp.a(alt_lseek.o)
 .debug_abbrev  0x00006b54       0xb7 ../multi_test_1_bsp\libhal_bsp.a(alt_main.o)
 .debug_abbrev  0x00006c0b      0x17f ../multi_test_1_bsp\libhal_bsp.a(alt_malloc_lock.o)
 .debug_abbrev  0x00006d8a       0xfb ../multi_test_1_bsp\libhal_bsp.a(alt_read.o)
 .debug_abbrev  0x00006e85       0xc1 ../multi_test_1_bsp\libhal_bsp.a(alt_release_fd.o)
 .debug_abbrev  0x00006f46      0x115 ../multi_test_1_bsp\libhal_bsp.a(alt_sbrk.o)
 .debug_abbrev  0x0000705b      0x100 ../multi_test_1_bsp\libhal_bsp.a(alt_write.o)
 .debug_abbrev  0x0000715b      0x176 ../multi_test_1_bsp\libhal_bsp.a(alt_sys_init.o)
 .debug_abbrev  0x000072d1       0xf7 ../multi_test_1_bsp\libhal_bsp.a(altera_avalon_jtag_uart_fd.o)
 .debug_abbrev  0x000073c8      0x17c ../multi_test_1_bsp\libhal_bsp.a(altera_avalon_jtag_uart_init.o)
 .debug_abbrev  0x00007544       0xf0 ../multi_test_1_bsp\libhal_bsp.a(altera_avalon_jtag_uart_ioctl.o)
 .debug_abbrev  0x00007634      0x191 ../multi_test_1_bsp\libhal_bsp.a(altera_avalon_jtag_uart_read.o)
 .debug_abbrev  0x000077c5      0x18d ../multi_test_1_bsp\libhal_bsp.a(altera_avalon_jtag_uart_write.o)
 .debug_abbrev  0x00007952      0x172 ../multi_test_1_bsp\libhal_bsp.a(altera_avalon_mailbox.o)
 .debug_abbrev  0x00007ac4      0x15c ../multi_test_1_bsp\libhal_bsp.a(altera_avalon_mutex.o)
 .debug_abbrev  0x00007c20      0x137 ../multi_test_1_bsp\libhal_bsp.a(altera_avalon_timer_sc.o)
 .debug_abbrev  0x00007d57      0x1f9 ../multi_test_1_bsp\libhal_bsp.a(altera_up_sd_card_avalon_interface.o)
 .debug_abbrev  0x00007f50      0x172 ../multi_test_1_bsp\libhal_bsp.a(alt_alarm_start.o)
 .debug_abbrev  0x000080c2       0xf6 ../multi_test_1_bsp\libhal_bsp.a(alt_dev_llist_insert.o)
 .debug_abbrev  0x000081b8       0x74 ../multi_test_1_bsp\libhal_bsp.a(alt_do_ctors.o)
 .debug_abbrev  0x0000822c       0x74 ../multi_test_1_bsp\libhal_bsp.a(alt_do_dtors.o)
 .debug_abbrev  0x000082a0       0xcf ../multi_test_1_bsp\libhal_bsp.a(alt_find_dev.o)
 .debug_abbrev  0x0000836f       0x3f ../multi_test_1_bsp\libhal_bsp.a(alt_icache_flush_all.o)
 .debug_abbrev  0x000083ae      0x134 ../multi_test_1_bsp\libhal_bsp.a(alt_iic.o)
 .debug_abbrev  0x000084e2      0x14e ../multi_test_1_bsp\libhal_bsp.a(alt_iic_isr_register.o)
 .debug_abbrev  0x00008630       0xf0 ../multi_test_1_bsp\libhal_bsp.a(alt_io_redirect.o)
 .debug_abbrev  0x00008720       0x12 ../multi_test_1_bsp\libhal_bsp.a(alt_irq_entry.o)
 .debug_abbrev  0x00008732      0x10c ../multi_test_1_bsp\libhal_bsp.a(alt_irq_handler.o)
 .debug_abbrev  0x0000883e      0x112 ../multi_test_1_bsp\libhal_bsp.a(alt_open.o)
 .debug_abbrev  0x00008950      0x150 ../multi_test_1_bsp\libhal_bsp.a(alt_tick.o)
 .debug_abbrev  0x00008aa0       0x3f ../multi_test_1_bsp\libhal_bsp.a(altera_nios2_irq.o)
 .debug_abbrev  0x00008adf       0x12 ../multi_test_1_bsp\libhal_bsp.a(alt_exception_entry.o)
 .debug_abbrev  0x00008af1       0xcf ../multi_test_1_bsp\libhal_bsp.a(alt_find_file.o)
 .debug_abbrev  0x00008bc0       0xfb ../multi_test_1_bsp\libhal_bsp.a(alt_get_fd.o)
 .debug_abbrev  0x00008cbb       0x7a ../multi_test_1_bsp\libhal_bsp.a(alt_icache_flush.o)
 .debug_abbrev  0x00008d35       0xb7 c:/software/altera/10.1/nios2eds/bin/gnu/h-i686-mingw32/bin/../lib/gcc/nios2-elf/4.1.2/../../../../nios2-elf/lib\libc.a(lib_a-atexit.o)
 .debug_abbrev  0x00008dec       0x7c c:/software/altera/10.1/nios2eds/bin/gnu/h-i686-mingw32/bin/../lib/gcc/nios2-elf/4.1.2/../../../../nios2-elf/lib\libc.a(lib_a-memcmp.o)
 .debug_abbrev  0x00008e68      0x1ae c:/software/altera/10.1/nios2eds/bin/gnu/h-i686-mingw32/bin/../lib/gcc/nios2-elf/4.1.2/../../../../nios2-elf/lib\libc.a(lib_a-__atexit.o)

.debug_line     0x00000000    0x19562
 *(.debug_line)
 .debug_line    0x00000000       0xa9 ../multi_test_1_bsp/obj/HAL/src/crt0.o
 .debug_line    0x000000a9      0x1e2 obj/common/tables.o
 .debug_line    0x0000028b      0x2ee obj/common/util.o
 .debug_line    0x00000579      0x600 obj/decoder/idct.o
 .debug_line    0x00000b79      0x841 obj/decoder/lossless_decode.o
 .debug_line    0x000013ba      0x968 obj/decoder/mjpeg423_decoder.o
 .debug_line    0x00001d22      0x258 obj/decoder/ycbcr_to_rgb.o
 .debug_line    0x00001f7a      0x5f0 obj/hello_world.o
 .debug_line    0x0000256a      0x588 obj/sd_card.o
 .debug_line    0x00002af2      0x2ea c:/software/altera/10.1/nios2eds/bin/gnu/h-i686-mingw32/bin/../lib/gcc/nios2-elf/4.1.2/../../../../nios2-elf/lib\libm.a(lib_a-s_ceil.o)
 .debug_line    0x00002ddc      0x430 c:/software/altera/10.1/nios2eds/bin/gnu/h-i686-mingw32/bin/../lib/gcc/nios2-elf/4.1.2\libgcc.a(_addsub_df.o)
 .debug_line    0x0000320c      0x3e5 c:/software/altera/10.1/nios2eds/bin/gnu/h-i686-mingw32/bin/../lib/gcc/nios2-elf/4.1.2\libgcc.a(_mul_df.o)
 .debug_line    0x000035f1      0x129 c:/software/altera/10.1/nios2eds/bin/gnu/h-i686-mingw32/bin/../lib/gcc/nios2-elf/4.1.2\libgcc.a(_gt_df.o)
 .debug_line    0x0000371a      0x149 c:/software/altera/10.1/nios2eds/bin/gnu/h-i686-mingw32/bin/../lib/gcc/nios2-elf/4.1.2\libgcc.a(_df_to_si.o)
 .debug_line    0x00003863       0x94 c:/software/altera/10.1/nios2eds/bin/gnu/h-i686-mingw32/bin/../lib/gcc/nios2-elf/4.1.2\libgcc.a(_thenan_df.o)
 .debug_line    0x000038f7      0x189 c:/software/altera/10.1/nios2eds/bin/gnu/h-i686-mingw32/bin/../lib/gcc/nios2-elf/4.1.2\libgcc.a(_usi_to_df.o)
 .debug_line    0x00003a80      0x24f c:/software/altera/10.1/nios2eds/bin/gnu/h-i686-mingw32/bin/../lib/gcc/nios2-elf/4.1.2\libgcc.a(lib2-divmod.o)
 .debug_line    0x00003ccf       0xbd c:/software/altera/10.1/nios2eds/bin/gnu/h-i686-mingw32/bin/../lib/gcc/nios2-elf/4.1.2\libgcc.a(lib2-divtable.o)
 .debug_line    0x00003d8c      0x11f c:/software/altera/10.1/nios2eds/bin/gnu/h-i686-mingw32/bin/../lib/gcc/nios2-elf/4.1.2\libgcc.a(_muldi3.o)
 .debug_line    0x00003eab      0x105 c:/software/altera/10.1/nios2eds/bin/gnu/h-i686-mingw32/bin/../lib/gcc/nios2-elf/4.1.2\libgcc.a(_clzsi2.o)
 .debug_line    0x00003fb0      0x222 c:/software/altera/10.1/nios2eds/bin/gnu/h-i686-mingw32/bin/../lib/gcc/nios2-elf/4.1.2\libgcc.a(_pack_df.o)
 .debug_line    0x000041d2      0x1e4 c:/software/altera/10.1/nios2eds/bin/gnu/h-i686-mingw32/bin/../lib/gcc/nios2-elf/4.1.2\libgcc.a(_unpack_df.o)
 .debug_line    0x000043b6      0x187 c:/software/altera/10.1/nios2eds/bin/gnu/h-i686-mingw32/bin/../lib/gcc/nios2-elf/4.1.2\libgcc.a(_fpcmp_parts_df.o)
 .debug_line    0x0000453d       0xaa c:/software/altera/10.1/nios2eds/bin/gnu/h-i686-mingw32/bin/../lib/gcc/nios2-elf/4.1.2\libgcc.a(_clz.o)
 .debug_line    0x000045e7      0x212 c:/software/altera/10.1/nios2eds/bin/gnu/h-i686-mingw32/bin/../lib/gcc/nios2-elf/4.1.2/../../../../nios2-elf/lib\libc.a(lib_a-exit.o)
 .debug_line    0x000047f9      0x1f4 c:/software/altera/10.1/nios2eds/bin/gnu/h-i686-mingw32/bin/../lib/gcc/nios2-elf/4.1.2/../../../../nios2-elf/lib\libc.a(lib_a-impure.o)
 .debug_line    0x000049ed      0x1b9 c:/software/altera/10.1/nios2eds/bin/gnu/h-i686-mingw32/bin/../lib/gcc/nios2-elf/4.1.2/../../../../nios2-elf/lib\libc.a(lib_a-int_errno.o)
 .debug_line    0x00004ba6      0x225 c:/software/altera/10.1/nios2eds/bin/gnu/h-i686-mingw32/bin/../lib/gcc/nios2-elf/4.1.2/../../../../nios2-elf/lib\libc.a(lib_a-malloc.o)
 .debug_line    0x00004dcb      0x7e4 c:/software/altera/10.1/nios2eds/bin/gnu/h-i686-mingw32/bin/../lib/gcc/nios2-elf/4.1.2/../../../../nios2-elf/lib\libc.a(lib_a-mallocr.o)
 .debug_line    0x000055af      0x275 c:/software/altera/10.1/nios2eds/bin/gnu/h-i686-mingw32/bin/../lib/gcc/nios2-elf/4.1.2/../../../../nios2-elf/lib\libc.a(lib_a-printf.o)
 .debug_line    0x00005824      0x23e c:/software/altera/10.1/nios2eds/bin/gnu/h-i686-mingw32/bin/../lib/gcc/nios2-elf/4.1.2/../../../../nios2-elf/lib\libc.a(lib_a-putchar.o)
 .debug_line    0x00005a62      0x2d1 c:/software/altera/10.1/nios2eds/bin/gnu/h-i686-mingw32/bin/../lib/gcc/nios2-elf/4.1.2/../../../../nios2-elf/lib\libc.a(lib_a-puts.o)
 .debug_line    0x00005d33      0x260 c:/software/altera/10.1/nios2eds/bin/gnu/h-i686-mingw32/bin/../lib/gcc/nios2-elf/4.1.2/../../../../nios2-elf/lib\libc.a(lib_a-sbrkr.o)
 .debug_line    0x00005f93      0x234 c:/software/altera/10.1/nios2eds/bin/gnu/h-i686-mingw32/bin/../lib/gcc/nios2-elf/4.1.2/../../../../nios2-elf/lib\libc.a(lib_a-strlen.o)
 .debug_line    0x000061c7     0x10e6 c:/software/altera/10.1/nios2eds/bin/gnu/h-i686-mingw32/bin/../lib/gcc/nios2-elf/4.1.2/../../../../nios2-elf/lib\libc.a(lib_a-vfprintf.o)
 .debug_line    0x000072ad      0x2ca c:/software/altera/10.1/nios2eds/bin/gnu/h-i686-mingw32/bin/../lib/gcc/nios2-elf/4.1.2/../../../../nios2-elf/lib\libc.a(lib_a-wsetup.o)
 .debug_line    0x00007577      0x341 c:/software/altera/10.1/nios2eds/bin/gnu/h-i686-mingw32/bin/../lib/gcc/nios2-elf/4.1.2/../../../../nios2-elf/lib\libc.a(lib_a-__call_atexit.o)
 .debug_line    0x000078b8     0x12a0 c:/software/altera/10.1/nios2eds/bin/gnu/h-i686-mingw32/bin/../lib/gcc/nios2-elf/4.1.2/../../../../nios2-elf/lib\libc.a(lib_a-dtoa.o)
 .debug_line    0x00008b58      0x3e7 c:/software/altera/10.1/nios2eds/bin/gnu/h-i686-mingw32/bin/../lib/gcc/nios2-elf/4.1.2/../../../../nios2-elf/lib\libc.a(lib_a-fflush.o)
 .debug_line    0x00008f3f      0x5db c:/software/altera/10.1/nios2eds/bin/gnu/h-i686-mingw32/bin/../lib/gcc/nios2-elf/4.1.2/../../../../nios2-elf/lib\libc.a(lib_a-findfp.o)
 .debug_line    0x0000951a      0x5c5 c:/software/altera/10.1/nios2eds/bin/gnu/h-i686-mingw32/bin/../lib/gcc/nios2-elf/4.1.2/../../../../nios2-elf/lib\libc.a(lib_a-freer.o)
 .debug_line    0x00009adf      0x61b c:/software/altera/10.1/nios2eds/bin/gnu/h-i686-mingw32/bin/../lib/gcc/nios2-elf/4.1.2/../../../../nios2-elf/lib\libc.a(lib_a-fvwrite.o)
 .debug_line    0x0000a0fa      0x324 c:/software/altera/10.1/nios2eds/bin/gnu/h-i686-mingw32/bin/../lib/gcc/nios2-elf/4.1.2/../../../../nios2-elf/lib\libc.a(lib_a-fwalk.o)
 .debug_line    0x0000a41e      0x2a2 c:/software/altera/10.1/nios2eds/bin/gnu/h-i686-mingw32/bin/../lib/gcc/nios2-elf/4.1.2/../../../../nios2-elf/lib\libc.a(lib_a-locale.o)
 .debug_line    0x0000a6c0      0x39d c:/software/altera/10.1/nios2eds/bin/gnu/h-i686-mingw32/bin/../lib/gcc/nios2-elf/4.1.2/../../../../nios2-elf/lib\libc.a(lib_a-makebuf.o)
 .debug_line    0x0000aa5d      0x2ca c:/software/altera/10.1/nios2eds/bin/gnu/h-i686-mingw32/bin/../lib/gcc/nios2-elf/4.1.2/../../../../nios2-elf/lib\libc.a(lib_a-memchr.o)
 .debug_line    0x0000ad27      0x199 c:/software/altera/10.1/nios2eds/bin/gnu/h-i686-mingw32/bin/../lib/gcc/nios2-elf/4.1.2/../../../../nios2-elf/lib\libc.a(lib_a-memcpy.o)
 .debug_line    0x0000aec0      0x2d1 c:/software/altera/10.1/nios2eds/bin/gnu/h-i686-mingw32/bin/../lib/gcc/nios2-elf/4.1.2/../../../../nios2-elf/lib\libc.a(lib_a-memmove.o)
 .debug_line    0x0000b191      0x2c8 c:/software/altera/10.1/nios2eds/bin/gnu/h-i686-mingw32/bin/../lib/gcc/nios2-elf/4.1.2/../../../../nios2-elf/lib\libc.a(lib_a-memset.o)
 .debug_line    0x0000b459     0x121d c:/software/altera/10.1/nios2eds/bin/gnu/h-i686-mingw32/bin/../lib/gcc/nios2-elf/4.1.2/../../../../nios2-elf/lib\libc.a(lib_a-mprec.o)
 .debug_line    0x0000c676      0x29e c:/software/altera/10.1/nios2eds/bin/gnu/h-i686-mingw32/bin/../lib/gcc/nios2-elf/4.1.2/../../../../nios2-elf/lib\libc.a(lib_a-putc.o)
 .debug_line    0x0000c914      0x564 c:/software/altera/10.1/nios2eds/bin/gnu/h-i686-mingw32/bin/../lib/gcc/nios2-elf/4.1.2/../../../../nios2-elf/lib\libc.a(lib_a-reallocr.o)
 .debug_line    0x0000ce78      0x1fc c:/software/altera/10.1/nios2eds/bin/gnu/h-i686-mingw32/bin/../lib/gcc/nios2-elf/4.1.2/../../../../nios2-elf/lib\libc.a(lib_a-s_isinfd.o)
 .debug_line    0x0000d074      0x1f4 c:/software/altera/10.1/nios2eds/bin/gnu/h-i686-mingw32/bin/../lib/gcc/nios2-elf/4.1.2/../../../../nios2-elf/lib\libc.a(lib_a-s_isnand.o)
 .debug_line    0x0000d268      0x366 c:/software/altera/10.1/nios2eds/bin/gnu/h-i686-mingw32/bin/../lib/gcc/nios2-elf/4.1.2/../../../../nios2-elf/lib\libc.a(lib_a-stdio.o)
 .debug_line    0x0000d5ce      0x29c c:/software/altera/10.1/nios2eds/bin/gnu/h-i686-mingw32/bin/../lib/gcc/nios2-elf/4.1.2/../../../../nios2-elf/lib\libc.a(lib_a-strcmp.o)
 .debug_line    0x0000d86a      0x32a c:/software/altera/10.1/nios2eds/bin/gnu/h-i686-mingw32/bin/../lib/gcc/nios2-elf/4.1.2/../../../../nios2-elf/lib\libc.a(lib_a-wbuf.o)
 .debug_line    0x0000db94      0x261 c:/software/altera/10.1/nios2eds/bin/gnu/h-i686-mingw32/bin/../lib/gcc/nios2-elf/4.1.2/../../../../nios2-elf/lib\libc.a(lib_a-writer.o)
 .debug_line    0x0000ddf5      0x236 c:/software/altera/10.1/nios2eds/bin/gnu/h-i686-mingw32/bin/../lib/gcc/nios2-elf/4.1.2/../../../../nios2-elf/lib\libc.a(lib_a-callocr.o)
 .debug_line    0x0000e02b      0x261 c:/software/altera/10.1/nios2eds/bin/gnu/h-i686-mingw32/bin/../lib/gcc/nios2-elf/4.1.2/../../../../nios2-elf/lib\libc.a(lib_a-closer.o)
 .debug_line    0x0000e28c      0x2c2 c:/software/altera/10.1/nios2eds/bin/gnu/h-i686-mingw32/bin/../lib/gcc/nios2-elf/4.1.2/../../../../nios2-elf/lib\libc.a(lib_a-fclose.o)
 .debug_line    0x0000e54e      0x23e c:/software/altera/10.1/nios2eds/bin/gnu/h-i686-mingw32/bin/../lib/gcc/nios2-elf/4.1.2/../../../../nios2-elf/lib\libc.a(lib_a-fstatr.o)
 .debug_line    0x0000e78c      0x262 c:/software/altera/10.1/nios2eds/bin/gnu/h-i686-mingw32/bin/../lib/gcc/nios2-elf/4.1.2/../../../../nios2-elf/lib\libc.a(lib_a-isattyr.o)
 .debug_line    0x0000e9ee      0x261 c:/software/altera/10.1/nios2eds/bin/gnu/h-i686-mingw32/bin/../lib/gcc/nios2-elf/4.1.2/../../../../nios2-elf/lib\libc.a(lib_a-lseekr.o)
 .debug_line    0x0000ec4f      0x260 c:/software/altera/10.1/nios2eds/bin/gnu/h-i686-mingw32/bin/../lib/gcc/nios2-elf/4.1.2/../../../../nios2-elf/lib\libc.a(lib_a-readr.o)
 .debug_line    0x0000eeaf      0x2f2 c:/software/altera/10.1/nios2eds/bin/gnu/h-i686-mingw32/bin/../lib/gcc/nios2-elf/4.1.2\libgcc.a(_udivdi3.o)
 .debug_line    0x0000f1a1      0x37d c:/software/altera/10.1/nios2eds/bin/gnu/h-i686-mingw32/bin/../lib/gcc/nios2-elf/4.1.2\libgcc.a(_umoddi3.o)
 .debug_line    0x0000f51e      0x301 c:/software/altera/10.1/nios2eds/bin/gnu/h-i686-mingw32/bin/../lib/gcc/nios2-elf/4.1.2\libgcc.a(_div_df.o)
 .debug_line    0x0000f81f      0x129 c:/software/altera/10.1/nios2eds/bin/gnu/h-i686-mingw32/bin/../lib/gcc/nios2-elf/4.1.2\libgcc.a(_eq_df.o)
 .debug_line    0x0000f948      0x129 c:/software/altera/10.1/nios2eds/bin/gnu/h-i686-mingw32/bin/../lib/gcc/nios2-elf/4.1.2\libgcc.a(_ne_df.o)
 .debug_line    0x0000fa71      0x129 c:/software/altera/10.1/nios2eds/bin/gnu/h-i686-mingw32/bin/../lib/gcc/nios2-elf/4.1.2\libgcc.a(_ge_df.o)
 .debug_line    0x0000fb9a      0x129 c:/software/altera/10.1/nios2eds/bin/gnu/h-i686-mingw32/bin/../lib/gcc/nios2-elf/4.1.2\libgcc.a(_lt_df.o)
 .debug_line    0x0000fcc3      0x175 c:/software/altera/10.1/nios2eds/bin/gnu/h-i686-mingw32/bin/../lib/gcc/nios2-elf/4.1.2\libgcc.a(_si_to_df.o)
 .debug_line    0x0000fe38      0x2dc ../multi_test_1_bsp\libhal_bsp.a(alt_close.o)
 .debug_line    0x00010114      0x210 ../multi_test_1_bsp\libhal_bsp.a(alt_dcache_flush_all.o)
 .debug_line    0x00010324      0x297 ../multi_test_1_bsp\libhal_bsp.a(alt_dev.o)
 .debug_line    0x000105bb      0x1ed ../multi_test_1_bsp\libhal_bsp.a(alt_errno.o)
 .debug_line    0x000107a8      0x249 ../multi_test_1_bsp\libhal_bsp.a(alt_exit.o)
 .debug_line    0x000109f1      0x2e4 ../multi_test_1_bsp\libhal_bsp.a(alt_fstat.o)
 .debug_line    0x00010cd5      0x346 ../multi_test_1_bsp\libhal_bsp.a(alt_irq_register.o)
 .debug_line    0x0001101b       0xa9 ../multi_test_1_bsp\libhal_bsp.a(alt_irq_vars.o)
 .debug_line    0x000110c4      0x2e5 ../multi_test_1_bsp\libhal_bsp.a(alt_isatty.o)
 .debug_line    0x000113a9      0x25a ../multi_test_1_bsp\libhal_bsp.a(alt_load.o)
 .debug_line    0x00011603      0x2e4 ../multi_test_1_bsp\libhal_bsp.a(alt_lseek.o)
 .debug_line    0x000118e7      0x30d ../multi_test_1_bsp\libhal_bsp.a(alt_main.o)
 .debug_line    0x00011bf4      0x258 ../multi_test_1_bsp\libhal_bsp.a(alt_malloc_lock.o)
 .debug_line    0x00011e4c      0x30b ../multi_test_1_bsp\libhal_bsp.a(alt_read.o)
 .debug_line    0x00012157      0x124 ../multi_test_1_bsp\libhal_bsp.a(alt_release_fd.o)
 .debug_line    0x0001227b      0x2a4 ../multi_test_1_bsp\libhal_bsp.a(alt_sbrk.o)
 .debug_line    0x0001251f      0x30c ../multi_test_1_bsp\libhal_bsp.a(alt_write.o)
 .debug_line    0x0001282b      0x38d ../multi_test_1_bsp\libhal_bsp.a(alt_sys_init.o)
 .debug_line    0x00012bb8      0x254 ../multi_test_1_bsp\libhal_bsp.a(altera_avalon_jtag_uart_fd.o)
 .debug_line    0x00012e0c      0x4ee ../multi_test_1_bsp\libhal_bsp.a(altera_avalon_jtag_uart_init.o)
 .debug_line    0x000132fa      0x35a ../multi_test_1_bsp\libhal_bsp.a(altera_avalon_jtag_uart_ioctl.o)
 .debug_line    0x00013654      0x43a ../multi_test_1_bsp\libhal_bsp.a(altera_avalon_jtag_uart_read.o)
 .debug_line    0x00013a8e      0x448 ../multi_test_1_bsp\libhal_bsp.a(altera_avalon_jtag_uart_write.o)
 .debug_line    0x00013ed6      0x555 ../multi_test_1_bsp\libhal_bsp.a(altera_avalon_mailbox.o)
 .debug_line    0x0001442b      0x424 ../multi_test_1_bsp\libhal_bsp.a(altera_avalon_mutex.o)
 .debug_line    0x0001484f      0x2f6 ../multi_test_1_bsp\libhal_bsp.a(altera_avalon_timer_sc.o)
 .debug_line    0x00014b45     0x1a33 ../multi_test_1_bsp\libhal_bsp.a(altera_up_sd_card_avalon_interface.o)
 .debug_line    0x00016578      0x31f ../multi_test_1_bsp\libhal_bsp.a(alt_alarm_start.o)
 .debug_line    0x00016897      0x29d ../multi_test_1_bsp\libhal_bsp.a(alt_dev_llist_insert.o)
 .debug_line    0x00016b34       0xba ../multi_test_1_bsp\libhal_bsp.a(alt_do_ctors.o)
 .debug_line    0x00016bee       0xba ../multi_test_1_bsp\libhal_bsp.a(alt_do_dtors.o)
 .debug_line    0x00016ca8      0x2ae ../multi_test_1_bsp\libhal_bsp.a(alt_find_dev.o)
 .debug_line    0x00016f56      0x200 ../multi_test_1_bsp\libhal_bsp.a(alt_icache_flush_all.o)
 .debug_line    0x00017156      0x30b ../multi_test_1_bsp\libhal_bsp.a(alt_iic.o)
 .debug_line    0x00017461      0x28c ../multi_test_1_bsp\libhal_bsp.a(alt_iic_isr_register.o)
 .debug_line    0x000176ed      0x2f7 ../multi_test_1_bsp\libhal_bsp.a(alt_io_redirect.o)
 .debug_line    0x000179e4       0xa2 ../multi_test_1_bsp\libhal_bsp.a(alt_irq_entry.o)
 .debug_line    0x00017a86      0x28b ../multi_test_1_bsp\libhal_bsp.a(alt_irq_handler.o)
 .debug_line    0x00017d11      0x342 ../multi_test_1_bsp\libhal_bsp.a(alt_open.o)
 .debug_line    0x00018053      0x31f ../multi_test_1_bsp\libhal_bsp.a(alt_tick.o)
 .debug_line    0x00018372      0x20c ../multi_test_1_bsp\libhal_bsp.a(altera_nios2_irq.o)
 .debug_line    0x0001857e       0xe2 ../multi_test_1_bsp\libhal_bsp.a(alt_exception_entry.o)
 .debug_line    0x00018660      0x2bf ../multi_test_1_bsp\libhal_bsp.a(alt_find_file.o)
 .debug_line    0x0001891f      0x2da ../multi_test_1_bsp\libhal_bsp.a(alt_get_fd.o)
 .debug_line    0x00018bf9      0x23c ../multi_test_1_bsp\libhal_bsp.a(alt_icache_flush.o)
 .debug_line    0x00018e35      0x1da c:/software/altera/10.1/nios2eds/bin/gnu/h-i686-mingw32/bin/../lib/gcc/nios2-elf/4.1.2/../../../../nios2-elf/lib\libc.a(lib_a-atexit.o)
 .debug_line    0x0001900f      0x266 c:/software/altera/10.1/nios2eds/bin/gnu/h-i686-mingw32/bin/../lib/gcc/nios2-elf/4.1.2/../../../../nios2-elf/lib\libc.a(lib_a-memcmp.o)
 .debug_line    0x00019275      0x2ed c:/software/altera/10.1/nios2eds/bin/gnu/h-i686-mingw32/bin/../lib/gcc/nios2-elf/4.1.2/../../../../nios2-elf/lib\libc.a(lib_a-__atexit.o)

.debug_frame    0x00000000     0x2154
 *(.debug_frame)
 .debug_frame   0x00000000       0x7c obj/common/util.o
 .debug_frame   0x0000007c       0x20 obj/decoder/idct.o
 .debug_frame   0x0000009c       0x68 obj/decoder/lossless_decode.o
 .debug_frame   0x00000104       0x38 obj/decoder/mjpeg423_decoder.o
 .debug_frame   0x0000013c       0x20 obj/decoder/ycbcr_to_rgb.o
 .debug_frame   0x0000015c       0x64 obj/hello_world.o
 .debug_frame   0x000001c0       0x94 obj/sd_card.o
 .debug_frame   0x00000254       0x3c c:/software/altera/10.1/nios2eds/bin/gnu/h-i686-mingw32/bin/../lib/gcc/nios2-elf/4.1.2/../../../../nios2-elf/lib\libm.a(lib_a-s_ceil.o)
 .debug_frame   0x00000290       0x70 c:/software/altera/10.1/nios2eds/bin/gnu/h-i686-mingw32/bin/../lib/gcc/nios2-elf/4.1.2\libgcc.a(_addsub_df.o)
 .debug_frame   0x00000300       0x3c c:/software/altera/10.1/nios2eds/bin/gnu/h-i686-mingw32/bin/../lib/gcc/nios2-elf/4.1.2\libgcc.a(_mul_df.o)
 .debug_frame   0x0000033c       0x2c c:/software/altera/10.1/nios2eds/bin/gnu/h-i686-mingw32/bin/../lib/gcc/nios2-elf/4.1.2\libgcc.a(_gt_df.o)
 .debug_frame   0x00000368       0x28 c:/software/altera/10.1/nios2eds/bin/gnu/h-i686-mingw32/bin/../lib/gcc/nios2-elf/4.1.2\libgcc.a(_df_to_si.o)
 .debug_frame   0x00000390       0x38 c:/software/altera/10.1/nios2eds/bin/gnu/h-i686-mingw32/bin/../lib/gcc/nios2-elf/4.1.2\libgcc.a(_usi_to_df.o)
 .debug_frame   0x000003c8       0x70 c:/software/altera/10.1/nios2eds/bin/gnu/h-i686-mingw32/bin/../lib/gcc/nios2-elf/4.1.2\libgcc.a(lib2-divmod.o)
 .debug_frame   0x00000438       0x2c c:/software/altera/10.1/nios2eds/bin/gnu/h-i686-mingw32/bin/../lib/gcc/nios2-elf/4.1.2\libgcc.a(_muldi3.o)
 .debug_frame   0x00000464       0x20 c:/software/altera/10.1/nios2eds/bin/gnu/h-i686-mingw32/bin/../lib/gcc/nios2-elf/4.1.2\libgcc.a(_clzsi2.o)
 .debug_frame   0x00000484       0x2c c:/software/altera/10.1/nios2eds/bin/gnu/h-i686-mingw32/bin/../lib/gcc/nios2-elf/4.1.2\libgcc.a(_pack_df.o)
 .debug_frame   0x000004b0       0x20 c:/software/altera/10.1/nios2eds/bin/gnu/h-i686-mingw32/bin/../lib/gcc/nios2-elf/4.1.2\libgcc.a(_unpack_df.o)
 .debug_frame   0x000004d0       0x20 c:/software/altera/10.1/nios2eds/bin/gnu/h-i686-mingw32/bin/../lib/gcc/nios2-elf/4.1.2\libgcc.a(_fpcmp_parts_df.o)
 .debug_frame   0x000004f0       0x28 c:/software/altera/10.1/nios2eds/bin/gnu/h-i686-mingw32/bin/../lib/gcc/nios2-elf/4.1.2/../../../../nios2-elf/lib\libc.a(lib_a-exit.o)
 .debug_frame   0x00000518       0x30 c:/software/altera/10.1/nios2eds/bin/gnu/h-i686-mingw32/bin/../lib/gcc/nios2-elf/4.1.2/../../../../nios2-elf/lib\libc.a(lib_a-malloc.o)
 .debug_frame   0x00000548       0x38 c:/software/altera/10.1/nios2eds/bin/gnu/h-i686-mingw32/bin/../lib/gcc/nios2-elf/4.1.2/../../../../nios2-elf/lib\libc.a(lib_a-mallocr.o)
 .debug_frame   0x00000580       0x40 c:/software/altera/10.1/nios2eds/bin/gnu/h-i686-mingw32/bin/../lib/gcc/nios2-elf/4.1.2/../../../../nios2-elf/lib\libc.a(lib_a-printf.o)
 .debug_frame   0x000005c0       0x30 c:/software/altera/10.1/nios2eds/bin/gnu/h-i686-mingw32/bin/../lib/gcc/nios2-elf/4.1.2/../../../../nios2-elf/lib\libc.a(lib_a-putchar.o)
 .debug_frame   0x000005f0       0x3c c:/software/altera/10.1/nios2eds/bin/gnu/h-i686-mingw32/bin/../lib/gcc/nios2-elf/4.1.2/../../../../nios2-elf/lib\libc.a(lib_a-puts.o)
 .debug_frame   0x0000062c       0x2c c:/software/altera/10.1/nios2eds/bin/gnu/h-i686-mingw32/bin/../lib/gcc/nios2-elf/4.1.2/../../../../nios2-elf/lib\libc.a(lib_a-sbrkr.o)
 .debug_frame   0x00000658       0x20 c:/software/altera/10.1/nios2eds/bin/gnu/h-i686-mingw32/bin/../lib/gcc/nios2-elf/4.1.2/../../../../nios2-elf/lib\libc.a(lib_a-strlen.o)
 .debug_frame   0x00000678       0x64 c:/software/altera/10.1/nios2eds/bin/gnu/h-i686-mingw32/bin/../lib/gcc/nios2-elf/4.1.2/../../../../nios2-elf/lib\libc.a(lib_a-vfprintf.o)
 .debug_frame   0x000006dc       0x2c c:/software/altera/10.1/nios2eds/bin/gnu/h-i686-mingw32/bin/../lib/gcc/nios2-elf/4.1.2/../../../../nios2-elf/lib\libc.a(lib_a-wsetup.o)
 .debug_frame   0x00000708       0x4c c:/software/altera/10.1/nios2eds/bin/gnu/h-i686-mingw32/bin/../lib/gcc/nios2-elf/4.1.2/../../../../nios2-elf/lib\libc.a(lib_a-__call_atexit.o)
 .debug_frame   0x00000754       0x64 c:/software/altera/10.1/nios2eds/bin/gnu/h-i686-mingw32/bin/../lib/gcc/nios2-elf/4.1.2/../../../../nios2-elf/lib\libc.a(lib_a-dtoa.o)
 .debug_frame   0x000007b8       0x40 c:/software/altera/10.1/nios2eds/bin/gnu/h-i686-mingw32/bin/../lib/gcc/nios2-elf/4.1.2/../../../../nios2-elf/lib\libc.a(lib_a-fflush.o)
 .debug_frame   0x000007f8      0x118 c:/software/altera/10.1/nios2eds/bin/gnu/h-i686-mingw32/bin/../lib/gcc/nios2-elf/4.1.2/../../../../nios2-elf/lib\libc.a(lib_a-findfp.o)
 .debug_frame   0x00000910       0x4c c:/software/altera/10.1/nios2eds/bin/gnu/h-i686-mingw32/bin/../lib/gcc/nios2-elf/4.1.2/../../../../nios2-elf/lib\libc.a(lib_a-freer.o)
 .debug_frame   0x0000095c       0x38 c:/software/altera/10.1/nios2eds/bin/gnu/h-i686-mingw32/bin/../lib/gcc/nios2-elf/4.1.2/../../../../nios2-elf/lib\libc.a(lib_a-fvwrite.o)
 .debug_frame   0x00000994       0x60 c:/software/altera/10.1/nios2eds/bin/gnu/h-i686-mingw32/bin/../lib/gcc/nios2-elf/4.1.2/../../../../nios2-elf/lib\libc.a(lib_a-fwalk.o)
 .debug_frame   0x000009f4       0x70 c:/software/altera/10.1/nios2eds/bin/gnu/h-i686-mingw32/bin/../lib/gcc/nios2-elf/4.1.2/../../../../nios2-elf/lib\libc.a(lib_a-locale.o)
 .debug_frame   0x00000a64       0x2c c:/software/altera/10.1/nios2eds/bin/gnu/h-i686-mingw32/bin/../lib/gcc/nios2-elf/4.1.2/../../../../nios2-elf/lib\libc.a(lib_a-makebuf.o)
 .debug_frame   0x00000a90       0x20 c:/software/altera/10.1/nios2eds/bin/gnu/h-i686-mingw32/bin/../lib/gcc/nios2-elf/4.1.2/../../../../nios2-elf/lib\libc.a(lib_a-memchr.o)
 .debug_frame   0x00000ab0       0x20 c:/software/altera/10.1/nios2eds/bin/gnu/h-i686-mingw32/bin/../lib/gcc/nios2-elf/4.1.2/../../../../nios2-elf/lib\libc.a(lib_a-memcpy.o)
 .debug_frame   0x00000ad0       0x20 c:/software/altera/10.1/nios2eds/bin/gnu/h-i686-mingw32/bin/../lib/gcc/nios2-elf/4.1.2/../../../../nios2-elf/lib\libc.a(lib_a-memmove.o)
 .debug_frame   0x00000af0       0x20 c:/software/altera/10.1/nios2eds/bin/gnu/h-i686-mingw32/bin/../lib/gcc/nios2-elf/4.1.2/../../../../nios2-elf/lib\libc.a(lib_a-memset.o)
 .debug_frame   0x00000b10      0x218 c:/software/altera/10.1/nios2eds/bin/gnu/h-i686-mingw32/bin/../lib/gcc/nios2-elf/4.1.2/../../../../nios2-elf/lib\libc.a(lib_a-mprec.o)
 .debug_frame   0x00000d28       0x4c c:/software/altera/10.1/nios2eds/bin/gnu/h-i686-mingw32/bin/../lib/gcc/nios2-elf/4.1.2/../../../../nios2-elf/lib\libc.a(lib_a-putc.o)
 .debug_frame   0x00000d74       0x38 c:/software/altera/10.1/nios2eds/bin/gnu/h-i686-mingw32/bin/../lib/gcc/nios2-elf/4.1.2/../../../../nios2-elf/lib\libc.a(lib_a-reallocr.o)
 .debug_frame   0x00000dac       0x20 c:/software/altera/10.1/nios2eds/bin/gnu/h-i686-mingw32/bin/../lib/gcc/nios2-elf/4.1.2/../../../../nios2-elf/lib\libc.a(lib_a-s_isinfd.o)
 .debug_frame   0x00000dcc       0x20 c:/software/altera/10.1/nios2eds/bin/gnu/h-i686-mingw32/bin/../lib/gcc/nios2-elf/4.1.2/../../../../nios2-elf/lib\libc.a(lib_a-s_isnand.o)
 .debug_frame   0x00000dec       0x78 c:/software/altera/10.1/nios2eds/bin/gnu/h-i686-mingw32/bin/../lib/gcc/nios2-elf/4.1.2/../../../../nios2-elf/lib\libc.a(lib_a-stdio.o)
 .debug_frame   0x00000e64       0x20 c:/software/altera/10.1/nios2eds/bin/gnu/h-i686-mingw32/bin/../lib/gcc/nios2-elf/4.1.2/../../../../nios2-elf/lib\libc.a(lib_a-strcmp.o)
 .debug_frame   0x00000e84       0x3c c:/software/altera/10.1/nios2eds/bin/gnu/h-i686-mingw32/bin/../lib/gcc/nios2-elf/4.1.2/../../../../nios2-elf/lib\libc.a(lib_a-wbuf.o)
 .debug_frame   0x00000ec0       0x2c c:/software/altera/10.1/nios2eds/bin/gnu/h-i686-mingw32/bin/../lib/gcc/nios2-elf/4.1.2/../../../../nios2-elf/lib\libc.a(lib_a-writer.o)
 .debug_frame   0x00000eec       0x28 c:/software/altera/10.1/nios2eds/bin/gnu/h-i686-mingw32/bin/../lib/gcc/nios2-elf/4.1.2/../../../../nios2-elf/lib\libc.a(lib_a-callocr.o)
 .debug_frame   0x00000f14       0x2c c:/software/altera/10.1/nios2eds/bin/gnu/h-i686-mingw32/bin/../lib/gcc/nios2-elf/4.1.2/../../../../nios2-elf/lib\libc.a(lib_a-closer.o)
 .debug_frame   0x00000f40       0x3c c:/software/altera/10.1/nios2eds/bin/gnu/h-i686-mingw32/bin/../lib/gcc/nios2-elf/4.1.2/../../../../nios2-elf/lib\libc.a(lib_a-fclose.o)
 .debug_frame   0x00000f7c       0x2c c:/software/altera/10.1/nios2eds/bin/gnu/h-i686-mingw32/bin/../lib/gcc/nios2-elf/4.1.2/../../../../nios2-elf/lib\libc.a(lib_a-fstatr.o)
 .debug_frame   0x00000fa8       0x2c c:/software/altera/10.1/nios2eds/bin/gnu/h-i686-mingw32/bin/../lib/gcc/nios2-elf/4.1.2/../../../../nios2-elf/lib\libc.a(lib_a-isattyr.o)
 .debug_frame   0x00000fd4       0x2c c:/software/altera/10.1/nios2eds/bin/gnu/h-i686-mingw32/bin/../lib/gcc/nios2-elf/4.1.2/../../../../nios2-elf/lib\libc.a(lib_a-lseekr.o)
 .debug_frame   0x00001000       0x2c c:/software/altera/10.1/nios2eds/bin/gnu/h-i686-mingw32/bin/../lib/gcc/nios2-elf/4.1.2/../../../../nios2-elf/lib\libc.a(lib_a-readr.o)
 .debug_frame   0x0000102c       0x38 c:/software/altera/10.1/nios2eds/bin/gnu/h-i686-mingw32/bin/../lib/gcc/nios2-elf/4.1.2\libgcc.a(_udivdi3.o)
 .debug_frame   0x00001064       0x38 c:/software/altera/10.1/nios2eds/bin/gnu/h-i686-mingw32/bin/../lib/gcc/nios2-elf/4.1.2\libgcc.a(_umoddi3.o)
 .debug_frame   0x0000109c       0x30 c:/software/altera/10.1/nios2eds/bin/gnu/h-i686-mingw32/bin/../lib/gcc/nios2-elf/4.1.2\libgcc.a(_div_df.o)
 .debug_frame   0x000010cc       0x2c c:/software/altera/10.1/nios2eds/bin/gnu/h-i686-mingw32/bin/../lib/gcc/nios2-elf/4.1.2\libgcc.a(_eq_df.o)
 .debug_frame   0x000010f8       0x2c c:/software/altera/10.1/nios2eds/bin/gnu/h-i686-mingw32/bin/../lib/gcc/nios2-elf/4.1.2\libgcc.a(_ne_df.o)
 .debug_frame   0x00001124       0x2c c:/software/altera/10.1/nios2eds/bin/gnu/h-i686-mingw32/bin/../lib/gcc/nios2-elf/4.1.2\libgcc.a(_ge_df.o)
 .debug_frame   0x00001150       0x2c c:/software/altera/10.1/nios2eds/bin/gnu/h-i686-mingw32/bin/../lib/gcc/nios2-elf/4.1.2\libgcc.a(_lt_df.o)
 .debug_frame   0x0000117c       0x30 c:/software/altera/10.1/nios2eds/bin/gnu/h-i686-mingw32/bin/../lib/gcc/nios2-elf/4.1.2\libgcc.a(_si_to_df.o)
 .debug_frame   0x000011ac       0x48 ../multi_test_1_bsp\libhal_bsp.a(alt_close.o)
 .debug_frame   0x000011f4       0x2c ../multi_test_1_bsp\libhal_bsp.a(alt_dcache_flush_all.o)
 .debug_frame   0x00001220       0x2c ../multi_test_1_bsp\libhal_bsp.a(alt_dev.o)
 .debug_frame   0x0000124c       0x48 ../multi_test_1_bsp\libhal_bsp.a(alt_exit.o)
 .debug_frame   0x00001294       0x48 ../multi_test_1_bsp\libhal_bsp.a(alt_fstat.o)
 .debug_frame   0x000012dc       0x2c ../multi_test_1_bsp\libhal_bsp.a(alt_irq_register.o)
 .debug_frame   0x00001308       0x48 ../multi_test_1_bsp\libhal_bsp.a(alt_isatty.o)
 .debug_frame   0x00001350       0x48 ../multi_test_1_bsp\libhal_bsp.a(alt_load.o)
 .debug_frame   0x00001398       0x48 ../multi_test_1_bsp\libhal_bsp.a(alt_lseek.o)
 .debug_frame   0x000013e0       0x2c ../multi_test_1_bsp\libhal_bsp.a(alt_main.o)
 .debug_frame   0x0000140c       0x48 ../multi_test_1_bsp\libhal_bsp.a(alt_malloc_lock.o)
 .debug_frame   0x00001454       0x48 ../multi_test_1_bsp\libhal_bsp.a(alt_read.o)
 .debug_frame   0x0000149c       0x2c ../multi_test_1_bsp\libhal_bsp.a(alt_release_fd.o)
 .debug_frame   0x000014c8       0x2c ../multi_test_1_bsp\libhal_bsp.a(alt_sbrk.o)
 .debug_frame   0x000014f4       0x48 ../multi_test_1_bsp\libhal_bsp.a(alt_write.o)
 .debug_frame   0x0000153c       0x64 ../multi_test_1_bsp\libhal_bsp.a(alt_sys_init.o)
 .debug_frame   0x000015a0       0x80 ../multi_test_1_bsp\libhal_bsp.a(altera_avalon_jtag_uart_fd.o)
 .debug_frame   0x00001620       0x80 ../multi_test_1_bsp\libhal_bsp.a(altera_avalon_jtag_uart_init.o)
 .debug_frame   0x000016a0       0x2c ../multi_test_1_bsp\libhal_bsp.a(altera_avalon_jtag_uart_ioctl.o)
 .debug_frame   0x000016cc       0x2c ../multi_test_1_bsp\libhal_bsp.a(altera_avalon_jtag_uart_read.o)
 .debug_frame   0x000016f8       0x2c ../multi_test_1_bsp\libhal_bsp.a(altera_avalon_jtag_uart_write.o)
 .debug_frame   0x00001724      0x114 ../multi_test_1_bsp\libhal_bsp.a(altera_avalon_mailbox.o)
 .debug_frame   0x00001838      0x10c ../multi_test_1_bsp\libhal_bsp.a(altera_avalon_mutex.o)
 .debug_frame   0x00001944       0x48 ../multi_test_1_bsp\libhal_bsp.a(altera_avalon_timer_sc.o)
 .debug_frame   0x0000198c      0x3b4 ../multi_test_1_bsp\libhal_bsp.a(altera_up_sd_card_avalon_interface.o)
 .debug_frame   0x00001d40       0x2c ../multi_test_1_bsp\libhal_bsp.a(alt_alarm_start.o)
 .debug_frame   0x00001d6c       0x48 ../multi_test_1_bsp\libhal_bsp.a(alt_dev_llist_insert.o)
 .debug_frame   0x00001db4       0x2c ../multi_test_1_bsp\libhal_bsp.a(alt_do_ctors.o)
 .debug_frame   0x00001de0       0x2c ../multi_test_1_bsp\libhal_bsp.a(alt_do_dtors.o)
 .debug_frame   0x00001e0c       0x2c ../multi_test_1_bsp\libhal_bsp.a(alt_find_dev.o)
 .debug_frame   0x00001e38       0x2c ../multi_test_1_bsp\libhal_bsp.a(alt_icache_flush_all.o)
 .debug_frame   0x00001e64       0x80 ../multi_test_1_bsp\libhal_bsp.a(alt_iic.o)
 .debug_frame   0x00001ee4       0x2c ../multi_test_1_bsp\libhal_bsp.a(alt_iic_isr_register.o)
 .debug_frame   0x00001f10       0x48 ../multi_test_1_bsp\libhal_bsp.a(alt_io_redirect.o)
 .debug_frame   0x00001f58       0x2c ../multi_test_1_bsp\libhal_bsp.a(alt_irq_handler.o)
 .debug_frame   0x00001f84       0x64 ../multi_test_1_bsp\libhal_bsp.a(alt_open.o)
 .debug_frame   0x00001fe8       0x48 ../multi_test_1_bsp\libhal_bsp.a(alt_tick.o)
 .debug_frame   0x00002030       0x2c ../multi_test_1_bsp\libhal_bsp.a(altera_nios2_irq.o)
 .debug_frame   0x0000205c       0x2c ../multi_test_1_bsp\libhal_bsp.a(alt_find_file.o)
 .debug_frame   0x00002088       0x2c ../multi_test_1_bsp\libhal_bsp.a(alt_get_fd.o)
 .debug_frame   0x000020b4       0x2c ../multi_test_1_bsp\libhal_bsp.a(alt_icache_flush.o)
 .debug_frame   0x000020e0       0x20 c:/software/altera/10.1/nios2eds/bin/gnu/h-i686-mingw32/bin/../lib/gcc/nios2-elf/4.1.2/../../../../nios2-elf/lib\libc.a(lib_a-atexit.o)
 .debug_frame   0x00002100       0x20 c:/software/altera/10.1/nios2eds/bin/gnu/h-i686-mingw32/bin/../lib/gcc/nios2-elf/4.1.2/../../../../nios2-elf/lib\libc.a(lib_a-memcmp.o)
 .debug_frame   0x00002120       0x34 c:/software/altera/10.1/nios2eds/bin/gnu/h-i686-mingw32/bin/../lib/gcc/nios2-elf/4.1.2/../../../../nios2-elf/lib\libc.a(lib_a-__atexit.o)

.debug_str      0x00000000     0x307c
 *(.debug_str)
 .debug_str     0x00000000       0xc2 obj/common/tables.o
                                0x107 (size before relaxing)
 .debug_str     0x000000c2       0x78 obj/common/util.o
                                0x158 (size before relaxing)
 .debug_str     0x0000013a       0x50 obj/decoder/idct.o
                                0x158 (size before relaxing)
 .debug_str     0x0000018a       0xa0 obj/decoder/lossless_decode.o
                                0x1d3 (size before relaxing)
 .debug_str     0x0000022a      0x632 obj/decoder/mjpeg423_decoder.o
                                0x7d2 (size before relaxing)
 .debug_str     0x0000085c       0x59 obj/decoder/ycbcr_to_rgb.o
                                0x14e (size before relaxing)
 .debug_str     0x000008b5       0xff obj/hello_world.o
                                0x3ae (size before relaxing)
 .debug_str     0x000009b4      0x51d obj/sd_card.o
                                0x66d (size before relaxing)
 .debug_str     0x00000ed1       0xf0 c:/software/altera/10.1/nios2eds/bin/gnu/h-i686-mingw32/bin/../lib/gcc/nios2-elf/4.1.2/../../../../nios2-elf/lib\libm.a(lib_a-s_ceil.o)
                                0x1aa (size before relaxing)
 .debug_str     0x00000fc1      0x1a4 c:/software/altera/10.1/nios2eds/bin/gnu/h-i686-mingw32/bin/../lib/gcc/nios2-elf/4.1.2\libgcc.a(_addsub_df.o)
                                0x25c (size before relaxing)
 .debug_str     0x00001165       0x45 c:/software/altera/10.1/nios2eds/bin/gnu/h-i686-mingw32/bin/../lib/gcc/nios2-elf/4.1.2\libgcc.a(_mul_df.o)
                                0x22e (size before relaxing)
 .debug_str     0x000011aa        0x8 c:/software/altera/10.1/nios2eds/bin/gnu/h-i686-mingw32/bin/../lib/gcc/nios2-elf/4.1.2\libgcc.a(_gt_df.o)
                                0x1eb (size before relaxing)
 .debug_str     0x000011b2        0xa c:/software/altera/10.1/nios2eds/bin/gnu/h-i686-mingw32/bin/../lib/gcc/nios2-elf/4.1.2\libgcc.a(_df_to_si.o)
                                0x1f4 (size before relaxing)
 .debug_str     0x00000000      0x190 c:/software/altera/10.1/nios2eds/bin/gnu/h-i686-mingw32/bin/../lib/gcc/nios2-elf/4.1.2\libgcc.a(_thenan_df.o)
 .debug_str     0x000011bc       0x1b c:/software/altera/10.1/nios2eds/bin/gnu/h-i686-mingw32/bin/../lib/gcc/nios2-elf/4.1.2\libgcc.a(_usi_to_df.o)
                                0x1c7 (size before relaxing)
 .debug_str     0x000011d7       0x93 c:/software/altera/10.1/nios2eds/bin/gnu/h-i686-mingw32/bin/../lib/gcc/nios2-elf/4.1.2\libgcc.a(lib2-divmod.o)
                                0x1a1 (size before relaxing)
 .debug_str     0x0000126a       0x4a c:/software/altera/10.1/nios2eds/bin/gnu/h-i686-mingw32/bin/../lib/gcc/nios2-elf/4.1.2\libgcc.a(lib2-divtable.o)
                                0x134 (size before relaxing)
 .debug_str     0x000012b4       0x62 c:/software/altera/10.1/nios2eds/bin/gnu/h-i686-mingw32/bin/../lib/gcc/nios2-elf/4.1.2\libgcc.a(_muldi3.o)
                                0x199 (size before relaxing)
 .debug_str     0x00001316       0x18 c:/software/altera/10.1/nios2eds/bin/gnu/h-i686-mingw32/bin/../lib/gcc/nios2-elf/4.1.2\libgcc.a(_clzsi2.o)
                                0x16b (size before relaxing)
 .debug_str     0x0000132e       0x10 c:/software/altera/10.1/nios2eds/bin/gnu/h-i686-mingw32/bin/../lib/gcc/nios2-elf/4.1.2\libgcc.a(_pack_df.o)
                                0x1f3 (size before relaxing)
 .debug_str     0x0000133e        0xb c:/software/altera/10.1/nios2eds/bin/gnu/h-i686-mingw32/bin/../lib/gcc/nios2-elf/4.1.2\libgcc.a(_unpack_df.o)
                                0x1d5 (size before relaxing)
 .debug_str     0x00001349       0x10 c:/software/altera/10.1/nios2eds/bin/gnu/h-i686-mingw32/bin/../lib/gcc/nios2-elf/4.1.2\libgcc.a(_fpcmp_parts_df.o)
                                0x1b3 (size before relaxing)
 .debug_str     0x00000000      0x14e c:/software/altera/10.1/nios2eds/bin/gnu/h-i686-mingw32/bin/../lib/gcc/nios2-elf/4.1.2\libgcc.a(_clz.o)
 .debug_str     0x00001359       0xc5 c:/software/altera/10.1/nios2eds/bin/gnu/h-i686-mingw32/bin/../lib/gcc/nios2-elf/4.1.2/../../../../nios2-elf/lib\libc.a(lib_a-exit.o)
                                0x4f9 (size before relaxing)
 .debug_str     0x0000141e       0xbe c:/software/altera/10.1/nios2eds/bin/gnu/h-i686-mingw32/bin/../lib/gcc/nios2-elf/4.1.2/../../../../nios2-elf/lib\libc.a(lib_a-impure.o)
                                0x507 (size before relaxing)
 .debug_str     0x000014dc       0x3d c:/software/altera/10.1/nios2eds/bin/gnu/h-i686-mingw32/bin/../lib/gcc/nios2-elf/4.1.2/../../../../nios2-elf/lib\libc.a(lib_a-int_errno.o)
                                0x150 (size before relaxing)
 .debug_str     0x00001519       0x47 c:/software/altera/10.1/nios2eds/bin/gnu/h-i686-mingw32/bin/../lib/gcc/nios2-elf/4.1.2/../../../../nios2-elf/lib\libc.a(lib_a-malloc.o)
                                0x509 (size before relaxing)
 .debug_str     0x00001560      0x202 c:/software/altera/10.1/nios2eds/bin/gnu/h-i686-mingw32/bin/../lib/gcc/nios2-elf/4.1.2/../../../../nios2-elf/lib\libc.a(lib_a-mallocr.o)
                                0x6de (size before relaxing)
 .debug_str     0x00001762       0xcb c:/software/altera/10.1/nios2eds/bin/gnu/h-i686-mingw32/bin/../lib/gcc/nios2-elf/4.1.2/../../../../nios2-elf/lib\libc.a(lib_a-printf.o)
                                0x510 (size before relaxing)
 .debug_str     0x0000182d       0x4e c:/software/altera/10.1/nios2eds/bin/gnu/h-i686-mingw32/bin/../lib/gcc/nios2-elf/4.1.2/../../../../nios2-elf/lib\libc.a(lib_a-putchar.o)
                                0x4fc (size before relaxing)
 .debug_str     0x0000187b       0x81 c:/software/altera/10.1/nios2eds/bin/gnu/h-i686-mingw32/bin/../lib/gcc/nios2-elf/4.1.2/../../../../nios2-elf/lib\libc.a(lib_a-puts.o)
                                0x536 (size before relaxing)
 .debug_str     0x000018fc       0x50 c:/software/altera/10.1/nios2eds/bin/gnu/h-i686-mingw32/bin/../lib/gcc/nios2-elf/4.1.2/../../../../nios2-elf/lib\libc.a(lib_a-sbrkr.o)
                                0x4f8 (size before relaxing)
 .debug_str     0x0000194c       0xc8 c:/software/altera/10.1/nios2eds/bin/gnu/h-i686-mingw32/bin/../lib/gcc/nios2-elf/4.1.2/../../../../nios2-elf/lib\libc.a(lib_a-strlen.o)
                                0x16a (size before relaxing)
 .debug_str     0x00001a14      0x160 c:/software/altera/10.1/nios2eds/bin/gnu/h-i686-mingw32/bin/../lib/gcc/nios2-elf/4.1.2/../../../../nios2-elf/lib\libc.a(lib_a-vfprintf.o)
                                0x6e5 (size before relaxing)
 .debug_str     0x00001b74       0x46 c:/software/altera/10.1/nios2eds/bin/gnu/h-i686-mingw32/bin/../lib/gcc/nios2-elf/4.1.2/../../../../nios2-elf/lib\libc.a(lib_a-wsetup.o)
                                0x4f9 (size before relaxing)
 .debug_str     0x00001bba       0x7b c:/software/altera/10.1/nios2eds/bin/gnu/h-i686-mingw32/bin/../lib/gcc/nios2-elf/4.1.2/../../../../nios2-elf/lib\libc.a(lib_a-__call_atexit.o)
                                0x53b (size before relaxing)
 .debug_str     0x00001c35      0x102 c:/software/altera/10.1/nios2eds/bin/gnu/h-i686-mingw32/bin/../lib/gcc/nios2-elf/4.1.2/../../../../nios2-elf/lib\libc.a(lib_a-dtoa.o)
                                0x5ee (size before relaxing)
 .debug_str     0x00001d37       0x52 c:/software/altera/10.1/nios2eds/bin/gnu/h-i686-mingw32/bin/../lib/gcc/nios2-elf/4.1.2/../../../../nios2-elf/lib\libc.a(lib_a-fflush.o)
                                0x51f (size before relaxing)
 .debug_str     0x00001d89      0x102 c:/software/altera/10.1/nios2eds/bin/gnu/h-i686-mingw32/bin/../lib/gcc/nios2-elf/4.1.2/../../../../nios2-elf/lib\libc.a(lib_a-findfp.o)
                                0x5e1 (size before relaxing)
 .debug_str     0x00001e8b       0x3c c:/software/altera/10.1/nios2eds/bin/gnu/h-i686-mingw32/bin/../lib/gcc/nios2-elf/4.1.2/../../../../nios2-elf/lib\libc.a(lib_a-freer.o)
                                0x630 (size before relaxing)
 .debug_str     0x00001ec7       0x66 c:/software/altera/10.1/nios2eds/bin/gnu/h-i686-mingw32/bin/../lib/gcc/nios2-elf/4.1.2/../../../../nios2-elf/lib\libc.a(lib_a-fvwrite.o)
                                0x550 (size before relaxing)
 .debug_str     0x00001f2d       0x5e c:/software/altera/10.1/nios2eds/bin/gnu/h-i686-mingw32/bin/../lib/gcc/nios2-elf/4.1.2/../../../../nios2-elf/lib\libc.a(lib_a-fwalk.o)
                                0x522 (size before relaxing)
 .debug_str     0x00001f8b      0x212 c:/software/altera/10.1/nios2eds/bin/gnu/h-i686-mingw32/bin/../lib/gcc/nios2-elf/4.1.2/../../../../nios2-elf/lib\libc.a(lib_a-locale.o)
                                0x696 (size before relaxing)
 .debug_str     0x0000219d      0x123 c:/software/altera/10.1/nios2eds/bin/gnu/h-i686-mingw32/bin/../lib/gcc/nios2-elf/4.1.2/../../../../nios2-elf/lib\libc.a(lib_a-makebuf.o)
                                0x5f3 (size before relaxing)
 .debug_str     0x000022c0       0x55 c:/software/altera/10.1/nios2eds/bin/gnu/h-i686-mingw32/bin/../lib/gcc/nios2-elf/4.1.2/../../../../nios2-elf/lib\libc.a(lib_a-memchr.o)
                                0x178 (size before relaxing)
 .debug_str     0x00002315       0x69 c:/software/altera/10.1/nios2eds/bin/gnu/h-i686-mingw32/bin/../lib/gcc/nios2-elf/4.1.2/../../../../nios2-elf/lib\libc.a(lib_a-memcpy.o)
                                0x115 (size before relaxing)
 .debug_str     0x0000237e       0x4d c:/software/altera/10.1/nios2eds/bin/gnu/h-i686-mingw32/bin/../lib/gcc/nios2-elf/4.1.2/../../../../nios2-elf/lib\libc.a(lib_a-memmove.o)
                                0x18a (size before relaxing)
 .debug_str     0x000023cb       0x42 c:/software/altera/10.1/nios2eds/bin/gnu/h-i686-mingw32/bin/../lib/gcc/nios2-elf/4.1.2/../../../../nios2-elf/lib\libc.a(lib_a-memset.o)
                                0x16b (size before relaxing)
 .debug_str     0x0000240d       0xf8 c:/software/altera/10.1/nios2eds/bin/gnu/h-i686-mingw32/bin/../lib/gcc/nios2-elf/4.1.2/../../../../nios2-elf/lib\libc.a(lib_a-mprec.o)
                                0x5fb (size before relaxing)
 .debug_str     0x00002505       0x45 c:/software/altera/10.1/nios2eds/bin/gnu/h-i686-mingw32/bin/../lib/gcc/nios2-elf/4.1.2/../../../../nios2-elf/lib\libc.a(lib_a-putc.o)
                                0x4ff (size before relaxing)
 .debug_str     0x0000254a       0x59 c:/software/altera/10.1/nios2eds/bin/gnu/h-i686-mingw32/bin/../lib/gcc/nios2-elf/4.1.2/../../../../nios2-elf/lib\libc.a(lib_a-reallocr.o)
                                0x5b0 (size before relaxing)
 .debug_str     0x000025a3       0xbf c:/software/altera/10.1/nios2eds/bin/gnu/h-i686-mingw32/bin/../lib/gcc/nios2-elf/4.1.2/../../../../nios2-elf/lib\libc.a(lib_a-s_isinfd.o)
                                0x177 (size before relaxing)
 .debug_str     0x00002662       0x46 c:/software/altera/10.1/nios2eds/bin/gnu/h-i686-mingw32/bin/../lib/gcc/nios2-elf/4.1.2/../../../../nios2-elf/lib\libc.a(lib_a-s_isnand.o)
                                0x177 (size before relaxing)
 .debug_str     0x000026a8       0x62 c:/software/altera/10.1/nios2eds/bin/gnu/h-i686-mingw32/bin/../lib/gcc/nios2-elf/4.1.2/../../../../nios2-elf/lib\libc.a(lib_a-stdio.o)
                                0x51e (size before relaxing)
 .debug_str     0x0000270a       0x42 c:/software/altera/10.1/nios2eds/bin/gnu/h-i686-mingw32/bin/../lib/gcc/nios2-elf/4.1.2/../../../../nios2-elf/lib\libc.a(lib_a-strcmp.o)
                                0x150 (size before relaxing)
 .debug_str     0x0000274c       0x4a c:/software/altera/10.1/nios2eds/bin/gnu/h-i686-mingw32/bin/../lib/gcc/nios2-elf/4.1.2/../../../../nios2-elf/lib\libc.a(lib_a-wbuf.o)
                                0x4fd (size before relaxing)
 .debug_str     0x00002796       0x4c c:/software/altera/10.1/nios2eds/bin/gnu/h-i686-mingw32/bin/../lib/gcc/nios2-elf/4.1.2/../../../../nios2-elf/lib\libc.a(lib_a-writer.o)
                                0x4fb (size before relaxing)
 .debug_str     0x000027e2       0x19 c:/software/altera/10.1/nios2eds/bin/gnu/h-i686-mingw32/bin/../lib/gcc/nios2-elf/4.1.2/../../../../nios2-elf/lib\libc.a(lib_a-callocr.o)
                                0x52f (size before relaxing)
 .debug_str     0x000027fb       0x43 c:/software/altera/10.1/nios2eds/bin/gnu/h-i686-mingw32/bin/../lib/gcc/nios2-elf/4.1.2/../../../../nios2-elf/lib\libc.a(lib_a-closer.o)
                                0x4eb (size before relaxing)
 .debug_str     0x0000283e       0x4b c:/software/altera/10.1/nios2eds/bin/gnu/h-i686-mingw32/bin/../lib/gcc/nios2-elf/4.1.2/../../../../nios2-elf/lib\libc.a(lib_a-fclose.o)
                                0x503 (size before relaxing)
 .debug_str     0x00002889       0x49 c:/software/altera/10.1/nios2eds/bin/gnu/h-i686-mingw32/bin/../lib/gcc/nios2-elf/4.1.2/../../../../nios2-elf/lib\libc.a(lib_a-fstatr.o)
                                0x5de (size before relaxing)
 .debug_str     0x000028d2       0x45 c:/software/altera/10.1/nios2eds/bin/gnu/h-i686-mingw32/bin/../lib/gcc/nios2-elf/4.1.2/../../../../nios2-elf/lib\libc.a(lib_a-isattyr.o)
                                0x4ed (size before relaxing)
 .debug_str     0x00002917       0x43 c:/software/altera/10.1/nios2eds/bin/gnu/h-i686-mingw32/bin/../lib/gcc/nios2-elf/4.1.2/../../../../nios2-elf/lib\libc.a(lib_a-lseekr.o)
                                0x4f9 (size before relaxing)
 .debug_str     0x0000295a       0x41 c:/software/altera/10.1/nios2eds/bin/gnu/h-i686-mingw32/bin/../lib/gcc/nios2-elf/4.1.2/../../../../nios2-elf/lib\libc.a(lib_a-readr.o)
                                0x4f9 (size before relaxing)
 .debug_str     0x0000299b       0x35 c:/software/altera/10.1/nios2eds/bin/gnu/h-i686-mingw32/bin/../lib/gcc/nios2-elf/4.1.2\libgcc.a(_udivdi3.o)
                                0x1e4 (size before relaxing)
 .debug_str     0x000029d0        0xa c:/software/altera/10.1/nios2eds/bin/gnu/h-i686-mingw32/bin/../lib/gcc/nios2-elf/4.1.2\libgcc.a(_umoddi3.o)
                                0x1e4 (size before relaxing)
 .debug_str     0x000029da       0x35 c:/software/altera/10.1/nios2eds/bin/gnu/h-i686-mingw32/bin/../lib/gcc/nios2-elf/4.1.2\libgcc.a(_div_df.o)
                                0x21e (size before relaxing)
 .debug_str     0x00002a0f        0x8 c:/software/altera/10.1/nios2eds/bin/gnu/h-i686-mingw32/bin/../lib/gcc/nios2-elf/4.1.2\libgcc.a(_eq_df.o)
                                0x1eb (size before relaxing)
 .debug_str     0x00002a17        0x8 c:/software/altera/10.1/nios2eds/bin/gnu/h-i686-mingw32/bin/../lib/gcc/nios2-elf/4.1.2\libgcc.a(_ne_df.o)
                                0x1eb (size before relaxing)
 .debug_str     0x00002a1f        0x8 c:/software/altera/10.1/nios2eds/bin/gnu/h-i686-mingw32/bin/../lib/gcc/nios2-elf/4.1.2\libgcc.a(_ge_df.o)
                                0x1eb (size before relaxing)
 .debug_str     0x00002a27        0x8 c:/software/altera/10.1/nios2eds/bin/gnu/h-i686-mingw32/bin/../lib/gcc/nios2-elf/4.1.2\libgcc.a(_lt_df.o)
                                0x1eb (size before relaxing)
 .debug_str     0x00002a2f       0x11 c:/software/altera/10.1/nios2eds/bin/gnu/h-i686-mingw32/bin/../lib/gcc/nios2-elf/4.1.2\libgcc.a(_si_to_df.o)
                                0x1cb (size before relaxing)
 .debug_str     0x00002a40       0x12 ../multi_test_1_bsp\libhal_bsp.a(alt_close.o)
 .debug_str     0x00002a52       0x12 ../multi_test_1_bsp\libhal_bsp.a(alt_dcache_flush_all.o)
 .debug_str     0x00002a64       0x12 ../multi_test_1_bsp\libhal_bsp.a(alt_dev.o)
 .debug_str     0x00002a76       0x12 ../multi_test_1_bsp\libhal_bsp.a(alt_errno.o)
 .debug_str     0x00002a88       0x1c ../multi_test_1_bsp\libhal_bsp.a(alt_exit.o)
 .debug_str     0x00002aa4       0x12 ../multi_test_1_bsp\libhal_bsp.a(alt_fstat.o)
 .debug_str     0x00002ab6       0x21 ../multi_test_1_bsp\libhal_bsp.a(alt_irq_register.o)
 .debug_str     0x00002ad7       0x12 ../multi_test_1_bsp\libhal_bsp.a(alt_isatty.o)
 .debug_str     0x00002ae9       0x12 ../multi_test_1_bsp\libhal_bsp.a(alt_load.o)
 .debug_str     0x00002afb       0x12 ../multi_test_1_bsp\libhal_bsp.a(alt_lseek.o)
 .debug_str     0x00002b0d       0x12 ../multi_test_1_bsp\libhal_bsp.a(alt_main.o)
 .debug_str     0x00002b1f       0x20 ../multi_test_1_bsp\libhal_bsp.a(alt_malloc_lock.o)
 .debug_str     0x00002b3f       0x12 ../multi_test_1_bsp\libhal_bsp.a(alt_read.o)
 .debug_str     0x00002b51       0x1a ../multi_test_1_bsp\libhal_bsp.a(alt_sbrk.o)
 .debug_str     0x00002b6b       0x12 ../multi_test_1_bsp\libhal_bsp.a(alt_write.o)
 .debug_str     0x00002b7d       0x49 ../multi_test_1_bsp\libhal_bsp.a(alt_sys_init.o)
 .debug_str     0x00002bc6       0x12 ../multi_test_1_bsp\libhal_bsp.a(altera_avalon_jtag_uart_fd.o)
 .debug_str     0x00002bd8       0x1a ../multi_test_1_bsp\libhal_bsp.a(altera_avalon_jtag_uart_init.o)
 .debug_str     0x00002bf2       0x12 ../multi_test_1_bsp\libhal_bsp.a(altera_avalon_jtag_uart_ioctl.o)
 .debug_str     0x00002c04       0x1a ../multi_test_1_bsp\libhal_bsp.a(altera_avalon_jtag_uart_read.o)
 .debug_str     0x00002c1e       0x1a ../multi_test_1_bsp\libhal_bsp.a(altera_avalon_jtag_uart_write.o)
 .debug_str     0x00002c38       0x50 ../multi_test_1_bsp\libhal_bsp.a(altera_avalon_mailbox.o)
 .debug_str     0x00002c88       0x2f ../multi_test_1_bsp\libhal_bsp.a(altera_avalon_mutex.o)
 .debug_str     0x00002cb7       0x12 ../multi_test_1_bsp\libhal_bsp.a(altera_avalon_timer_sc.o)
 .debug_str     0x00002cc9      0x1c2 ../multi_test_1_bsp\libhal_bsp.a(altera_up_sd_card_avalon_interface.o)
 .debug_str     0x00002e8b       0x23 ../multi_test_1_bsp\libhal_bsp.a(alt_alarm_start.o)
 .debug_str     0x00002eae       0x12 ../multi_test_1_bsp\libhal_bsp.a(alt_dev_llist_insert.o)
 .debug_str     0x00002ec0       0x12 ../multi_test_1_bsp\libhal_bsp.a(alt_find_dev.o)
 .debug_str     0x00002ed2       0x12 ../multi_test_1_bsp\libhal_bsp.a(alt_icache_flush_all.o)
 .debug_str     0x00002ee4       0x18 ../multi_test_1_bsp\libhal_bsp.a(alt_iic.o)
 .debug_str     0x00002efc       0x1a ../multi_test_1_bsp\libhal_bsp.a(alt_iic_isr_register.o)
 .debug_str     0x00002f16       0x12 ../multi_test_1_bsp\libhal_bsp.a(alt_io_redirect.o)
 .debug_str     0x00002f28       0x12 ../multi_test_1_bsp\libhal_bsp.a(alt_irq_handler.o)
 .debug_str     0x00002f3a       0x12 ../multi_test_1_bsp\libhal_bsp.a(alt_open.o)
 .debug_str     0x00002f4c       0x1a ../multi_test_1_bsp\libhal_bsp.a(alt_tick.o)
 .debug_str     0x00002f66       0x12 ../multi_test_1_bsp\libhal_bsp.a(altera_nios2_irq.o)
 .debug_str     0x00002f78       0x12 ../multi_test_1_bsp\libhal_bsp.a(alt_find_file.o)
 .debug_str     0x00002f8a       0x12 ../multi_test_1_bsp\libhal_bsp.a(alt_get_fd.o)
 .debug_str     0x00002f9c       0x12 ../multi_test_1_bsp\libhal_bsp.a(alt_icache_flush.o)
 .debug_str     0x00002fae       0x3b c:/software/altera/10.1/nios2eds/bin/gnu/h-i686-mingw32/bin/../lib/gcc/nios2-elf/4.1.2/../../../../nios2-elf/lib\libc.a(lib_a-atexit.o)
                                0x1ac (size before relaxing)
 .debug_str     0x00002fe9       0x42 c:/software/altera/10.1/nios2eds/bin/gnu/h-i686-mingw32/bin/../lib/gcc/nios2-elf/4.1.2/../../../../nios2-elf/lib\libc.a(lib_a-memcmp.o)
                                0x157 (size before relaxing)
 .debug_str     0x0000302b       0x51 c:/software/altera/10.1/nios2eds/bin/gnu/h-i686-mingw32/bin/../lib/gcc/nios2-elf/4.1.2/../../../../nios2-elf/lib\libc.a(lib_a-__atexit.o)
                                0x511 (size before relaxing)

.debug_loc      0x00000000     0xdd87
 *(.debug_loc)
 .debug_loc     0x00000000      0x143 obj/common/util.o
 .debug_loc     0x00000143      0x264 obj/decoder/idct.o
 .debug_loc     0x000003a7      0x50c obj/decoder/lossless_decode.o
 .debug_loc     0x000008b3      0x649 obj/decoder/mjpeg423_decoder.o
 .debug_loc     0x00000efc       0x77 obj/decoder/ycbcr_to_rgb.o
 .debug_loc     0x00000f73       0x64 obj/hello_world.o
 .debug_loc     0x00000fd7      0x1ca obj/sd_card.o
 .debug_loc     0x000011a1      0x216 c:/software/altera/10.1/nios2eds/bin/gnu/h-i686-mingw32/bin/../lib/gcc/nios2-elf/4.1.2/../../../../nios2-elf/lib\libm.a(lib_a-s_ceil.o)
 .debug_loc     0x000013b7      0x47a c:/software/altera/10.1/nios2eds/bin/gnu/h-i686-mingw32/bin/../lib/gcc/nios2-elf/4.1.2\libgcc.a(_addsub_df.o)
 .debug_loc     0x00001831      0x3b4 c:/software/altera/10.1/nios2eds/bin/gnu/h-i686-mingw32/bin/../lib/gcc/nios2-elf/4.1.2\libgcc.a(_mul_df.o)
 .debug_loc     0x00001be5       0x70 c:/software/altera/10.1/nios2eds/bin/gnu/h-i686-mingw32/bin/../lib/gcc/nios2-elf/4.1.2\libgcc.a(_gt_df.o)
 .debug_loc     0x00001c55       0x8b c:/software/altera/10.1/nios2eds/bin/gnu/h-i686-mingw32/bin/../lib/gcc/nios2-elf/4.1.2\libgcc.a(_df_to_si.o)
 .debug_loc     0x00001ce0       0x5b c:/software/altera/10.1/nios2eds/bin/gnu/h-i686-mingw32/bin/../lib/gcc/nios2-elf/4.1.2\libgcc.a(_usi_to_df.o)
 .debug_loc     0x00001d3b      0x1d2 c:/software/altera/10.1/nios2eds/bin/gnu/h-i686-mingw32/bin/../lib/gcc/nios2-elf/4.1.2\libgcc.a(lib2-divmod.o)
 .debug_loc     0x00001f0d       0xcf c:/software/altera/10.1/nios2eds/bin/gnu/h-i686-mingw32/bin/../lib/gcc/nios2-elf/4.1.2\libgcc.a(_muldi3.o)
 .debug_loc     0x00001fdc       0x1e c:/software/altera/10.1/nios2eds/bin/gnu/h-i686-mingw32/bin/../lib/gcc/nios2-elf/4.1.2\libgcc.a(_clzsi2.o)
 .debug_loc     0x00001ffa      0x184 c:/software/altera/10.1/nios2eds/bin/gnu/h-i686-mingw32/bin/../lib/gcc/nios2-elf/4.1.2\libgcc.a(_pack_df.o)
 .debug_loc     0x0000217e       0xe5 c:/software/altera/10.1/nios2eds/bin/gnu/h-i686-mingw32/bin/../lib/gcc/nios2-elf/4.1.2\libgcc.a(_unpack_df.o)
 .debug_loc     0x00002263       0x3d c:/software/altera/10.1/nios2eds/bin/gnu/h-i686-mingw32/bin/../lib/gcc/nios2-elf/4.1.2/../../../../nios2-elf/lib\libc.a(lib_a-exit.o)
 .debug_loc     0x000022a0       0x3c c:/software/altera/10.1/nios2eds/bin/gnu/h-i686-mingw32/bin/../lib/gcc/nios2-elf/4.1.2/../../../../nios2-elf/lib\libc.a(lib_a-malloc.o)
 .debug_loc     0x000022dc      0xaeb c:/software/altera/10.1/nios2eds/bin/gnu/h-i686-mingw32/bin/../lib/gcc/nios2-elf/4.1.2/../../../../nios2-elf/lib\libc.a(lib_a-mallocr.o)
 .debug_loc     0x00002dc7       0xcb c:/software/altera/10.1/nios2eds/bin/gnu/h-i686-mingw32/bin/../lib/gcc/nios2-elf/4.1.2/../../../../nios2-elf/lib\libc.a(lib_a-printf.o)
 .debug_loc     0x00002e92       0x44 c:/software/altera/10.1/nios2eds/bin/gnu/h-i686-mingw32/bin/../lib/gcc/nios2-elf/4.1.2/../../../../nios2-elf/lib\libc.a(lib_a-putchar.o)
 .debug_loc     0x00002ed6       0xa2 c:/software/altera/10.1/nios2eds/bin/gnu/h-i686-mingw32/bin/../lib/gcc/nios2-elf/4.1.2/../../../../nios2-elf/lib\libc.a(lib_a-puts.o)
 .debug_loc     0x00002f78       0x5b c:/software/altera/10.1/nios2eds/bin/gnu/h-i686-mingw32/bin/../lib/gcc/nios2-elf/4.1.2/../../../../nios2-elf/lib\libc.a(lib_a-sbrkr.o)
 .debug_loc     0x00002fd3       0x3c c:/software/altera/10.1/nios2eds/bin/gnu/h-i686-mingw32/bin/../lib/gcc/nios2-elf/4.1.2/../../../../nios2-elf/lib\libc.a(lib_a-strlen.o)
 .debug_loc     0x0000300f     0x1e0d c:/software/altera/10.1/nios2eds/bin/gnu/h-i686-mingw32/bin/../lib/gcc/nios2-elf/4.1.2/../../../../nios2-elf/lib\libc.a(lib_a-vfprintf.o)
 .debug_loc     0x00004e1c       0x7c c:/software/altera/10.1/nios2eds/bin/gnu/h-i686-mingw32/bin/../lib/gcc/nios2-elf/4.1.2/../../../../nios2-elf/lib\libc.a(lib_a-wsetup.o)
 .debug_loc     0x00004e98      0x1cb c:/software/altera/10.1/nios2eds/bin/gnu/h-i686-mingw32/bin/../lib/gcc/nios2-elf/4.1.2/../../../../nios2-elf/lib\libc.a(lib_a-__call_atexit.o)
 .debug_loc     0x00005063     0x1dfa c:/software/altera/10.1/nios2eds/bin/gnu/h-i686-mingw32/bin/../lib/gcc/nios2-elf/4.1.2/../../../../nios2-elf/lib\libc.a(lib_a-dtoa.o)
 .debug_loc     0x00006e5d      0x1f6 c:/software/altera/10.1/nios2eds/bin/gnu/h-i686-mingw32/bin/../lib/gcc/nios2-elf/4.1.2/../../../../nios2-elf/lib\libc.a(lib_a-fflush.o)
 .debug_loc     0x00007053      0x19f c:/software/altera/10.1/nios2eds/bin/gnu/h-i686-mingw32/bin/../lib/gcc/nios2-elf/4.1.2/../../../../nios2-elf/lib\libc.a(lib_a-findfp.o)
 .debug_loc     0x000071f2      0x4a7 c:/software/altera/10.1/nios2eds/bin/gnu/h-i686-mingw32/bin/../lib/gcc/nios2-elf/4.1.2/../../../../nios2-elf/lib\libc.a(lib_a-freer.o)
 .debug_loc     0x00007699      0x4e4 c:/software/altera/10.1/nios2eds/bin/gnu/h-i686-mingw32/bin/../lib/gcc/nios2-elf/4.1.2/../../../../nios2-elf/lib\libc.a(lib_a-fvwrite.o)
 .debug_loc     0x00007b7d      0x1d2 c:/software/altera/10.1/nios2eds/bin/gnu/h-i686-mingw32/bin/../lib/gcc/nios2-elf/4.1.2/../../../../nios2-elf/lib\libc.a(lib_a-fwalk.o)
 .debug_loc     0x00007d4f       0xe1 c:/software/altera/10.1/nios2eds/bin/gnu/h-i686-mingw32/bin/../lib/gcc/nios2-elf/4.1.2/../../../../nios2-elf/lib\libc.a(lib_a-locale.o)
 .debug_loc     0x00007e30      0x11c c:/software/altera/10.1/nios2eds/bin/gnu/h-i686-mingw32/bin/../lib/gcc/nios2-elf/4.1.2/../../../../nios2-elf/lib\libc.a(lib_a-makebuf.o)
 .debug_loc     0x00007f4c      0x106 c:/software/altera/10.1/nios2eds/bin/gnu/h-i686-mingw32/bin/../lib/gcc/nios2-elf/4.1.2/../../../../nios2-elf/lib\libc.a(lib_a-memchr.o)
 .debug_loc     0x00008052       0xca c:/software/altera/10.1/nios2eds/bin/gnu/h-i686-mingw32/bin/../lib/gcc/nios2-elf/4.1.2/../../../../nios2-elf/lib\libc.a(lib_a-memcpy.o)
 .debug_loc     0x0000811c      0x117 c:/software/altera/10.1/nios2eds/bin/gnu/h-i686-mingw32/bin/../lib/gcc/nios2-elf/4.1.2/../../../../nios2-elf/lib\libc.a(lib_a-memmove.o)
 .debug_loc     0x00008233       0xa1 c:/software/altera/10.1/nios2eds/bin/gnu/h-i686-mingw32/bin/../lib/gcc/nios2-elf/4.1.2/../../../../nios2-elf/lib\libc.a(lib_a-memset.o)
 .debug_loc     0x000082d4     0x14d6 c:/software/altera/10.1/nios2eds/bin/gnu/h-i686-mingw32/bin/../lib/gcc/nios2-elf/4.1.2/../../../../nios2-elf/lib\libc.a(lib_a-mprec.o)
 .debug_loc     0x000097aa      0x20d c:/software/altera/10.1/nios2eds/bin/gnu/h-i686-mingw32/bin/../lib/gcc/nios2-elf/4.1.2/../../../../nios2-elf/lib\libc.a(lib_a-putc.o)
 .debug_loc     0x000099b7      0x8c0 c:/software/altera/10.1/nios2eds/bin/gnu/h-i686-mingw32/bin/../lib/gcc/nios2-elf/4.1.2/../../../../nios2-elf/lib\libc.a(lib_a-reallocr.o)
 .debug_loc     0x0000a277       0x36 c:/software/altera/10.1/nios2eds/bin/gnu/h-i686-mingw32/bin/../lib/gcc/nios2-elf/4.1.2/../../../../nios2-elf/lib\libc.a(lib_a-s_isinfd.o)
 .debug_loc     0x0000a2ad       0x18 c:/software/altera/10.1/nios2eds/bin/gnu/h-i686-mingw32/bin/../lib/gcc/nios2-elf/4.1.2/../../../../nios2-elf/lib\libc.a(lib_a-s_isnand.o)
 .debug_loc     0x0000a2c5      0x21f c:/software/altera/10.1/nios2eds/bin/gnu/h-i686-mingw32/bin/../lib/gcc/nios2-elf/4.1.2/../../../../nios2-elf/lib\libc.a(lib_a-stdio.o)
 .debug_loc     0x0000a4e4       0x65 c:/software/altera/10.1/nios2eds/bin/gnu/h-i686-mingw32/bin/../lib/gcc/nios2-elf/4.1.2/../../../../nios2-elf/lib\libc.a(lib_a-strcmp.o)
 .debug_loc     0x0000a549      0x157 c:/software/altera/10.1/nios2eds/bin/gnu/h-i686-mingw32/bin/../lib/gcc/nios2-elf/4.1.2/../../../../nios2-elf/lib\libc.a(lib_a-wbuf.o)
 .debug_loc     0x0000a6a0       0x97 c:/software/altera/10.1/nios2eds/bin/gnu/h-i686-mingw32/bin/../lib/gcc/nios2-elf/4.1.2/../../../../nios2-elf/lib\libc.a(lib_a-writer.o)
 .debug_loc     0x0000a737       0xe9 c:/software/altera/10.1/nios2eds/bin/gnu/h-i686-mingw32/bin/../lib/gcc/nios2-elf/4.1.2/../../../../nios2-elf/lib\libc.a(lib_a-callocr.o)
 .debug_loc     0x0000a820       0x5b c:/software/altera/10.1/nios2eds/bin/gnu/h-i686-mingw32/bin/../lib/gcc/nios2-elf/4.1.2/../../../../nios2-elf/lib\libc.a(lib_a-closer.o)
 .debug_loc     0x0000a87b       0xe4 c:/software/altera/10.1/nios2eds/bin/gnu/h-i686-mingw32/bin/../lib/gcc/nios2-elf/4.1.2/../../../../nios2-elf/lib\libc.a(lib_a-fclose.o)
 .debug_loc     0x0000a95f       0x79 c:/software/altera/10.1/nios2eds/bin/gnu/h-i686-mingw32/bin/../lib/gcc/nios2-elf/4.1.2/../../../../nios2-elf/lib\libc.a(lib_a-fstatr.o)
 .debug_loc     0x0000a9d8       0x5b c:/software/altera/10.1/nios2eds/bin/gnu/h-i686-mingw32/bin/../lib/gcc/nios2-elf/4.1.2/../../../../nios2-elf/lib\libc.a(lib_a-isattyr.o)
 .debug_loc     0x0000aa33       0x97 c:/software/altera/10.1/nios2eds/bin/gnu/h-i686-mingw32/bin/../lib/gcc/nios2-elf/4.1.2/../../../../nios2-elf/lib\libc.a(lib_a-lseekr.o)
 .debug_loc     0x0000aaca       0x97 c:/software/altera/10.1/nios2eds/bin/gnu/h-i686-mingw32/bin/../lib/gcc/nios2-elf/4.1.2/../../../../nios2-elf/lib\libc.a(lib_a-readr.o)
 .debug_loc     0x0000ab61      0xc12 c:/software/altera/10.1/nios2eds/bin/gnu/h-i686-mingw32/bin/../lib/gcc/nios2-elf/4.1.2\libgcc.a(_udivdi3.o)
 .debug_loc     0x0000b773      0xc31 c:/software/altera/10.1/nios2eds/bin/gnu/h-i686-mingw32/bin/../lib/gcc/nios2-elf/4.1.2\libgcc.a(_umoddi3.o)
 .debug_loc     0x0000c3a4      0x1df c:/software/altera/10.1/nios2eds/bin/gnu/h-i686-mingw32/bin/../lib/gcc/nios2-elf/4.1.2\libgcc.a(_div_df.o)
 .debug_loc     0x0000c583       0x70 c:/software/altera/10.1/nios2eds/bin/gnu/h-i686-mingw32/bin/../lib/gcc/nios2-elf/4.1.2\libgcc.a(_eq_df.o)
 .debug_loc     0x0000c5f3       0x70 c:/software/altera/10.1/nios2eds/bin/gnu/h-i686-mingw32/bin/../lib/gcc/nios2-elf/4.1.2\libgcc.a(_ne_df.o)
 .debug_loc     0x0000c663       0x70 c:/software/altera/10.1/nios2eds/bin/gnu/h-i686-mingw32/bin/../lib/gcc/nios2-elf/4.1.2\libgcc.a(_ge_df.o)
 .debug_loc     0x0000c6d3       0x70 c:/software/altera/10.1/nios2eds/bin/gnu/h-i686-mingw32/bin/../lib/gcc/nios2-elf/4.1.2\libgcc.a(_lt_df.o)
 .debug_loc     0x0000c743       0x9a c:/software/altera/10.1/nios2eds/bin/gnu/h-i686-mingw32/bin/../lib/gcc/nios2-elf/4.1.2\libgcc.a(_si_to_df.o)
 .debug_loc     0x0000c7dd       0x56 ../multi_test_1_bsp\libhal_bsp.a(alt_close.o)
 .debug_loc     0x0000c833       0x2b ../multi_test_1_bsp\libhal_bsp.a(alt_dcache_flush_all.o)
 .debug_loc     0x0000c85e       0x2b ../multi_test_1_bsp\libhal_bsp.a(alt_dev.o)
 .debug_loc     0x0000c889       0x56 ../multi_test_1_bsp\libhal_bsp.a(alt_exit.o)
 .debug_loc     0x0000c8df       0x56 ../multi_test_1_bsp\libhal_bsp.a(alt_fstat.o)
 .debug_loc     0x0000c935       0x2c ../multi_test_1_bsp\libhal_bsp.a(alt_irq_register.o)
 .debug_loc     0x0000c961       0x57 ../multi_test_1_bsp\libhal_bsp.a(alt_isatty.o)
 .debug_loc     0x0000c9b8       0x56 ../multi_test_1_bsp\libhal_bsp.a(alt_load.o)
 .debug_loc     0x0000ca0e       0x56 ../multi_test_1_bsp\libhal_bsp.a(alt_lseek.o)
 .debug_loc     0x0000ca64       0x2b ../multi_test_1_bsp\libhal_bsp.a(alt_main.o)
 .debug_loc     0x0000ca8f       0x56 ../multi_test_1_bsp\libhal_bsp.a(alt_malloc_lock.o)
 .debug_loc     0x0000cae5       0x56 ../multi_test_1_bsp\libhal_bsp.a(alt_read.o)
 .debug_loc     0x0000cb3b       0x2b ../multi_test_1_bsp\libhal_bsp.a(alt_release_fd.o)
 .debug_loc     0x0000cb66       0x2b ../multi_test_1_bsp\libhal_bsp.a(alt_sbrk.o)
 .debug_loc     0x0000cb91       0x56 ../multi_test_1_bsp\libhal_bsp.a(alt_write.o)
 .debug_loc     0x0000cbe7       0x81 ../multi_test_1_bsp\libhal_bsp.a(alt_sys_init.o)
 .debug_loc     0x0000cc68       0xac ../multi_test_1_bsp\libhal_bsp.a(altera_avalon_jtag_uart_fd.o)
 .debug_loc     0x0000cd14       0xac ../multi_test_1_bsp\libhal_bsp.a(altera_avalon_jtag_uart_init.o)
 .debug_loc     0x0000cdc0       0x2b ../multi_test_1_bsp\libhal_bsp.a(altera_avalon_jtag_uart_ioctl.o)
 .debug_loc     0x0000cdeb       0x2b ../multi_test_1_bsp\libhal_bsp.a(altera_avalon_jtag_uart_read.o)
 .debug_loc     0x0000ce16       0x2b ../multi_test_1_bsp\libhal_bsp.a(altera_avalon_jtag_uart_write.o)
 .debug_loc     0x0000ce41      0x183 ../multi_test_1_bsp\libhal_bsp.a(altera_avalon_mailbox.o)
 .debug_loc     0x0000cfc4      0x183 ../multi_test_1_bsp\libhal_bsp.a(altera_avalon_mutex.o)
 .debug_loc     0x0000d147       0x56 ../multi_test_1_bsp\libhal_bsp.a(altera_avalon_timer_sc.o)
 .debug_loc     0x0000d19d      0x590 ../multi_test_1_bsp\libhal_bsp.a(altera_up_sd_card_avalon_interface.o)
 .debug_loc     0x0000d72d       0x2b ../multi_test_1_bsp\libhal_bsp.a(alt_alarm_start.o)
 .debug_loc     0x0000d758       0x56 ../multi_test_1_bsp\libhal_bsp.a(alt_dev_llist_insert.o)
 .debug_loc     0x0000d7ae       0x2b ../multi_test_1_bsp\libhal_bsp.a(alt_do_ctors.o)
 .debug_loc     0x0000d7d9       0x2b ../multi_test_1_bsp\libhal_bsp.a(alt_do_dtors.o)
 .debug_loc     0x0000d804       0x2b ../multi_test_1_bsp\libhal_bsp.a(alt_find_dev.o)
 .debug_loc     0x0000d82f       0x2b ../multi_test_1_bsp\libhal_bsp.a(alt_icache_flush_all.o)
 .debug_loc     0x0000d85a       0xac ../multi_test_1_bsp\libhal_bsp.a(alt_iic.o)
 .debug_loc     0x0000d906       0x2b ../multi_test_1_bsp\libhal_bsp.a(alt_iic_isr_register.o)
 .debug_loc     0x0000d931       0x56 ../multi_test_1_bsp\libhal_bsp.a(alt_io_redirect.o)
 .debug_loc     0x0000d987       0x2b ../multi_test_1_bsp\libhal_bsp.a(alt_irq_handler.o)
 .debug_loc     0x0000d9b2       0x81 ../multi_test_1_bsp\libhal_bsp.a(alt_open.o)
 .debug_loc     0x0000da33       0x56 ../multi_test_1_bsp\libhal_bsp.a(alt_tick.o)
 .debug_loc     0x0000da89       0x2b ../multi_test_1_bsp\libhal_bsp.a(altera_nios2_irq.o)
 .debug_loc     0x0000dab4       0x2b ../multi_test_1_bsp\libhal_bsp.a(alt_find_file.o)
 .debug_loc     0x0000dadf       0x2b ../multi_test_1_bsp\libhal_bsp.a(alt_get_fd.o)
 .debug_loc     0x0000db0a       0x2b ../multi_test_1_bsp\libhal_bsp.a(alt_icache_flush.o)
 .debug_loc     0x0000db35       0x1e c:/software/altera/10.1/nios2eds/bin/gnu/h-i686-mingw32/bin/../lib/gcc/nios2-elf/4.1.2/../../../../nios2-elf/lib\libc.a(lib_a-atexit.o)
 .debug_loc     0x0000db53      0x114 c:/software/altera/10.1/nios2eds/bin/gnu/h-i686-mingw32/bin/../lib/gcc/nios2-elf/4.1.2/../../../../nios2-elf/lib\libc.a(lib_a-memcmp.o)
 .debug_loc     0x0000dc67      0x120 c:/software/altera/10.1/nios2eds/bin/gnu/h-i686-mingw32/bin/../lib/gcc/nios2-elf/4.1.2/../../../../nios2-elf/lib\libc.a(lib_a-__atexit.o)

.debug_macinfo
 *(.debug_macinfo)

.debug_weaknames
 *(.debug_weaknames)

.debug_funcnames
 *(.debug_funcnames)

.debug_typenames
 *(.debug_typenames)

.debug_varnames
 *(.debug_varnames)

.debug_alt_sim_info
                0x00000000       0x30
 *(.debug_alt_sim_info)
 .debug_alt_sim_info
                0x00000000       0x30 ../multi_test_1_bsp/obj/HAL/src/crt0.o
                0x01000000                __alt_data_end = 0x1000000
                0x01000000                PROVIDE (__alt_stack_pointer, __alt_data_end)
                0x0083815c                PROVIDE (__alt_stack_limit, __alt_stack_base)
                0x0083815c                PROVIDE (__alt_heap_start, end)
                0x01000000                PROVIDE (__alt_heap_limit, 0x1000000)
OUTPUT(multi_test_1.elf elf32-littlenios2)

.debug_ranges   0x00000000      0xc60
 .debug_ranges  0x00000000       0x20 ../multi_test_1_bsp/obj/HAL/src/crt0.o
 .debug_ranges  0x00000020       0x58 obj/common/util.o
 .debug_ranges  0x00000078      0x138 obj/decoder/lossless_decode.o
 .debug_ranges  0x000001b0       0xb8 obj/decoder/mjpeg423_decoder.o
 .debug_ranges  0x00000268       0x30 obj/decoder/ycbcr_to_rgb.o
 .debug_ranges  0x00000298       0x18 obj/hello_world.o
 .debug_ranges  0x000002b0       0x40 obj/sd_card.o
 .debug_ranges  0x000002f0       0x30 c:/software/altera/10.1/nios2eds/bin/gnu/h-i686-mingw32/bin/../lib/gcc/nios2-elf/4.1.2\libgcc.a(_addsub_df.o)
 .debug_ranges  0x00000320       0x88 c:/software/altera/10.1/nios2eds/bin/gnu/h-i686-mingw32/bin/../lib/gcc/nios2-elf/4.1.2\libgcc.a(_mul_df.o)
 .debug_ranges  0x000003a8       0x18 c:/software/altera/10.1/nios2eds/bin/gnu/h-i686-mingw32/bin/../lib/gcc/nios2-elf/4.1.2\libgcc.a(_usi_to_df.o)
 .debug_ranges  0x000003c0       0x68 c:/software/altera/10.1/nios2eds/bin/gnu/h-i686-mingw32/bin/../lib/gcc/nios2-elf/4.1.2\libgcc.a(_muldi3.o)
 .debug_ranges  0x00000428       0x28 c:/software/altera/10.1/nios2eds/bin/gnu/h-i686-mingw32/bin/../lib/gcc/nios2-elf/4.1.2\libgcc.a(_clzsi2.o)
 .debug_ranges  0x00000450       0x28 c:/software/altera/10.1/nios2eds/bin/gnu/h-i686-mingw32/bin/../lib/gcc/nios2-elf/4.1.2\libgcc.a(_pack_df.o)
 .debug_ranges  0x00000478       0x70 c:/software/altera/10.1/nios2eds/bin/gnu/h-i686-mingw32/bin/../lib/gcc/nios2-elf/4.1.2/../../../../nios2-elf/lib\libc.a(lib_a-mallocr.o)
 .debug_ranges  0x000004e8      0x168 c:/software/altera/10.1/nios2eds/bin/gnu/h-i686-mingw32/bin/../lib/gcc/nios2-elf/4.1.2/../../../../nios2-elf/lib\libc.a(lib_a-vfprintf.o)
 .debug_ranges  0x00000650       0x18 c:/software/altera/10.1/nios2eds/bin/gnu/h-i686-mingw32/bin/../lib/gcc/nios2-elf/4.1.2/../../../../nios2-elf/lib\libc.a(lib_a-__call_atexit.o)
 .debug_ranges  0x00000668       0x20 c:/software/altera/10.1/nios2eds/bin/gnu/h-i686-mingw32/bin/../lib/gcc/nios2-elf/4.1.2/../../../../nios2-elf/lib\libc.a(lib_a-fflush.o)
 .debug_ranges  0x00000688       0x28 c:/software/altera/10.1/nios2eds/bin/gnu/h-i686-mingw32/bin/../lib/gcc/nios2-elf/4.1.2/../../../../nios2-elf/lib\libc.a(lib_a-fvwrite.o)
 .debug_ranges  0x000006b0       0xa0 c:/software/altera/10.1/nios2eds/bin/gnu/h-i686-mingw32/bin/../lib/gcc/nios2-elf/4.1.2/../../../../nios2-elf/lib\libc.a(lib_a-fwalk.o)
 .debug_ranges  0x00000750      0x110 c:/software/altera/10.1/nios2eds/bin/gnu/h-i686-mingw32/bin/../lib/gcc/nios2-elf/4.1.2/../../../../nios2-elf/lib\libc.a(lib_a-reallocr.o)
 .debug_ranges  0x00000860       0x38 c:/software/altera/10.1/nios2eds/bin/gnu/h-i686-mingw32/bin/../lib/gcc/nios2-elf/4.1.2/../../../../nios2-elf/lib\libc.a(lib_a-callocr.o)
 .debug_ranges  0x00000898      0x188 c:/software/altera/10.1/nios2eds/bin/gnu/h-i686-mingw32/bin/../lib/gcc/nios2-elf/4.1.2\libgcc.a(_udivdi3.o)
 .debug_ranges  0x00000a20      0x198 c:/software/altera/10.1/nios2eds/bin/gnu/h-i686-mingw32/bin/../lib/gcc/nios2-elf/4.1.2\libgcc.a(_umoddi3.o)
 .debug_ranges  0x00000bb8       0x50 c:/software/altera/10.1/nios2eds/bin/gnu/h-i686-mingw32/bin/../lib/gcc/nios2-elf/4.1.2\libgcc.a(_div_df.o)
 .debug_ranges  0x00000c08       0x28 ../multi_test_1_bsp\libhal_bsp.a(alt_irq_entry.o)
 .debug_ranges  0x00000c30       0x30 ../multi_test_1_bsp\libhal_bsp.a(alt_exception_entry.o)
