
multi_test_0.elf:     file format elf32-littlenios2
multi_test_0.elf
architecture: nios2, flags 0x00000112:
EXEC_P, HAS_SYMS, D_PAGED
start address 0x008003b4

Program Header:
    LOAD off    0x00000000 vaddr 0x00800000 paddr 0x00800000 align 2**12
         filesz 0x00000220 memsz 0x00000220 flags r-x
    LOAD off    0x00000220 vaddr 0x00800220 paddr 0x00800220 align 2**12
         filesz 0x0000fd08 memsz 0x0000fd08 flags r-x
    LOAD off    0x0000ff28 vaddr 0x0080ff28 paddr 0x00811c8c align 2**12
         filesz 0x00001d64 memsz 0x00001d64 flags rw-
    LOAD off    0x000129f0 vaddr 0x008139f0 paddr 0x008139f0 align 2**12
         filesz 0x00000000 memsz 0x00000308 flags rw-

Sections:
Idx Name          Size      VMA       LMA       File off  Algn
  0 .entry        00000020  00800200  00800200  00000200  2**5
                  CONTENTS, ALLOC, LOAD, READONLY, CODE
  1 .exceptions   00000194  00800220  00800220  00000220  2**2
                  CONTENTS, ALLOC, LOAD, READONLY, CODE
  2 .text         0000f6d4  008003b4  008003b4  000003b4  2**2
                  CONTENTS, ALLOC, LOAD, READONLY, CODE
  3 .rodata       000004a0  0080fa88  0080fa88  0000fa88  2**2
                  CONTENTS, ALLOC, LOAD, READONLY, DATA
  4 .rwdata       00001d64  0080ff28  00811c8c  0000ff28  2**2
                  CONTENTS, ALLOC, LOAD, DATA, SMALL_DATA
  5 .bss          00000308  008139f0  008139f0  000129f0  2**2
                  ALLOC, SMALL_DATA
  6 .comment      00000023  00000000  00000000  00011c8c  2**0
                  CONTENTS, READONLY
  7 .debug_aranges 00000db8  00000000  00000000  00011cb0  2**3
                  CONTENTS, READONLY, DEBUGGING
  8 .debug_pubnames 00001902  00000000  00000000  00012a68  2**0
                  CONTENTS, READONLY, DEBUGGING
  9 .debug_info   00027f4e  00000000  00000000  0001436a  2**0
                  CONTENTS, READONLY, DEBUGGING
 10 .debug_abbrev 0000880e  00000000  00000000  0003c2b8  2**0
                  CONTENTS, READONLY, DEBUGGING
 11 .debug_line   00017033  00000000  00000000  00044ac6  2**0
                  CONTENTS, READONLY, DEBUGGING
 12 .debug_frame  00001d90  00000000  00000000  0005bafc  2**2
                  CONTENTS, READONLY, DEBUGGING
 13 .debug_str    0000278c  00000000  00000000  0005d88c  2**0
                  CONTENTS, READONLY, DEBUGGING
 14 .debug_loc    0000cf80  00000000  00000000  00060018  2**0
                  CONTENTS, READONLY, DEBUGGING
 15 .debug_alt_sim_info 00000030  00000000  00000000  0006cf98  2**2
                  CONTENTS, READONLY, DEBUGGING
 16 .debug_ranges 00000b68  00000000  00000000  0006cfc8  2**3
                  CONTENTS, READONLY, DEBUGGING
 17 .thread_model 00000003  00000000  00000000  000713ae  2**0
                  CONTENTS, READONLY
 18 .cpu          00000005  00000000  00000000  000713b1  2**0
                  CONTENTS, READONLY
 19 .simulation_enabled 00000001  00000000  00000000  000713b6  2**0
                  CONTENTS, READONLY
 20 .sysid_hash   00000004  00000000  00000000  000713b7  2**0
                  CONTENTS, READONLY
 21 .sysid_base   00000004  00000000  00000000  000713bb  2**0
                  CONTENTS, READONLY
 22 .sysid_time   00000004  00000000  00000000  000713bf  2**0
                  CONTENTS, READONLY
 23 .stderr_dev   0000000b  00000000  00000000  000713c3  2**0
                  CONTENTS, READONLY
 24 .stdin_dev    0000000b  00000000  00000000  000713ce  2**0
                  CONTENTS, READONLY
 25 .stdout_dev   0000000b  00000000  00000000  000713d9  2**0
                  CONTENTS, READONLY
 26 .sopc_system_name 00000007  00000000  00000000  000713e4  2**0
                  CONTENTS, READONLY
 27 .quartus_project_dir 0000001c  00000000  00000000  000713eb  2**0
                  CONTENTS, READONLY
 28 .jdi          000082e5  00000000  00000000  00071407  2**0
                  CONTENTS, READONLY
SYMBOL TABLE:
00800200 l    d  .entry	00000000 .entry
00800220 l    d  .exceptions	00000000 .exceptions
008003b4 l    d  .text	00000000 .text
0080fa88 l    d  .rodata	00000000 .rodata
0080ff28 l    d  .rwdata	00000000 .rwdata
008139f0 l    d  .bss	00000000 .bss
00000000 l    d  .comment	00000000 .comment
00000000 l    d  .debug_aranges	00000000 .debug_aranges
00000000 l    d  .debug_pubnames	00000000 .debug_pubnames
00000000 l    d  .debug_info	00000000 .debug_info
00000000 l    d  .debug_abbrev	00000000 .debug_abbrev
00000000 l    d  .debug_line	00000000 .debug_line
00000000 l    d  .debug_frame	00000000 .debug_frame
00000000 l    d  .debug_str	00000000 .debug_str
00000000 l    d  .debug_loc	00000000 .debug_loc
00000000 l    d  .debug_alt_sim_info	00000000 .debug_alt_sim_info
00000000 l    d  .debug_ranges	00000000 .debug_ranges
008003fc l       .text	00000000 alt_after_alt_main
00000000 l    df *ABS*	00000000 alt_irq_handler.c
00000000 l    df *ABS*	00000000 tables.c
00000000 l    df *ABS*	00000000 util.c
00000000 l    df *ABS*	00000000 idct.c
00000000 l    df *ABS*	00000000 lossless_decode.c
00000000 l    df *ABS*	00000000 ycbcr_to_rgb.c
00000000 l    df *ABS*	00000000 hello_world.c
00801124 l     F .text	00000060 timer0_ISR
00000000 l    df *ABS*	00000000 exit.c
00000000 l    df *ABS*	00000000 impure.c
00810128 l     O .rwdata	00000400 impure_data
00000000 l    df *ABS*	00000000 int_errno.c
00000000 l    df *ABS*	00000000 printf.c
00000000 l    df *ABS*	00000000 putchar.c
00000000 l    df *ABS*	00000000 vfprintf.c
00801500 l     F .text	00000058 __sprint_r
0080fb8e l     O .rodata	00000010 blanks.3452
0080fb7e l     O .rodata	00000010 zeroes.3453
00000000 l    df *ABS*	00000000 wsetup.c
00000000 l    df *ABS*	00000000 __call_atexit.c
00803564 l     F .text	00000004 register_fini
00000000 l    df *ABS*	00000000 dtoa.c
00803718 l     F .text	00000218 quorem
00000000 l    df *ABS*	00000000 fflush.c
00000000 l    df *ABS*	00000000 findfp.c
00805114 l     F .text	00000058 std
00805220 l     F .text	00000008 __fp_lock
00805228 l     F .text	00000008 __fp_unlock
00000000 l    df *ABS*	00000000 mallocr.c
00000000 l    df *ABS*	00000000 fvwrite.c
00000000 l    df *ABS*	00000000 fwalk.c
00000000 l    df *ABS*	00000000 locale.c
00811c48 l     O .rwdata	00000004 charset
0080fbc0 l     O .rodata	00000030 lconv
00000000 l    df *ABS*	00000000 makebuf.c
00000000 l    df *ABS*	00000000 mallocr.c
00000000 l    df *ABS*	00000000 memchr.c
00000000 l    df *ABS*	00000000 memcpy.c
00000000 l    df *ABS*	00000000 memmove.c
00000000 l    df *ABS*	00000000 memset.c
00000000 l    df *ABS*	00000000 mprec.c
0080fd08 l     O .rodata	0000000c p05.2458
00000000 l    df *ABS*	00000000 putc.c
00000000 l    df *ABS*	00000000 mallocr.c
00000000 l    df *ABS*	00000000 s_isinfd.c
00000000 l    df *ABS*	00000000 s_isnand.c
00000000 l    df *ABS*	00000000 sbrkr.c
00000000 l    df *ABS*	00000000 stdio.c
00000000 l    df *ABS*	00000000 strcmp.c
00000000 l    df *ABS*	00000000 strlen.c
00000000 l    df *ABS*	00000000 wbuf.c
00000000 l    df *ABS*	00000000 writer.c
00000000 l    df *ABS*	00000000 mallocr.c
00000000 l    df *ABS*	00000000 closer.c
00000000 l    df *ABS*	00000000 fclose.c
00000000 l    df *ABS*	00000000 fstatr.c
00000000 l    df *ABS*	00000000 isattyr.c
00000000 l    df *ABS*	00000000 lseekr.c
00000000 l    df *ABS*	00000000 readr.c
00000000 l    df *ABS*	00000000 libgcc2.c
00000000 l    df *ABS*	00000000 libgcc2.c
00000000 l    df *ABS*	00000000 dp-bit.c
00809760 l     F .text	00000410 _fpadd_parts
00000000 l    df *ABS*	00000000 dp-bit.c
00000000 l    df *ABS*	00000000 dp-bit.c
00000000 l    df *ABS*	00000000 dp-bit.c
00000000 l    df *ABS*	00000000 dp-bit.c
00000000 l    df *ABS*	00000000 dp-bit.c
00000000 l    df *ABS*	00000000 dp-bit.c
00000000 l    df *ABS*	00000000 dp-bit.c
00000000 l    df *ABS*	00000000 dp-bit.c
00000000 l    df *ABS*	00000000 dp-bit.c
00000000 l    df *ABS*	00000000 dp-bit.c
00000000 l    df *ABS*	00000000 dp-bit.c
00000000 l    df *ABS*	00000000 lib2-divmod.c
0080a88c l     F .text	0000007c udivmodsi4
00000000 l    df *ABS*	00000000 libgcc2.c
00000000 l    df *ABS*	00000000 libgcc2.c
00000000 l    df *ABS*	00000000 libgcc2.c
00000000 l    df *ABS*	00000000 dp-bit.c
00000000 l    df *ABS*	00000000 dp-bit.c
00000000 l    df *ABS*	00000000 dp-bit.c
00000000 l    df *ABS*	00000000 alt_close.c
0080b100 l     F .text	00000060 alt_get_errno
00000000 l    df *ABS*	00000000 alt_dcache_flush_all.c
00000000 l    df *ABS*	00000000 alt_dev.c
0080b1a4 l     F .text	0000002c alt_dev_null_write
00000000 l    df *ABS*	00000000 alt_errno.c
00000000 l    df *ABS*	00000000 alt_exit.c
0080b1d0 l     F .text	00000040 alt_sim_halt
00000000 l    df *ABS*	00000000 alt_fstat.c
0080b304 l     F .text	00000060 alt_get_errno
00000000 l    df *ABS*	00000000 alt_irq_register.c
00000000 l    df *ABS*	00000000 alt_irq_vars.c
00000000 l    df *ABS*	00000000 alt_isatty.c
0080b5e4 l     F .text	00000060 alt_get_errno
00000000 l    df *ABS*	00000000 alt_load.c
0080b6c4 l     F .text	0000006c alt_load_section
00000000 l    df *ABS*	00000000 alt_lseek.c
0080b820 l     F .text	00000060 alt_get_errno
00000000 l    df *ABS*	00000000 alt_main.c
00000000 l    df *ABS*	00000000 alt_malloc_lock.c
00000000 l    df *ABS*	00000000 alt_read.c
0080ba4c l     F .text	00000060 alt_get_errno
00000000 l    df *ABS*	00000000 alt_release_fd.c
00000000 l    df *ABS*	00000000 alt_sbrk.c
00811c70 l     O .rwdata	00000004 heap_end
00000000 l    df *ABS*	00000000 alt_write.c
0080bce8 l     F .text	00000060 alt_get_errno
00000000 l    df *ABS*	00000000 alt_sys_init.c
00810ae4 l     O .rwdata	00001060 jtag_uart_0
00811b44 l     O .rwdata	0000003c mailbox_0
00811b80 l     O .rwdata	0000003c mailbox_1
00811bbc l     O .rwdata	00000054 video_pixel_buffer_dma_0
00811c10 l     O .rwdata	0000002c Altera_UP_SD_Card_Avalon_Interface_0
0080bff4 l     F .text	00000038 alt_dev_reg
00000000 l    df *ABS*	00000000 altera_avalon_jtag_uart_fd.c
00000000 l    df *ABS*	00000000 altera_avalon_jtag_uart_init.c
0080c234 l     F .text	00000228 altera_avalon_jtag_uart_irq
0080c45c l     F .text	000000b0 altera_avalon_jtag_uart_timeout
00000000 l    df *ABS*	00000000 altera_avalon_jtag_uart_ioctl.c
00000000 l    df *ABS*	00000000 altera_avalon_jtag_uart_read.c
00000000 l    df *ABS*	00000000 altera_avalon_jtag_uart_write.c
00000000 l    df *ABS*	00000000 altera_avalon_mailbox.c
0080cc30 l     F .text	0000006c alt_avalon_mutex_reg
0080cc9c l     F .text	00000060 alt_get_errno
0080ce30 l     F .text	00000050 alt_mailbox_increment_ptr
00000000 l    df *ABS*	00000000 altera_avalon_mutex.c
0080d000 l     F .text	0000007c alt_mutex_trylock
0080d0d4 l     F .text	00000060 alt_get_errno
00000000 l    df *ABS*	00000000 altera_avalon_timer_sc.c
0080d304 l     F .text	00000070 alt_avalon_timer_sc_irq
00000000 l    df *ABS*	00000000 altera_up_avalon_video_pixel_buffer_dma.c
00000000 l    df *ABS*	00000000 alt_alarm_start.c
00000000 l    df *ABS*	00000000 alt_dev_llist_insert.c
0080eb78 l     F .text	00000060 alt_get_errno
00000000 l    df *ABS*	00000000 alt_do_ctors.c
00000000 l    df *ABS*	00000000 alt_do_dtors.c
00000000 l    df *ABS*	00000000 alt_find_dev.c
00000000 l    df *ABS*	00000000 alt_icache_flush_all.c
00000000 l    df *ABS*	00000000 alt_iic.c
00000000 l    df *ABS*	00000000 alt_iic_isr_register.c
00000000 l    df *ABS*	00000000 alt_io_redirect.c
0080f030 l     F .text	000000c4 alt_open_fd
00000000 l    df *ABS*	00000000 alt_open.c
0080f16c l     F .text	000000dc alt_file_locked
0080f3d0 l     F .text	00000060 alt_get_errno
00000000 l    df *ABS*	00000000 alt_tick.c
00000000 l    df *ABS*	00000000 altera_nios2_irq.c
00000000 l    df *ABS*	00000000 alt_find_file.c
00000000 l    df *ABS*	00000000 alt_get_fd.c
00000000 l    df *ABS*	00000000 alt_icache_flush.c
00000000 l    df *ABS*	00000000 atexit.c
00000000 l    df *ABS*	00000000 memcmp.c
00000000 l    df *ABS*	00000000 __atexit.c
008014dc g     F .text	0000001c putchar
00806ed0 g     F .text	00000094 _mprec_log10
00806fbc g     F .text	00000088 __any_on
00808a74 g     F .text	00000070 _isatty_r
0080fce0 g     O .rodata	00000028 __mprec_tinytens
0080b880 g     F .text	0000006c alt_main
0080ce80 g     F .text	000000a8 altera_avalon_mailbox_pend
0080e070 g     F .text	000003d0 alt_up_pixel_buffer_dma_draw_vline
00813a68 g     O .bss	00000100 alt_irq
00808ae4 g     F .text	00000078 _lseek_r
00800f84 g     F .text	00000144 ycbcr_to_rgb
00811c8c g       *ABS*	00000000 __flash_rwdata_start
0080a280 g     F .text	00000088 __eqdf2
00813cf8 g       *ABS*	00000000 __alt_heap_start
0080cf28 g     F .text	000000d8 altera_avalon_mailbox_get
00801464 g     F .text	00000044 printf
0080ff28 g     O .rwdata	00000080 Yquant
00808380 g     F .text	00000068 __sseek
0080517c g     F .text	000000a4 __sinit
008085f4 g     F .text	00000130 __swbuf_r
00805e54 g     F .text	00000084 _setlocale_r
0080527c g     F .text	00000068 __sfmoreglue
0080b90c g     F .text	00000020 __malloc_unlock
0080694c g     F .text	000000e0 memmove
0080526c g     F .text	00000010 _cleanup
0080d194 g     F .text	00000040 altera_avalon_mutex_trylock
00807044 g     F .text	000000bc _Balloc
0080d444 g     F .text	000001a0 alt_up_pixel_buffer_dma_draw
0080a390 g     F .text	00000088 __gtdf2
00000000  w      *UND*	00000000 __errno
0080d404 g     F .text	00000040 alt_up_pixel_buffer_dma_open_dev
00800200 g     F .entry	0000001c __reset
0080d230 g     F .text	0000007c altera_avalon_mutex_is_mine
00800220 g       *ABS*	00000000 __flash_exceptions_start
00808a00 g     F .text	00000074 _fstat_r
00813a0c g     O .bss	00000004 errno
00813a30 g     O .bss	00000004 alt_argv
00819c3c g       *ABS*	00000000 _gp
0080d5e4 g     F .text	00000058 alt_up_pixel_buffer_dma_change_back_buffer_address
00810964 g     O .rwdata	00000180 alt_fd_list
008014f8 g     F .text	00000008 _putchar_r
0080eca0 g     F .text	00000094 alt_find_dev
008068ac g     F .text	000000a0 memcpy
00805260 g     F .text	0000000c _cleanup_r
0080a528 g     F .text	000000f8 __floatsidf
0080f0f4 g     F .text	00000078 alt_io_redirect
0080a4a0 g     F .text	00000088 __ltdf2
0080fa88 g       *ABS*	00000000 __DTOR_END__
0080f5d4 g     F .text	00000020 altera_nios2_irq_init
00806e20 g     F .text	000000b0 __ratio
0080cd74 g     F .text	000000bc altera_avalon_mailbox_post
0080d694 g     F .text	00000034 alt_up_pixel_buffer_dma_check_swap_buffers_status
0080c674 g     F .text	00000224 altera_avalon_jtag_uart_read
00000000  w      *UND*	00000000 malloc
008014a8 g     F .text	00000034 _printf_r
00800b3c g     F .text	00000448 lossless_decode
0080a9c8 g     F .text	00000008 __udivsi3
0080b524 g     F .text	000000c0 isatty
0080fbf0 g     O .rodata	000000c8 __mprec_tens
0080cd54 g     F .text	00000020 altera_avalon_mailbox_close
0080dd20 g     F .text	00000350 alt_up_pixel_buffer_dma_draw_hline
00805e30 g     F .text	00000008 __locale_charset
0080f7cc g     F .text	00000090 alt_icache_flush
00813a1c g     O .bss	00000004 __malloc_top_pad
008139f0 g     O .bss	00000004 flag
00811c44 g     O .rwdata	00000004 __mb_cur_max
00805e38 g     F .text	0000000c _localeconv_r
0080773c g     F .text	0000003c __i2b
00805814 g     F .text	0000049c __sfvwrite_r
00808308 g     F .text	00000070 _sbrk_r
0080e504 g     F .text	000000d0 helper_plot_pixel
00808b5c g     F .text	00000078 _read_r
00810528 g     O .rwdata	0000000c __lc_ctype
00811c64 g     O .rwdata	00000004 alt_max_fd
0080ae04 g     F .text	00000138 __unpack_d
008088dc g     F .text	00000110 _fclose_r
008050e0 g     F .text	00000034 fflush
00813a20 g     O .bss	00000004 __malloc_max_sbrked_mem
0080b364 g     F .text	000001c0 alt_irq_register
00809bf0 g     F .text	00000074 __adddf3
00806d00 g     F .text	00000120 __b2d
0080d6c8 g     F .text	00000164 alt_up_pixel_buffer_dma_clear_screen
008091b0 g     F .text	000005b0 __umoddi3
0080b730 g     F .text	000000f0 lseek
0080d2ac g     F .text	00000058 altera_avalon_mutex_first_lock
00800400 g     F .text	000000bc print_dct
00811c40 g     O .rwdata	00000004 _global_impure_ptr
00807ca4 g     F .text	000005f4 _realloc_r
00813cf8 g       *ABS*	00000000 __bss_end
0080ef38 g     F .text	000000f8 alt_iic_isr_register
0080d82c g     F .text	000004f4 alt_up_pixel_buffer_dma_draw_box
0080f4c8 g     F .text	0000010c alt_tick
00808bd4 g     F .text	000005dc __udivdi3
0080fcb8 g     O .rodata	00000028 __mprec_bigtens
00807998 g     F .text	00000120 __s2b
0080a6f8 g     F .text	00000194 __floatunsidf
00806c20 g     F .text	00000060 __mcmp
00805248 g     F .text	00000018 __fp_lock_all
0080eef0 g     F .text	00000048 alt_ic_irq_enabled
0080f430 g     F .text	00000098 alt_alarm_stop
00800ac0 g     F .text	0000007c input_AC
00813a28 g     O .bss	00000004 alt_irq_active
008002ec g     F .exceptions	000000c8 alt_irq_handler
0081093c g     O .rwdata	00000028 alt_dev_null
0080d07c g     F .text	00000058 altera_avalon_mutex_open
0080b160 g     F .text	00000044 alt_dcache_flush_all
00806aec g     F .text	00000070 __hi0bits
0080e440 g     F .text	000000c4 alt_up_pixel_buffer_dma_draw_rectangle
0080a620 g     F .text	000000d8 __fixdfsi
00811c8c g       *ABS*	00000000 __ram_rwdata_end
00811c5c g     O .rwdata	00000008 alt_dev_list
0080bbc8 g     F .text	00000120 write
00807bbc g     F .text	000000e8 _putc_r
0080e5d4 g     F .text	0000039c alt_up_pixel_buffer_dma_draw_line
00811c7c g     O .rwdata	00000008 alt_mutex_list
0080ff28 g       *ABS*	00000000 __ram_rodata_end
0080b230 g     F .text	000000d4 fstat
008139f8 g     O .bss	00000004 playing
00807878 g     F .text	00000120 __pow5mult
00813a10 g     O .bss	00000004 __nlocale_changed
0080a9d0 g     F .text	00000008 __umodsi3
00813cf8 g       *ABS*	00000000 end
0080c174 g     F .text	000000c0 altera_avalon_jtag_uart_init
0080fa84 g       *ABS*	00000000 __CTOR_LIST__
00820200 g       *ABS*	00000000 __alt_stack_pointer
0080d374 g     F .text	00000090 alt_avalon_timer_sc_init
0080aa70 g     F .text	00000080 __clzsi2
0080c898 g     F .text	00000240 altera_avalon_jtag_uart_write
0080cad8 g     F .text	00000158 alt_avalon_mailbox_init
0080516c g     F .text	00000004 __sfp_lock_acquire
008067c8 g     F .text	000000e4 memchr
00801558 g     F .text	00001eac ___vfprintf_internal_r
00805500 g     F .text	00000314 _free_r
00803568 g     F .text	000001b0 __call_exitprocs
00813a14 g     O .bss	00000004 __mlocale_changed
00811c50 g     O .rwdata	00000004 __malloc_sbrk_base
008003b4 g     F .text	0000004c _start
00813a38 g     O .bss	00000004 _alt_tick_rate
008004bc g     F .text	000000c4 print_block
00800580 g     F .text	00000108 print_bitstream
00807408 g     F .text	0000014c __lshift
00813a3c g     O .bss	00000004 _alt_nticks
0080b92c g     F .text	00000120 read
0080bd7c g     F .text	00000278 alt_sys_init
0080f8e4 g     F .text	00000134 __register_exitproc
0080d1d4 g     F .text	0000005c altera_avalon_mutex_unlock
00807554 g     F .text	000001e8 __multiply
0080c50c g     F .text	00000074 altera_avalon_jtag_uart_close
0080ff28 g       *ABS*	00000000 __ram_rwdata_start
0080fa88 g       *ABS*	00000000 __ram_rodata_start
00813a40 g     O .bss	00000028 __malloc_current_mallinfo
00807100 g     F .text	0000017c __d2b
0080c02c g     F .text	00000058 altera_avalon_jtag_uart_read_fd
0080f714 g     F .text	000000b8 alt_get_fd
0080af3c g     F .text	000000c8 __fpcmp_parts_d
0080886c g     F .text	00000070 _close_r
0080f870 g     F .text	00000074 memcmp
0080c0dc g     F .text	00000048 altera_avalon_jtag_uart_close_fd
00813cf8 g       *ABS*	00000000 __alt_stack_base
0080c124 g     F .text	00000050 altera_avalon_jtag_uart_ioctl_fd
008006a8 g     F .text	000002e8 idct
00803428 g     F .text	0000013c __swsetup_r
0080a028 g     F .text	00000258 __divdf3
008052e4 g     F .text	000000f0 __sfp
00806f64 g     F .text	00000058 __copybits
00810534 g     O .rwdata	00000408 __malloc_av_
00805178 g     F .text	00000004 __sinit_lock_release
00809c64 g     F .text	000003c4 __muldf3
00808464 g     F .text	00000060 __sread
008139f4 g     O .bss	00000004 counter
008139fc g     O .bss	00000004 backward
0080f5f4 g     F .text	00000120 alt_find_file
0080eac4 g     F .text	000000b4 alt_dev_llist_insert
0080b8ec g     F .text	00000020 __malloc_lock
0080bb0c g     F .text	000000bc sbrk
00804ee4 g     F .text	000001fc _fflush_r
008087b8 g     F .text	000000b4 _calloc_r
00800a4c g     F .text	00000074 input_DC
008139f0 g       *ABS*	00000000 __bss_start
00806a2c g     F .text	00000098 memset
008010c8 g     F .text	0000005c initTimer
00801184 g     F .text	000002a8 main
00813a34 g     O .bss	00000004 alt_envp
00813a24 g     O .bss	00000004 __malloc_max_total_mem
0080d63c g     F .text	00000058 alt_up_pixel_buffer_dma_swap_buffers
0080c084 g     F .text	00000058 altera_avalon_jtag_uart_write_fd
00808724 g     F .text	0000001c __swbuf
00808378 g     F .text	00000008 __sclose
00820200 g       *ABS*	00000000 __alt_heap_limit
008089ec g     F .text	00000014 fclose
00813b68 g     O .bss	00000190 _atexit0
0080d154 g     F .text	00000040 altera_avalon_mutex_lock
00803930 g     F .text	000015b4 _dtoa_r
00806088 g     F .text	00000740 _malloc_r
00811c68 g     O .rwdata	00000004 alt_errno
00805d78 g     F .text	000000b8 _fwalk
00813a00 g     O .bss	00000004 fastForward
00807ab8 g     F .text	00000104 putc
0080a908 g     F .text	00000060 __divsi3
0080fd14 g     O .rodata	00000014 __thenan_df
008053d4 g     F .text	0000012c _malloc_trim_r
0080fa88 g       *ABS*	00000000 __CTOR_END__
008084c4 g     F .text	000000bc strcmp
0080fa88 g       *ABS*	00000000 __flash_rodata_start
0080fa88 g       *ABS*	00000000 __DTOR_LIST__
0080a308 g     F .text	00000088 __nedf2
0080bd48 g     F .text	00000034 alt_irq_init
0080baac g     F .text	00000060 alt_release_fd
0080fd28 g     O .rodata	00000100 __clz_tab
00813a18 g     O .bss	00000004 _PathLocale
0080f85c g     F .text	00000014 atexit
00808740 g     F .text	00000078 _write_r
00805ed8 g     F .text	0000001c setlocale
00811c3c g     O .rwdata	00000004 _impure_ptr
00813a2c g     O .bss	00000004 alt_argc
0080ec3c g     F .text	00000064 _do_dtors
00810028 g     O .rwdata	00000100 zigzag_table
00800000 g       *ABS*	00000000 __alt_mem_sdram_0
00800220 g       .exceptions	00000000 alt_irq_entry
00800688 g     F .text	00000020 error_and_exit
00806c80 g     F .text	00000080 __ulp
00808298 g     F .text	00000040 __isinfd
00805230 g     F .text	00000018 __fp_unlock_all
00811c74 g     O .rwdata	00000008 alt_mailbox_list
00811c54 g     O .rwdata	00000008 alt_fs_list
00800220 g       *ABS*	00000000 __ram_exceptions_start
00805e44 g     F .text	00000010 localeconv
0080ed64 g     F .text	00000050 alt_ic_isr_register
00811c8c g       *ABS*	00000000 _edata
00800990 g     F .text	000000bc update_buffer
00813cf8 g       *ABS*	00000000 _end
008003b4 g       *ABS*	00000000 __ram_exceptions_end
0080c580 g     F .text	000000f4 altera_avalon_jtag_uart_ioctl
00813a04 g     O .bss	00000004 getNextFile
0080ee50 g     F .text	000000a0 alt_ic_irq_disable
008083e8 g     F .text	0000007c __swrite
00811c4c g     O .rwdata	00000004 __malloc_trim_threshold
0080142c g     F .text	00000038 exit
00805cb0 g     F .text	000000c8 _fwalk_reent
0080727c g     F .text	0000018c __mdiff
0080a968 g     F .text	00000060 __modsi3
00820200 g       *ABS*	00000000 __alt_data_end
00800220 g     F .exceptions	00000000 alt_exception
00805170 g     F .text	00000004 __sfp_lock_release
0080ccfc g     F .text	00000058 altera_avalon_mailbox_open
008082d8 g     F .text	00000030 __isnand
0080b210 g     F .text	00000020 _exit
0080e970 g     F .text	00000154 alt_alarm_start
0080a9d8 g     F .text	00000098 __muldi3
00813a08 g     O .bss	00000004 pixel_buf_dev
00805ef4 g     F .text	00000194 __smakebuf_r
00808580 g     F .text	00000074 strlen
0080f248 g     F .text	00000188 open
0080a418 g     F .text	00000088 __gedf2
0080ed34 g     F .text	00000030 alt_icache_flush_all
00811c6c g     O .rwdata	00000004 alt_priority_mask
0080ffa8 g     O .rwdata	00000080 Cquant
0080edb4 g     F .text	0000009c alt_ic_irq_enable
00803404 g     F .text	00000024 __vfprintf_internal
0080d134 g     F .text	00000020 altera_avalon_mutex_close
00809b70 g     F .text	00000080 __subdf3
00806b5c g     F .text	000000c4 __lo0bits
00811c84 g     O .rwdata	00000008 alt_alarm_list
0080ebd8 g     F .text	00000064 _do_ctors
0080b004 g     F .text	000000fc close
0080b644 g     F .text	00000080 alt_load
0080aaf0 g     F .text	00000314 __pack_d
00000000  w      *UND*	00000000 free
00805174 g     F .text	00000004 __sinit_lock_acquire
00807778 g     F .text	00000100 __multadd
00806ac4 g     F .text	00000028 _Bfree



Disassembly of section .entry:

00800200 <__reset>:
#if NIOS2_ICACHE_SIZE > 0 && defined(ALT_ALLOW_CODE_AT_RESET) && !defined(ALT_SIM_OPTIMIZE)
    /* Assume the instruction cache size is always a power of two. */
#if NIOS2_ICACHE_SIZE > 0x8000
    movhi r2, %hi(NIOS2_ICACHE_SIZE)
#else
    movui r2, NIOS2_ICACHE_SIZE
  800200:	00840014 	movui	r2,4096
#endif

0:
    initi r2
  800204:	1001483a 	initi	r2
    addi r2, r2, -NIOS2_ICACHE_LINE_SIZE
  800208:	10bff804 	addi	r2,r2,-32
    bgt r2, zero, 0b
  80020c:	00bffd16 	blt	zero,r2,800204 <__reset+0x4>
 * Jump to the _start entry point in the .text section if reset code
 * is allowed or if optimizing for RTL simulation.
 */
#if defined(ALT_ALLOW_CODE_AT_RESET) || defined(ALT_SIM_OPTIMIZE)
    /* Jump to the _start entry point in the .text section. */
    movhi r1, %hi(_start)
  800210:	00402034 	movhi	at,128
    ori r1, r1, %lo(_start)
  800214:	0840ed14 	ori	at,at,948
    jmp r1
  800218:	0800683a 	jmp	at
  80021c:	00000000 	call	0 <__alt_mem_sdram_0-0x800000>

Disassembly of section .exceptions:

00800220 <alt_exception>:
         * Process an exception.  For all exceptions we must preserve all
         * caller saved registers on the stack (See the Nios2 ABI
         * documentation for details).
         */

        addi  sp, sp, -76
  800220:	deffed04 	addi	sp,sp,-76

#endif

#endif

        stw   ra,  0(sp)
  800224:	dfc00015 	stw	ra,0(sp)
        /*
         * Leave a gap in the stack frame at 4(sp) for the muldiv handler to
         * store zero into.
         */

        stw   r1,   8(sp)
  800228:	d8400215 	stw	at,8(sp)
        stw   r2,  12(sp)
  80022c:	d8800315 	stw	r2,12(sp)
        stw   r3,  16(sp)
  800230:	d8c00415 	stw	r3,16(sp)
        stw   r4,  20(sp)
  800234:	d9000515 	stw	r4,20(sp)
        stw   r5,  24(sp)
  800238:	d9400615 	stw	r5,24(sp)
        stw   r6,  28(sp)
  80023c:	d9800715 	stw	r6,28(sp)
        stw   r7,  32(sp)
  800240:	d9c00815 	stw	r7,32(sp)

        rdctl r5, estatus
  800244:	000b307a 	rdctl	r5,estatus

        stw   r8,  36(sp)
  800248:	da000915 	stw	r8,36(sp)
        stw   r9,  40(sp)
  80024c:	da400a15 	stw	r9,40(sp)
        stw   r10, 44(sp)
  800250:	da800b15 	stw	r10,44(sp)
        stw   r11, 48(sp)
  800254:	dac00c15 	stw	r11,48(sp)
        stw   r12, 52(sp)
  800258:	db000d15 	stw	r12,52(sp)
        stw   r13, 56(sp)
  80025c:	db400e15 	stw	r13,56(sp)
        stw   r14, 60(sp)
  800260:	db800f15 	stw	r14,60(sp)
        stw   r15, 64(sp)
  800264:	dbc01015 	stw	r15,64(sp)
        /*
         * ea-4 contains the address of the instruction being executed
         * when the exception occured. For interrupt exceptions, we will
         * will be re-issue the isntruction. Store it in 72(sp)
         */
        stw   r5,  68(sp)  /* estatus */
  800268:	d9401115 	stw	r5,68(sp)
        addi  r15, ea, -4  /* instruction that caused exception */
  80026c:	ebffff04 	addi	r15,ea,-4
        stw   r15,  72(sp)
  800270:	dbc01215 	stw	r15,72(sp)
#else
        /*
         * Test to see if the exception was a software exception or caused 
         * by an external interrupt, and vector accordingly.
         */
        rdctl r4, ipending
  800274:	0009313a 	rdctl	r4,ipending
        andi  r2, r5, 1
  800278:	2880004c 	andi	r2,r5,1
        beq   r2, zero, .Lnot_irq
  80027c:	10000326 	beq	r2,zero,80028c <alt_exception+0x6c>
        beq   r4, zero, .Lnot_irq
  800280:	20000226 	beq	r4,zero,80028c <alt_exception+0x6c>
        /*
         * Now that all necessary registers have been preserved, call 
         * alt_irq_handler() to process the interrupts.
         */

        call alt_irq_handler
  800284:	08002ec0 	call	8002ec <alt_irq_handler>

        .section .exceptions.irqreturn, "xa"

        br    .Lexception_exit
  800288:	00000306 	br	800298 <alt_exception+0x78>
         * upon completion, so we write ea (address of instruction *after*
         * the one where the exception occured) into 72(sp). The actual
         * instruction that caused the exception is written in r2, which these
         * handlers will utilize.
         */
        stw   ea,  72(sp)  /* Don't re-issue */
  80028c:	df401215 	stw	ea,72(sp)
        ldw   r2, -4(ea)   /* Instruction that caused exception */
  800290:	e8bfff17 	ldw	r2,-4(ea)
#ifdef NIOS2_HAS_DEBUG_STUB
       /*
        *  Either tell the user now (if there is a debugger attached) or go into
        *  the debug monitor which will loop until a debugger is attached.
        */
        break
  800294:	003da03a 	break	0
        /* 
         * Restore the saved registers, so that all general purpose registers 
         * have been restored to their state at the time the interrupt occured.
         */

        ldw   r5,  68(sp)
  800298:	d9401117 	ldw	r5,68(sp)
        ldw   ea,  72(sp)  /* This becomes the PC once eret is executed */
  80029c:	df401217 	ldw	ea,72(sp)
        ldw   ra,   0(sp)
  8002a0:	dfc00017 	ldw	ra,0(sp)

        wrctl estatus, r5
  8002a4:	2801707a 	wrctl	estatus,r5

        ldw   r1,   8(sp)
  8002a8:	d8400217 	ldw	at,8(sp)
        ldw   r2,  12(sp)
  8002ac:	d8800317 	ldw	r2,12(sp)
        ldw   r3,  16(sp)
  8002b0:	d8c00417 	ldw	r3,16(sp)
        ldw   r4,  20(sp)
  8002b4:	d9000517 	ldw	r4,20(sp)
        ldw   r5,  24(sp)
  8002b8:	d9400617 	ldw	r5,24(sp)
        ldw   r6,  28(sp)
  8002bc:	d9800717 	ldw	r6,28(sp)
        ldw   r7,  32(sp)
  8002c0:	d9c00817 	ldw	r7,32(sp)
#ifdef ALT_STACK_CHECK
        ldw   et, %gprel(alt_exception_old_stack_limit)(gp)
#endif
#endif

        ldw   r8,  36(sp)
  8002c4:	da000917 	ldw	r8,36(sp)
        ldw   r9,  40(sp)
  8002c8:	da400a17 	ldw	r9,40(sp)
        ldw   r10, 44(sp)
  8002cc:	da800b17 	ldw	r10,44(sp)
        ldw   r11, 48(sp)
  8002d0:	dac00c17 	ldw	r11,48(sp)
        ldw   r12, 52(sp)
  8002d4:	db000d17 	ldw	r12,52(sp)
        ldw   r13, 56(sp)
  8002d8:	db400e17 	ldw	r13,56(sp)
        ldw   r14, 60(sp)
  8002dc:	db800f17 	ldw	r14,60(sp)
        ldw   r15, 64(sp)
  8002e0:	dbc01017 	ldw	r15,64(sp)
#endif

        ldw   sp,  76(sp)

#else
        addi  sp, sp, 76
  8002e4:	dec01304 	addi	sp,sp,76

        /*
         * Return to the interrupted instruction.
         */

        eret
  8002e8:	ef80083a 	eret

008002ec <alt_irq_handler>:
 * instruction is present if the macro ALT_CI_INTERRUPT_VECTOR defined.
 */

void alt_irq_handler (void) __attribute__ ((section (".exceptions")));
void alt_irq_handler (void)
{
  8002ec:	defff904 	addi	sp,sp,-28
  8002f0:	dfc00615 	stw	ra,24(sp)
  8002f4:	df000515 	stw	fp,20(sp)
  8002f8:	df000504 	addi	fp,sp,20
#ifndef NIOS2_EIC_PRESENT
static ALT_INLINE alt_u32 ALT_ALWAYS_INLINE alt_irq_pending (void)
{
  alt_u32 active;

  NIOS2_READ_IPENDING (active);
  8002fc:	0005313a 	rdctl	r2,ipending
  800300:	e0bffc15 	stw	r2,-16(fp)

  return active;
  800304:	e0bffc17 	ldw	r2,-16(fp)
   * Consider the case where the high priority interupt is asserted during
   * the interrupt entry sequence for a lower priority interrupt to see why
   * this is the case.
   */

  active = alt_irq_pending ();
  800308:	e0bfff15 	stw	r2,-4(fp)

  do
  {
    i = 0;
  80030c:	e03ffd15 	stw	zero,-12(fp)
    mask = 1;
  800310:	00800044 	movi	r2,1
  800314:	e0bffe15 	stw	r2,-8(fp)
     * called to clear the interrupt condition.
     */

    do
    {
      if (active & mask)
  800318:	e0ffff17 	ldw	r3,-4(fp)
  80031c:	e0bffe17 	ldw	r2,-8(fp)
  800320:	1884703a 	and	r2,r3,r2
  800324:	1005003a 	cmpeq	r2,r2,zero
  800328:	1000161e 	bne	r2,zero,800384 <alt_irq_handler+0x98>
      { 
#ifdef ALT_ENHANCED_INTERRUPT_API_PRESENT
        alt_irq[i].handler(alt_irq[i].context); 
  80032c:	e0bffd17 	ldw	r2,-12(fp)
  800330:	00c02074 	movhi	r3,129
  800334:	18ce9a04 	addi	r3,r3,14952
  800338:	100490fa 	slli	r2,r2,3
  80033c:	10c5883a 	add	r2,r2,r3
  800340:	11400017 	ldw	r5,0(r2)
  800344:	e0bffd17 	ldw	r2,-12(fp)
  800348:	00c02074 	movhi	r3,129
  80034c:	18ce9a04 	addi	r3,r3,14952
  800350:	100490fa 	slli	r2,r2,3
  800354:	10c5883a 	add	r2,r2,r3
  800358:	10800104 	addi	r2,r2,4
  80035c:	11000017 	ldw	r4,0(r2)
  800360:	283ee83a 	callr	r5
#ifndef NIOS2_EIC_PRESENT
static ALT_INLINE alt_u32 ALT_ALWAYS_INLINE alt_irq_pending (void)
{
  alt_u32 active;

  NIOS2_READ_IPENDING (active);
  800364:	0005313a 	rdctl	r2,ipending
  800368:	e0bffb15 	stw	r2,-20(fp)

  return active;
  80036c:	e0bffb17 	ldw	r2,-20(fp)
      mask <<= 1;
      i++;

    } while (1);

    active = alt_irq_pending ();
  800370:	e0bfff15 	stw	r2,-4(fp)
    
  } while (active);
  800374:	e0bfff17 	ldw	r2,-4(fp)
  800378:	1004c03a 	cmpne	r2,r2,zero
  80037c:	103fe31e 	bne	r2,zero,80030c <alt_irq_handler+0x20>
  800380:	00000706 	br	8003a0 <alt_irq_handler+0xb4>
#else
        alt_irq[i].handler(alt_irq[i].context, i); 
#endif
        break;
      }
      mask <<= 1;
  800384:	e0bffe17 	ldw	r2,-8(fp)
  800388:	1085883a 	add	r2,r2,r2
  80038c:	e0bffe15 	stw	r2,-8(fp)
      i++;
  800390:	e0bffd17 	ldw	r2,-12(fp)
  800394:	10800044 	addi	r2,r2,1
  800398:	e0bffd15 	stw	r2,-12(fp)

    } while (1);
  80039c:	003fde06 	br	800318 <alt_irq_handler+0x2c>
  /*
   * Notify the operating system that interrupt processing is complete.
   */ 

  ALT_OS_INT_EXIT();
}
  8003a0:	e037883a 	mov	sp,fp
  8003a4:	dfc00117 	ldw	ra,4(sp)
  8003a8:	df000017 	ldw	fp,0(sp)
  8003ac:	dec00204 	addi	sp,sp,8
  8003b0:	f800283a 	ret

Disassembly of section .text:

008003b4 <_start>:

    /* Assume the data cache size is always a power of two. */
#if NIOS2_DCACHE_SIZE > 0x8000
    movhi r2, %hi(NIOS2_DCACHE_SIZE)
#else
    movui r2, NIOS2_DCACHE_SIZE
  8003b4:	00840014 	movui	r2,4096
#endif

0:
    initd 0(r2)
  8003b8:	10000033 	initd	0(r2)
    addi r2, r2, -NIOS2_DCACHE_LINE_SIZE
  8003bc:	10bff804 	addi	r2,r2,-32
    bgt r2, zero, 0b
  8003c0:	00bffd16 	blt	zero,r2,8003b8 <_start+0x4>
#if (NIOS2_NUM_OF_SHADOW_REG_SETS == 0)    
    /*
     * Now that the caches are initialized, set up the stack pointer.
     * The value provided by the linker is assumed to be correctly aligned.
     */
    movhi sp, %hi(__alt_stack_pointer)
  8003c4:	06c020b4 	movhi	sp,130
    ori sp, sp, %lo(__alt_stack_pointer)
  8003c8:	dec08014 	ori	sp,sp,512

    /* Set up the global pointer. */
    movhi gp, %hi(_gp)
  8003cc:	06802074 	movhi	gp,129
    ori gp, gp, %lo(_gp)
  8003d0:	d6a70f14 	ori	gp,gp,39996
 */
#ifndef ALT_SIM_OPTIMIZE
    /* Log that the BSS is about to be cleared. */
    ALT_LOG_PUTS(alt_log_msg_bss)

    movhi r2, %hi(__bss_start)
  8003d4:	00802074 	movhi	r2,129
    ori r2, r2, %lo(__bss_start)
  8003d8:	108e7c14 	ori	r2,r2,14832

    movhi r3, %hi(__bss_end)
  8003dc:	00c02074 	movhi	r3,129
    ori r3, r3, %lo(__bss_end)
  8003e0:	18cf3e14 	ori	r3,r3,15608

    beq r2, r3, 1f
  8003e4:	10c00326 	beq	r2,r3,8003f4 <_start+0x40>

0:
    stw zero, (r2)
  8003e8:	10000015 	stw	zero,0(r2)
    addi r2, r2, 4
  8003ec:	10800104 	addi	r2,r2,4
    bltu r2, r3, 0b
  8003f0:	10fffd36 	bltu	r2,r3,8003e8 <_start+0x34>
     * section aren't defined until alt_load() has been called).
     */
    mov   et, zero
#endif

    call alt_load
  8003f4:	080b6440 	call	80b644 <alt_load>

    /* Log that alt_main is about to be called. */
    ALT_LOG_PUTS(alt_log_msg_alt_main)

    /* Call the C entry point. It should never return. */
    call alt_main
  8003f8:	080b8800 	call	80b880 <alt_main>

008003fc <alt_after_alt_main>:

    /* Wait in infinite loop in case alt_main does return. */
alt_after_alt_main:
    br alt_after_alt_main
  8003fc:	003fff06 	br	8003fc <alt_after_alt_main>

00800400 <print_dct>:
            else printf("%u\n", b[row][column]);
        } 
}

void print_dct(pdct_block_t b)
{
  800400:	defffd04 	addi	sp,sp,-12
  800404:	dc400115 	stw	r17,4(sp)
  800408:	dc000015 	stw	r16,0(sp)
  80040c:	dfc00215 	stw	ra,8(sp)
  800410:	2021883a 	mov	r16,r4
  800414:	0023883a 	mov	r17,zero
    for (int row = 0; row < 8; row++)
        for(int column = 0; column < 8; column++){
            if(column != 7) printf("%d,", b[row][column]);
  800418:	8140000f 	ldh	r5,0(r16)
  80041c:	01002074 	movhi	r4,129
  800420:	213ea204 	addi	r4,r4,-1400
        } 
}

void print_dct(pdct_block_t b)
{
    for (int row = 0; row < 8; row++)
  800424:	8c400044 	addi	r17,r17,1
        for(int column = 0; column < 8; column++){
            if(column != 7) printf("%d,", b[row][column]);
  800428:	08014640 	call	801464 <printf>
  80042c:	8140008f 	ldh	r5,2(r16)
  800430:	01002074 	movhi	r4,129
  800434:	213ea204 	addi	r4,r4,-1400
  800438:	08014640 	call	801464 <printf>
  80043c:	8140010f 	ldh	r5,4(r16)
  800440:	01002074 	movhi	r4,129
  800444:	213ea204 	addi	r4,r4,-1400
  800448:	08014640 	call	801464 <printf>
  80044c:	8140018f 	ldh	r5,6(r16)
  800450:	01002074 	movhi	r4,129
  800454:	213ea204 	addi	r4,r4,-1400
  800458:	08014640 	call	801464 <printf>
  80045c:	8140020f 	ldh	r5,8(r16)
  800460:	01002074 	movhi	r4,129
  800464:	213ea204 	addi	r4,r4,-1400
  800468:	08014640 	call	801464 <printf>
  80046c:	8140028f 	ldh	r5,10(r16)
  800470:	01002074 	movhi	r4,129
  800474:	213ea204 	addi	r4,r4,-1400
  800478:	08014640 	call	801464 <printf>
  80047c:	8140030f 	ldh	r5,12(r16)
  800480:	01002074 	movhi	r4,129
  800484:	213ea204 	addi	r4,r4,-1400
  800488:	08014640 	call	801464 <printf>
            else printf("%d\n", b[row][column]);
  80048c:	8140038f 	ldh	r5,14(r16)
  800490:	01002074 	movhi	r4,129
  800494:	213ea304 	addi	r4,r4,-1396
        } 
}

void print_dct(pdct_block_t b)
{
    for (int row = 0; row < 8; row++)
  800498:	84000404 	addi	r16,r16,16
        for(int column = 0; column < 8; column++){
            if(column != 7) printf("%d,", b[row][column]);
            else printf("%d\n", b[row][column]);
  80049c:	08014640 	call	801464 <printf>
        } 
}

void print_dct(pdct_block_t b)
{
    for (int row = 0; row < 8; row++)
  8004a0:	00c00204 	movi	r3,8
  8004a4:	88ffdc1e 	bne	r17,r3,800418 <print_dct+0x18>
        for(int column = 0; column < 8; column++){
            if(column != 7) printf("%d,", b[row][column]);
            else printf("%d\n", b[row][column]);
        } 
}
  8004a8:	dfc00217 	ldw	ra,8(sp)
  8004ac:	dc400117 	ldw	r17,4(sp)
  8004b0:	dc000017 	ldw	r16,0(sp)
  8004b4:	dec00304 	addi	sp,sp,12
  8004b8:	f800283a 	ret

008004bc <print_block>:
    printf("Error: %s\n", str);
    exit(-1);
}

void print_block(pcolor_block_t b)
{
  8004bc:	defffc04 	addi	sp,sp,-16
  8004c0:	dc800215 	stw	r18,8(sp)
  8004c4:	dc400115 	stw	r17,4(sp)
  8004c8:	dc000015 	stw	r16,0(sp)
  8004cc:	dfc00315 	stw	ra,12(sp)
  8004d0:	2021883a 	mov	r16,r4
  8004d4:	0023883a 	mov	r17,zero
  8004d8:	04800204 	movi	r18,8
    for (int row = 0; row < 8; row++)
        for(int column = 0; column < 8; column++){
            if(column != 7) printf("%d,", b[row][column]);
  8004dc:	81400003 	ldbu	r5,0(r16)
  8004e0:	01002074 	movhi	r4,129
  8004e4:	213ea204 	addi	r4,r4,-1400
    exit(-1);
}

void print_block(pcolor_block_t b)
{
    for (int row = 0; row < 8; row++)
  8004e8:	8c400044 	addi	r17,r17,1
        for(int column = 0; column < 8; column++){
            if(column != 7) printf("%d,", b[row][column]);
  8004ec:	08014640 	call	801464 <printf>
  8004f0:	81400043 	ldbu	r5,1(r16)
  8004f4:	01002074 	movhi	r4,129
  8004f8:	213ea204 	addi	r4,r4,-1400
  8004fc:	08014640 	call	801464 <printf>
  800500:	81400083 	ldbu	r5,2(r16)
  800504:	01002074 	movhi	r4,129
  800508:	213ea204 	addi	r4,r4,-1400
  80050c:	08014640 	call	801464 <printf>
  800510:	814000c3 	ldbu	r5,3(r16)
  800514:	01002074 	movhi	r4,129
  800518:	213ea204 	addi	r4,r4,-1400
  80051c:	08014640 	call	801464 <printf>
  800520:	81400103 	ldbu	r5,4(r16)
  800524:	01002074 	movhi	r4,129
  800528:	213ea204 	addi	r4,r4,-1400
  80052c:	08014640 	call	801464 <printf>
  800530:	81400143 	ldbu	r5,5(r16)
  800534:	01002074 	movhi	r4,129
  800538:	213ea204 	addi	r4,r4,-1400
  80053c:	08014640 	call	801464 <printf>
  800540:	81400183 	ldbu	r5,6(r16)
  800544:	01002074 	movhi	r4,129
  800548:	213ea204 	addi	r4,r4,-1400
  80054c:	08014640 	call	801464 <printf>
            else printf("%u\n", b[row][column]);
  800550:	814001c3 	ldbu	r5,7(r16)
  800554:	01002074 	movhi	r4,129
  800558:	213ea404 	addi	r4,r4,-1392
    exit(-1);
}

void print_block(pcolor_block_t b)
{
    for (int row = 0; row < 8; row++)
  80055c:	84000204 	addi	r16,r16,8
        for(int column = 0; column < 8; column++){
            if(column != 7) printf("%d,", b[row][column]);
            else printf("%u\n", b[row][column]);
  800560:	08014640 	call	801464 <printf>
    exit(-1);
}

void print_block(pcolor_block_t b)
{
    for (int row = 0; row < 8; row++)
  800564:	8cbfdd1e 	bne	r17,r18,8004dc <print_block+0x20>
        for(int column = 0; column < 8; column++){
            if(column != 7) printf("%d,", b[row][column]);
            else printf("%u\n", b[row][column]);
        } 
}
  800568:	dfc00317 	ldw	ra,12(sp)
  80056c:	dc800217 	ldw	r18,8(sp)
  800570:	dc400117 	ldw	r17,4(sp)
  800574:	dc000017 	ldw	r16,0(sp)
  800578:	dec00404 	addi	sp,sp,16
  80057c:	f800283a 	ret

00800580 <print_bitstream>:
            else printf("%d\n", b[row][column]);
        } 
}

void print_bitstream(int num_bytes, void* bitstream)
{
  800580:	defffd04 	addi	sp,sp,-12
  800584:	dfc00215 	stw	ra,8(sp)
  800588:	dc400115 	stw	r17,4(sp)
  80058c:	dc000015 	stw	r16,0(sp)
    for (int index = 0; index < num_bytes; index++)
  800590:	0100370e 	bge	zero,r4,800670 <print_bitstream+0xf0>
        for(int x = 0; x < 8 ; x++)
            printf("%u", (uint8_t)((((uint8_t*)bitstream)[index]) << x) >> 7);
    printf("\n");
  800594:	2821883a 	mov	r16,r5
  800598:	2923883a 	add	r17,r5,r4

void print_bitstream(int num_bytes, void* bitstream)
{
    for (int index = 0; index < num_bytes; index++)
        for(int x = 0; x < 8 ; x++)
            printf("%u", (uint8_t)((((uint8_t*)bitstream)[index]) << x) >> 7);
  80059c:	81400003 	ldbu	r5,0(r16)
  8005a0:	01002074 	movhi	r4,129
  8005a4:	213ea504 	addi	r4,r4,-1388
  8005a8:	280ad1fa 	srli	r5,r5,7
  8005ac:	08014640 	call	801464 <printf>
  8005b0:	81400003 	ldbu	r5,0(r16)
  8005b4:	01002074 	movhi	r4,129
  8005b8:	213ea504 	addi	r4,r4,-1388
  8005bc:	294b883a 	add	r5,r5,r5
  8005c0:	29403fcc 	andi	r5,r5,255
  8005c4:	280ad1fa 	srli	r5,r5,7
  8005c8:	08014640 	call	801464 <printf>
  8005cc:	81400003 	ldbu	r5,0(r16)
  8005d0:	01002074 	movhi	r4,129
  8005d4:	213ea504 	addi	r4,r4,-1388
  8005d8:	294b883a 	add	r5,r5,r5
  8005dc:	294b883a 	add	r5,r5,r5
  8005e0:	29403fcc 	andi	r5,r5,255
  8005e4:	280ad1fa 	srli	r5,r5,7
  8005e8:	08014640 	call	801464 <printf>
  8005ec:	81400003 	ldbu	r5,0(r16)
  8005f0:	01002074 	movhi	r4,129
  8005f4:	213ea504 	addi	r4,r4,-1388
  8005f8:	280ad13a 	srli	r5,r5,4
  8005fc:	2940004c 	andi	r5,r5,1
  800600:	08014640 	call	801464 <printf>
  800604:	81400003 	ldbu	r5,0(r16)
  800608:	01002074 	movhi	r4,129
  80060c:	213ea504 	addi	r4,r4,-1388
  800610:	280ad0fa 	srli	r5,r5,3
  800614:	2940004c 	andi	r5,r5,1
  800618:	08014640 	call	801464 <printf>
  80061c:	81400003 	ldbu	r5,0(r16)
  800620:	01002074 	movhi	r4,129
  800624:	213ea504 	addi	r4,r4,-1388
  800628:	280ad0ba 	srli	r5,r5,2
  80062c:	2940004c 	andi	r5,r5,1
  800630:	08014640 	call	801464 <printf>
  800634:	81400003 	ldbu	r5,0(r16)
  800638:	01002074 	movhi	r4,129
  80063c:	213ea504 	addi	r4,r4,-1388
  800640:	280ad07a 	srli	r5,r5,1
  800644:	2940004c 	andi	r5,r5,1
  800648:	08014640 	call	801464 <printf>
  80064c:	81400003 	ldbu	r5,0(r16)
  800650:	01002074 	movhi	r4,129
  800654:	213ea504 	addi	r4,r4,-1388
  800658:	84000044 	addi	r16,r16,1
  80065c:	280a91fa 	slli	r5,r5,7
  800660:	29403fcc 	andi	r5,r5,255
  800664:	280ac03a 	cmpne	r5,r5,zero
  800668:	08014640 	call	801464 <printf>
        } 
}

void print_bitstream(int num_bytes, void* bitstream)
{
    for (int index = 0; index < num_bytes; index++)
  80066c:	8c3fcb1e 	bne	r17,r16,80059c <print_bitstream+0x1c>
        for(int x = 0; x < 8 ; x++)
            printf("%u", (uint8_t)((((uint8_t*)bitstream)[index]) << x) >> 7);
    printf("\n");
  800670:	01000284 	movi	r4,10
}
  800674:	dfc00217 	ldw	ra,8(sp)
  800678:	dc400117 	ldw	r17,4(sp)
  80067c:	dc000017 	ldw	r16,0(sp)
  800680:	dec00304 	addi	sp,sp,12
void print_bitstream(int num_bytes, void* bitstream)
{
    for (int index = 0; index < num_bytes; index++)
        for(int x = 0; x < 8 ; x++)
            printf("%u", (uint8_t)((((uint8_t*)bitstream)[index]) << x) >> 7);
    printf("\n");
  800684:	08014dc1 	jmpi	8014dc <putchar>

00800688 <error_and_exit>:

#include <stdio.h>
#include <stdlib.h>
#include "util.h"

void error_and_exit(const char* str){
  800688:	deffff04 	addi	sp,sp,-4
  80068c:	200b883a 	mov	r5,r4
    printf("Error: %s\n", str);
  800690:	01002074 	movhi	r4,129
  800694:	213ea604 	addi	r4,r4,-1384

#include <stdio.h>
#include <stdlib.h>
#include "util.h"

void error_and_exit(const char* str){
  800698:	dfc00015 	stw	ra,0(sp)
    printf("Error: %s\n", str);
  80069c:	08014640 	call	801464 <printf>
    exit(-1);
  8006a0:	013fffc4 	movi	r4,-1
  8006a4:	080142c0 	call	80142c <exit>

008006a8 <idct>:
	 int scratchpad_input1,scratchpad_input2;
	 int scratchpad_output;

	 scratchpad_input1 = input[0];
	 scratchpad_input2 = input[1];
	 scratchpad_output= ALT_CI_2D_INTERFACE25_INST(0,scratchpad_input1,scratchpad_input2);
  8006a8:	21800017 	ldw	r6,0(r4)
  8006ac:	20800117 	ldw	r2,4(r4)
  8006b0:	308dc032 	custom	0,r6,r6,r2
	 //printf("1 %d\n",scratchpad_input1);
	 //printf("2 %d\n",scratchpad_input2);

	 scratchpad_input1 = input[2];
	 scratchpad_input2 = input[3];
	 scratchpad_output= ALT_CI_2D_INTERFACE25_INST( 0x10 ,scratchpad_input1,scratchpad_input2);
  8006b4:	20c00217 	ldw	r3,8(r4)
  8006b8:	20800317 	ldw	r2,12(r4)
  8006bc:	1887c432 	custom	16,r3,r3,r2
	 //printf("1 %d\n",scratchpad_input1);
	 //printf("2 %d\n",scratchpad_input2);

	 scratchpad_input1 = input[4];
	 scratchpad_input2 = input[5];
	 scratchpad_output= ALT_CI_2D_INTERFACE25_INST( 0x2 ,scratchpad_input1,scratchpad_input2);
  8006c0:	21800417 	ldw	r6,16(r4)
  8006c4:	20800517 	ldw	r2,20(r4)
  8006c8:	308dc0b2 	custom	2,r6,r6,r2
	 //printf("1 %d\n",scratchpad_input1);
	 //printf("2 %d\n",scratchpad_input2);

	 scratchpad_input1 = input[6];
	 scratchpad_input2 = input[7];
	 scratchpad_output= ALT_CI_2D_INTERFACE25_INST(0x12,scratchpad_input1,scratchpad_input2);
  8006cc:	20c00617 	ldw	r3,24(r4)
  8006d0:	20800717 	ldw	r2,28(r4)
  8006d4:	1887c4b2 	custom	18,r3,r3,r2
	 //printf("1 %d\n",scratchpad_input1);
	 //printf("2 %d\n",scratchpad_input2);

	 scratchpad_input1 = input[8];
	 scratchpad_input2 = input[9];
	 scratchpad_output= ALT_CI_2D_INTERFACE25_INST(0x4,scratchpad_input1,scratchpad_input2);
  8006d8:	21800817 	ldw	r6,32(r4)
  8006dc:	20800917 	ldw	r2,36(r4)
  8006e0:	308dc132 	custom	4,r6,r6,r2
	 //printf("1 %d\n",scratchpad_input1);
	 //printf("2 %d\n",scratchpad_input2);

	 scratchpad_input1 = input[10];
	 scratchpad_input2 = input[11];
	 scratchpad_output= ALT_CI_2D_INTERFACE25_INST(0x14,scratchpad_input1,scratchpad_input2);
  8006e4:	20c00a17 	ldw	r3,40(r4)
  8006e8:	20800b17 	ldw	r2,44(r4)
  8006ec:	1887c532 	custom	20,r3,r3,r2
	 //printf("2 %d\n",scratchpad_input2);
	 ////printf("%d\n",scratchpad_output);

	 scratchpad_input1 = input[12];
	 scratchpad_input2 = input[13];
	 scratchpad_output= ALT_CI_2D_INTERFACE25_INST(0x6,scratchpad_input1,scratchpad_input2);
  8006f0:	21800c17 	ldw	r6,48(r4)
  8006f4:	20800d17 	ldw	r2,52(r4)
  8006f8:	308dc1b2 	custom	6,r6,r6,r2
	 //printf("2 %d\n",scratchpad_input2);
	 ////printf("%d\n",scratchpad_output);

	 scratchpad_input1 = input[14];
	 scratchpad_input2 = input[15];
	 scratchpad_output= ALT_CI_2D_INTERFACE25_INST(0x16,scratchpad_input1,scratchpad_input2);
  8006fc:	20c00e17 	ldw	r3,56(r4)
  800700:	20800f17 	ldw	r2,60(r4)
  800704:	1887c5b2 	custom	22,r3,r3,r2
	 //printf("1 %d\n",scratchpad_input1);
	 //printf("2 %d\n",scratchpad_input2);

	 scratchpad_input1 = input[16];
	 scratchpad_input2 = input[17];
	 scratchpad_output= ALT_CI_2D_INTERFACE25_INST(0x08,scratchpad_input1,scratchpad_input2);
  800708:	21801017 	ldw	r6,64(r4)
  80070c:	20801117 	ldw	r2,68(r4)
  800710:	308dc232 	custom	8,r6,r6,r2
	 //printf("1 %d\n",scratchpad_input1);
	 //printf("2 %d\n",scratchpad_input2);

	 scratchpad_input1 = input[18];
	 scratchpad_input2 = input[19];
	 scratchpad_output= ALT_CI_2D_INTERFACE25_INST(0x18,scratchpad_input1,scratchpad_input2);
  800714:	20c01217 	ldw	r3,72(r4)
  800718:	20801317 	ldw	r2,76(r4)
  80071c:	1887c632 	custom	24,r3,r3,r2
	 //printf("1 %d\n",scratchpad_input1);
	 //printf("2 %d\n",scratchpad_input2);

	 scratchpad_input1 = input[20];
	 scratchpad_input2 = input[21];
	 scratchpad_output= ALT_CI_2D_INTERFACE25_INST(0x0a,scratchpad_input1,scratchpad_input2);
  800720:	21801417 	ldw	r6,80(r4)
  800724:	20801517 	ldw	r2,84(r4)
  800728:	308dc2b2 	custom	10,r6,r6,r2
	 //printf("1 %d\n",scratchpad_input1);
	 //printf("2 %d\n",scratchpad_input2);

	 scratchpad_input1 = input[22];
	 scratchpad_input2 = input[23];
	 scratchpad_output= ALT_CI_2D_INTERFACE25_INST(0x1a,scratchpad_input1,scratchpad_input2);
  80072c:	20c01617 	ldw	r3,88(r4)
  800730:	20801717 	ldw	r2,92(r4)
  800734:	1887c6b2 	custom	26,r3,r3,r2
	 //printf("1 %d\n",scratchpad_input1);
	 //printf("2 %d\n",scratchpad_input2);

	 scratchpad_input1 = input[24];
	 scratchpad_input2 = input[25];
	 scratchpad_output= ALT_CI_2D_INTERFACE25_INST(0x0c,scratchpad_input1,scratchpad_input2);
  800738:	21801817 	ldw	r6,96(r4)
  80073c:	20801917 	ldw	r2,100(r4)
  800740:	308dc332 	custom	12,r6,r6,r2
	 //printf("1 %d\n",scratchpad_input1);
	 //printf("2 %d\n",scratchpad_input2);

	 scratchpad_input1 = input[26];
	 scratchpad_input2 = input[27];
	 scratchpad_output= ALT_CI_2D_INTERFACE25_INST(0x1c,scratchpad_input1,scratchpad_input2);
  800744:	20c01a17 	ldw	r3,104(r4)
  800748:	20801b17 	ldw	r2,108(r4)
  80074c:	1887c732 	custom	28,r3,r3,r2
	 //printf("1 %d\n",scratchpad_input1);
	 //printf("2 %d\n",scratchpad_input2);

	 scratchpad_input1 = input[28];
	 scratchpad_input2 = input[29];
	 scratchpad_output= ALT_CI_2D_INTERFACE25_INST(0x0e,scratchpad_input1,scratchpad_input2);
  800750:	21801c17 	ldw	r6,112(r4)
  800754:	20801d17 	ldw	r2,116(r4)
  800758:	308dc3b2 	custom	14,r6,r6,r2
	 //printf("1 %d\n",scratchpad_input1);
	 //printf("2 %d\n",scratchpad_input2);

	 scratchpad_input1 = input[30];
	 scratchpad_input2 = input[31];
  80075c:	21c01f17 	ldw	r7,124(r4)
	 scratchpad_input2 = input[29];
	 scratchpad_output= ALT_CI_2D_INTERFACE25_INST(0x0e,scratchpad_input1,scratchpad_input2);
	 //printf("1 %d\n",scratchpad_input1);
	 //printf("2 %d\n",scratchpad_input2);

	 scratchpad_input1 = input[30];
  800760:	20801e17 	ldw	r2,120(r4)
	 scratchpad_input2 = input[31];
	 scratchpad_output= ALT_CI_2D_INTERFACE25_INST(0x1e,scratchpad_input1,scratchpad_input2);
  800764:	11c7c7b2 	custom	30,r3,r2,r7
	 //printf("1 %d\n",scratchpad_input1);
	 //printf("2 %d\n",scratchpad_input2);

	 ALT_CI_2D_INTERFACE25_INST(0x1e,scratchpad_input1,scratchpad_input2);
  800768:	11c5c7b2 	custom	30,r2,r2,r7
	 ////printf("1 %d\n",scratchpad_input1);
	 ////printf("2 %d\n",scratchpad_input2);

	 scratchpad_output = ALT_CI_2D_INTERFACE25_INST(0x01,0,0);
  80076c:	0007883a 	mov	r3,zero
  800770:	18c9c072 	custom	1,r4,r3,r3
	 //IOWR_8DIRECT(block, (0 << 3) + 0, scratchpad_output >> 16);
	 //IOWR_8DIRECT(block, (1 << 3) + 0, scratchpad_output & 0xffff);
	 block[0][0] = scratchpad_output >> 16;
  800774:	2005d43a 	srai	r2,r4,16
	 block[1][0] = scratchpad_output & 0xffff;
  800778:	2b400204 	addi	r13,r5,8
	 ////printf("2 %d\n",scratchpad_input2);

	 scratchpad_output = ALT_CI_2D_INTERFACE25_INST(0x01,0,0);
	 //IOWR_8DIRECT(block, (0 << 3) + 0, scratchpad_output >> 16);
	 //IOWR_8DIRECT(block, (1 << 3) + 0, scratchpad_output & 0xffff);
	 block[0][0] = scratchpad_output >> 16;
  80077c:	28800005 	stb	r2,0(r5)
	 block[1][0] = scratchpad_output & 0xffff;
  800780:	69000005 	stb	r4,0(r13)
	 //printf("**** %d\n",scratchpad_output);

	 scratchpad_output = ALT_CI_2D_INTERFACE25_INST(0x11,0,0);
  800784:	18cdc472 	custom	17,r6,r3,r3
	 //IOWR_8DIRECT(block, (2 << 3) + 0, scratchpad_output >> 16);
	 //IOWR_8DIRECT(block, (3 << 3) + 0, scratchpad_output & 0xffff);
	 block[2][0] = scratchpad_output >> 16;
  800788:	3005d43a 	srai	r2,r6,16
  80078c:	2ac00404 	addi	r11,r5,16
	 block[3][0] = scratchpad_output & 0xffff;
  800790:	2b000604 	addi	r12,r5,24
	 //printf("**** %d\n",scratchpad_output);

	 scratchpad_output = ALT_CI_2D_INTERFACE25_INST(0x11,0,0);
	 //IOWR_8DIRECT(block, (2 << 3) + 0, scratchpad_output >> 16);
	 //IOWR_8DIRECT(block, (3 << 3) + 0, scratchpad_output & 0xffff);
	 block[2][0] = scratchpad_output >> 16;
  800794:	58800005 	stb	r2,0(r11)
	 block[3][0] = scratchpad_output & 0xffff;
  800798:	61800005 	stb	r6,0(r12)
	 //printf("**** %d\n",scratchpad_output);

	 scratchpad_output = ALT_CI_2D_INTERFACE25_INST(0x21,0,0);
  80079c:	18c9c872 	custom	33,r4,r3,r3
	 //IOWR_8DIRECT(block, (4 << 3) + 0, scratchpad_output >> 16);
	 //IOWR_8DIRECT(block, (5 << 3) + 0, scratchpad_output & 0xffff);
	 block[4][0] = scratchpad_output >> 16;
  8007a0:	2005d43a 	srai	r2,r4,16
  8007a4:	2a400804 	addi	r9,r5,32
	 block[5][0] = scratchpad_output & 0xffff;
  8007a8:	2a800a04 	addi	r10,r5,40
	 //printf("**** %d\n",scratchpad_output);

	 scratchpad_output = ALT_CI_2D_INTERFACE25_INST(0x21,0,0);
	 //IOWR_8DIRECT(block, (4 << 3) + 0, scratchpad_output >> 16);
	 //IOWR_8DIRECT(block, (5 << 3) + 0, scratchpad_output & 0xffff);
	 block[4][0] = scratchpad_output >> 16;
  8007ac:	48800005 	stb	r2,0(r9)
	 block[5][0] = scratchpad_output & 0xffff;
  8007b0:	51000005 	stb	r4,0(r10)
	 //printf("**** %d\n",scratchpad_output);

	 scratchpad_output = ALT_CI_2D_INTERFACE25_INST(0x31,0,0);
  8007b4:	18cdcc72 	custom	49,r6,r3,r3
	 //IOWR_8DIRECT(block, (6 << 3) + 0, scratchpad_output >> 16);
	 //IOWR_8DIRECT(block, (7 << 3) + 0, scratchpad_output & 0xffff);
	 block[6][0] = scratchpad_output >> 16;
  8007b8:	3005d43a 	srai	r2,r6,16
  8007bc:	29c00c04 	addi	r7,r5,48
	 block[7][0] = scratchpad_output & 0xffff;
  8007c0:	2a000e04 	addi	r8,r5,56
	 //printf("**** %d\n",scratchpad_output);

	 scratchpad_output = ALT_CI_2D_INTERFACE25_INST(0x31,0,0);
	 //IOWR_8DIRECT(block, (6 << 3) + 0, scratchpad_output >> 16);
	 //IOWR_8DIRECT(block, (7 << 3) + 0, scratchpad_output & 0xffff);
	 block[6][0] = scratchpad_output >> 16;
  8007c4:	38800005 	stb	r2,0(r7)
	 block[7][0] = scratchpad_output & 0xffff;
  8007c8:	41800005 	stb	r6,0(r8)
	 //printf("**** %d\n",scratchpad_output);

	 scratchpad_output = ALT_CI_2D_INTERFACE25_INST(0x03,0,0);
  8007cc:	18c9c0f2 	custom	3,r4,r3,r3
	 //IOWR_8DIRECT(block, (0 << 3) + 1, scratchpad_output >> 16);
	 //IOWR_8DIRECT(block, (1 << 3) + 1, scratchpad_output & 0xffff);
	 block[0][1] = scratchpad_output >> 16;
  8007d0:	2005d43a 	srai	r2,r4,16
  8007d4:	28800045 	stb	r2,1(r5)
	 block[1][1] = scratchpad_output & 0xffff;
  8007d8:	69000045 	stb	r4,1(r13)
	 //printf("**** %d\n",scratchpad_output);

	 scratchpad_output = ALT_CI_2D_INTERFACE25_INST(0x13,0,0);
  8007dc:	18cdc4f2 	custom	19,r6,r3,r3
	 //IOWR_8DIRECT(block, (2 << 3) + 1, scratchpad_output >> 16);
	 //IOWR_8DIRECT(block, (3 << 3) + 1, scratchpad_output & 0xffff);
	 block[2][1] = scratchpad_output >> 16;
  8007e0:	3005d43a 	srai	r2,r6,16
  8007e4:	58800045 	stb	r2,1(r11)
	 block[3][1] = scratchpad_output & 0xffff;
  8007e8:	61800045 	stb	r6,1(r12)
	 //printf("**** %d\n",scratchpad_output);

	 scratchpad_output = ALT_CI_2D_INTERFACE25_INST(0x23,0,0);
  8007ec:	18c9c8f2 	custom	35,r4,r3,r3
	 //IOWR_8DIRECT(block, (4 << 3) + 1, scratchpad_output >> 16);
	 //IOWR_8DIRECT(block, (5 << 3) + 1, scratchpad_output & 0xffff);
	 block[4][1] = scratchpad_output >> 16;
  8007f0:	2005d43a 	srai	r2,r4,16
  8007f4:	48800045 	stb	r2,1(r9)
	 block[5][1] = scratchpad_output & 0xffff;
  8007f8:	51000045 	stb	r4,1(r10)
	 //printf("**** %d\n",scratchpad_output);

	 scratchpad_output = ALT_CI_2D_INTERFACE25_INST(0x33,0,0);
  8007fc:	18cdccf2 	custom	51,r6,r3,r3
	 //IOWR_8DIRECT(block, (6 << 3) + 1, scratchpad_output >> 16);
	 //IOWR_8DIRECT(block, (7 << 3) + 1, scratchpad_output & 0xffff);
	 block[6][1] = scratchpad_output >> 16;
  800800:	3005d43a 	srai	r2,r6,16
  800804:	38800045 	stb	r2,1(r7)
	 block[7][1] = scratchpad_output & 0xffff;
  800808:	41800045 	stb	r6,1(r8)
	 //printf("**** %d\n",scratchpad_output);

	 scratchpad_output = ALT_CI_2D_INTERFACE25_INST(0x05,0,0);
  80080c:	18c9c172 	custom	5,r4,r3,r3
	 //IOWR_8DIRECT(block, (0 << 3) + 2, scratchpad_output >> 16);
	 //IOWR_8DIRECT(block, (1 << 3) + 2, scratchpad_output & 0xffff);
	 block[0][2] = scratchpad_output >> 16;
  800810:	2005d43a 	srai	r2,r4,16
  800814:	28800085 	stb	r2,2(r5)
	 block[1][2] = scratchpad_output & 0xffff;
  800818:	69000085 	stb	r4,2(r13)
	 //printf("**** %d\n",scratchpad_output);

	 scratchpad_output = ALT_CI_2D_INTERFACE25_INST(0x15,0,0);
  80081c:	18cdc572 	custom	21,r6,r3,r3
	 //IOWR_8DIRECT(block, (2 << 3) + 2, scratchpad_output >> 16);
	 //IOWR_8DIRECT(block, (3 << 3) + 2, scratchpad_output & 0xffff);
	 block[2][2] = scratchpad_output >> 16;
  800820:	3005d43a 	srai	r2,r6,16
  800824:	58800085 	stb	r2,2(r11)
	 block[3][2] = scratchpad_output & 0xffff;
  800828:	61800085 	stb	r6,2(r12)
	 //printf("**** %d\n",scratchpad_output);

	 scratchpad_output = ALT_CI_2D_INTERFACE25_INST(0x25,0,0);
  80082c:	18c9c972 	custom	37,r4,r3,r3
	 //IOWR_8DIRECT(block, (4 << 3) + 2, scratchpad_output >> 16);
	 //IOWR_8DIRECT(block, (5 << 3) + 2, scratchpad_output & 0xffff);
	 block[4][2] = scratchpad_output >> 16;
  800830:	2005d43a 	srai	r2,r4,16
  800834:	48800085 	stb	r2,2(r9)
	 block[5][2] = scratchpad_output & 0xffff;
  800838:	51000085 	stb	r4,2(r10)
	 //printf("**** %d\n",scratchpad_output);

	 scratchpad_output = ALT_CI_2D_INTERFACE25_INST(0x35,0,0);
  80083c:	18cdcd72 	custom	53,r6,r3,r3
	 //IOWR_8DIRECT(block, (6 << 3) + 2, scratchpad_output >> 16);
	 //IOWR_8DIRECT(block, (7 << 3) + 2, scratchpad_output & 0xffff);
	 block[6][2] = scratchpad_output >> 16;
  800840:	3005d43a 	srai	r2,r6,16
  800844:	38800085 	stb	r2,2(r7)
	 block[7][2] = scratchpad_output & 0xffff;
  800848:	41800085 	stb	r6,2(r8)
	 //printf("**** %d\n",scratchpad_output);

	 scratchpad_output = ALT_CI_2D_INTERFACE25_INST(0x07,0,0);
  80084c:	18c9c1f2 	custom	7,r4,r3,r3
	 //IOWR_8DIRECT(block, (0 << 3) + 3, scratchpad_output >> 16);
	 //IOWR_8DIRECT(block, (1 << 3) + 3, scratchpad_output & 0xffff);
	 block[0][3] = scratchpad_output >> 16;
  800850:	2005d43a 	srai	r2,r4,16
  800854:	288000c5 	stb	r2,3(r5)
	 block[1][3] = scratchpad_output & 0xffff;
  800858:	690000c5 	stb	r4,3(r13)
	 //printf("**** %d\n",scratchpad_output);

	 scratchpad_output = ALT_CI_2D_INTERFACE25_INST(0x17,0,0);
  80085c:	18cdc5f2 	custom	23,r6,r3,r3
	 //IOWR_8DIRECT(block, (2 << 3) + 3, scratchpad_output >> 16);
	 //IOWR_8DIRECT(block, (3 << 3) + 3, scratchpad_output & 0xffff);
	 block[2][3] = scratchpad_output >> 16;
  800860:	3005d43a 	srai	r2,r6,16
  800864:	588000c5 	stb	r2,3(r11)
	 block[3][3] = scratchpad_output & 0xffff;
  800868:	618000c5 	stb	r6,3(r12)
	 //printf("**** %d\n",scratchpad_output);

	 scratchpad_output = ALT_CI_2D_INTERFACE25_INST(0x27,0,0);
  80086c:	18c9c9f2 	custom	39,r4,r3,r3
	 //IOWR_8DIRECT(block, (4 << 3) + 3, scratchpad_output >> 16);
	 //IOWR_8DIRECT(block, (5 << 3) + 3, scratchpad_output & 0xffff);
	 block[4][3] = scratchpad_output >> 16;
  800870:	2005d43a 	srai	r2,r4,16
  800874:	488000c5 	stb	r2,3(r9)
	 block[5][3] = scratchpad_output & 0xffff;
  800878:	510000c5 	stb	r4,3(r10)
	 //printf("**** %d\n",scratchpad_output);

	 scratchpad_output = ALT_CI_2D_INTERFACE25_INST(0x37,0,0);
  80087c:	18cdcdf2 	custom	55,r6,r3,r3
	 //IOWR_8DIRECT(block, (6 << 3) + 3, scratchpad_output >> 16);
	 //IOWR_8DIRECT(block, (7 << 3) + 3, scratchpad_output & 0xffff);
	 block[6][3] = scratchpad_output >> 16;
  800880:	3005d43a 	srai	r2,r6,16
  800884:	388000c5 	stb	r2,3(r7)
	 block[7][3] = scratchpad_output & 0xffff;
  800888:	418000c5 	stb	r6,3(r8)
	 //printf("**** %d\n",scratchpad_output);

	 scratchpad_output = ALT_CI_2D_INTERFACE25_INST(0x09,0,0);
  80088c:	18c9c272 	custom	9,r4,r3,r3
	 //IOWR_8DIRECT(block, (0 << 3) + 4, scratchpad_output >> 16);
	 //IOWR_8DIRECT(block, (1 << 3) + 4, scratchpad_output & 0xffff);
	 block[0][4] = scratchpad_output >> 16;
  800890:	2005d43a 	srai	r2,r4,16
  800894:	28800105 	stb	r2,4(r5)
	 block[1][4] = scratchpad_output & 0xffff;
  800898:	69000105 	stb	r4,4(r13)
	 //printf("**** %d\n",scratchpad_output);

	 scratchpad_output = ALT_CI_2D_INTERFACE25_INST(0x19,0,0);
  80089c:	18cdc672 	custom	25,r6,r3,r3
	 //IOWR_8DIRECT(block, (2 << 3) + 4, scratchpad_output >> 16);
	 //IOWR_8DIRECT(block, (3 << 3) + 4, scratchpad_output & 0xffff);
	 block[2][4] = scratchpad_output >> 16;
  8008a0:	3005d43a 	srai	r2,r6,16
  8008a4:	58800105 	stb	r2,4(r11)
	 block[3][4] = scratchpad_output & 0xffff;
  8008a8:	61800105 	stb	r6,4(r12)
	 //printf("**** %d\n",scratchpad_output);

	 scratchpad_output = ALT_CI_2D_INTERFACE25_INST(0x29,0,0);
  8008ac:	18c9ca72 	custom	41,r4,r3,r3
	 //IOWR_8DIRECT(block, (4 << 3) + 4, scratchpad_output >> 16);
	 //IOWR_8DIRECT(block, (5 << 3) + 4, scratchpad_output & 0xffff);
	 block[4][4] = scratchpad_output >> 16;
  8008b0:	2005d43a 	srai	r2,r4,16
  8008b4:	48800105 	stb	r2,4(r9)
	 block[5][4] = scratchpad_output & 0xffff;
  8008b8:	51000105 	stb	r4,4(r10)
	 //printf("**** %d\n",scratchpad_output);

	 scratchpad_output = ALT_CI_2D_INTERFACE25_INST(0x39,0,0);
  8008bc:	18cdce72 	custom	57,r6,r3,r3
	 //IOWR_8DIRECT(block, (6 << 3) + 4, scratchpad_output >> 16);
	 //IOWR_8DIRECT(block, (7 << 3) + 4, scratchpad_output & 0xffff);
	 block[6][4] = scratchpad_output >> 16;
  8008c0:	3005d43a 	srai	r2,r6,16
  8008c4:	38800105 	stb	r2,4(r7)
	 block[7][4] = scratchpad_output & 0xffff;
  8008c8:	41800105 	stb	r6,4(r8)
	 //printf("**** %d\n",scratchpad_output);

	 scratchpad_output = ALT_CI_2D_INTERFACE25_INST(0x0b,0,0);
  8008cc:	18c9c2f2 	custom	11,r4,r3,r3
	 //IOWR_8DIRECT(block, (0 << 3) + 5, scratchpad_output >> 16);
	 //IOWR_8DIRECT(block, (1 << 3) + 5, scratchpad_output & 0xffff);
	 block[0][5] = scratchpad_output >> 16;
  8008d0:	2005d43a 	srai	r2,r4,16
  8008d4:	28800145 	stb	r2,5(r5)
	 block[1][5] = scratchpad_output & 0xffff;
  8008d8:	69000145 	stb	r4,5(r13)
	 //printf("**** %d\n",scratchpad_output);

	 scratchpad_output = ALT_CI_2D_INTERFACE25_INST(0x1b,0,0);
  8008dc:	18cdc6f2 	custom	27,r6,r3,r3
	 //IOWR_8DIRECT(block, (2 << 3) + 5, scratchpad_output >> 16);
	 //IOWR_8DIRECT(block, (3 << 3) + 5, scratchpad_output & 0xffff);
	 block[2][5] = scratchpad_output >> 16;
  8008e0:	3005d43a 	srai	r2,r6,16
  8008e4:	58800145 	stb	r2,5(r11)
	 block[3][5] = scratchpad_output & 0xffff;
  8008e8:	61800145 	stb	r6,5(r12)
	 //printf("**** %d\n",scratchpad_output);

	 scratchpad_output = ALT_CI_2D_INTERFACE25_INST(0x2b,0,0);
  8008ec:	18c9caf2 	custom	43,r4,r3,r3
	 //IOWR_8DIRECT(block, (4 << 3) + 5, scratchpad_output >> 16);
	 //IOWR_8DIRECT(block, (5 << 3) + 5, scratchpad_output & 0xffff);
	 block[4][5] = scratchpad_output >> 16;
  8008f0:	2005d43a 	srai	r2,r4,16
  8008f4:	48800145 	stb	r2,5(r9)
	 block[5][5] = scratchpad_output & 0xffff;
  8008f8:	51000145 	stb	r4,5(r10)
	 //printf("**** %d\n",scratchpad_output);

	 scratchpad_output = ALT_CI_2D_INTERFACE25_INST(0x3b,0,0);
  8008fc:	18cdcef2 	custom	59,r6,r3,r3
	 //IOWR_8DIRECT(block, (6 << 3) + 5, scratchpad_output >> 16);
	 //IOWR_8DIRECT(block, (7 << 3) + 5, scratchpad_output & 0xffff);
	 block[6][5] = scratchpad_output >> 16;
  800900:	3005d43a 	srai	r2,r6,16
  800904:	38800145 	stb	r2,5(r7)
	 block[7][5] = scratchpad_output & 0xffff;
  800908:	41800145 	stb	r6,5(r8)
	 //printf("**** %d\n",scratchpad_output);

	 scratchpad_output = ALT_CI_2D_INTERFACE25_INST(0x0d,0,0);
  80090c:	18c9c372 	custom	13,r4,r3,r3
	 //IOWR_8DIRECT(block, (0 << 3) + 6, scratchpad_output >> 16);
	 //IOWR_8DIRECT(block, (1 << 3) + 6, scratchpad_output & 0xffff);
	 block[0][6] = scratchpad_output >> 16;
  800910:	2005d43a 	srai	r2,r4,16
  800914:	28800185 	stb	r2,6(r5)
	 block[1][6] = scratchpad_output & 0xffff;
  800918:	69000185 	stb	r4,6(r13)
	 //printf("**** %d\n",scratchpad_output);

	 scratchpad_output = ALT_CI_2D_INTERFACE25_INST(0x1d,0,0);
  80091c:	18cdc772 	custom	29,r6,r3,r3
	 //IOWR_8DIRECT(block, (2 << 3) + 6, scratchpad_output >> 16);
	 //IOWR_8DIRECT(block, (3 << 3) + 6, scratchpad_output & 0xffff);
	 block[2][6] = scratchpad_output >> 16;
  800920:	3005d43a 	srai	r2,r6,16
  800924:	58800185 	stb	r2,6(r11)
	 block[3][6] = scratchpad_output & 0xffff;
  800928:	61800185 	stb	r6,6(r12)
	 //printf("**** %d\n",scratchpad_output);

	 scratchpad_output = ALT_CI_2D_INTERFACE25_INST(0x2d,0,0);
  80092c:	18c9cb72 	custom	45,r4,r3,r3
	 //IOWR_8DIRECT(block, (4 << 3) + 6, scratchpad_output >> 16);
	 //IOWR_8DIRECT(block, (5 << 3) + 6, scratchpad_output & 0xffff);
	 block[4][6] = scratchpad_output >> 16;
  800930:	2005d43a 	srai	r2,r4,16
  800934:	48800185 	stb	r2,6(r9)
	 block[5][6] = scratchpad_output & 0xffff;
  800938:	51000185 	stb	r4,6(r10)
	 //printf("**** %d\n",scratchpad_output);

	 scratchpad_output = ALT_CI_2D_INTERFACE25_INST(0x3d,0,0);
  80093c:	18cdcf72 	custom	61,r6,r3,r3
	 //IOWR_8DIRECT(block, (6 << 3) + 6, scratchpad_output >> 16);
	 //IOWR_8DIRECT(block, (7 << 3) + 6, scratchpad_output & 0xffff);
	 block[6][6] = scratchpad_output >> 16;
  800940:	3005d43a 	srai	r2,r6,16
  800944:	38800185 	stb	r2,6(r7)
	 block[7][6] = scratchpad_output & 0xffff;
  800948:	41800185 	stb	r6,6(r8)
	 //printf("**** %d\n",scratchpad_output);

	 scratchpad_output = ALT_CI_2D_INTERFACE25_INST(0x0f,0,0);
  80094c:	18c9c3f2 	custom	15,r4,r3,r3
	 //IOWR_8DIRECT(block, (0 << 3) + 7, scratchpad_output >> 16);
	 //IOWR_8DIRECT(block, (1 << 3) + 7, scratchpad_output & 0xffff);
	 block[0][7] = scratchpad_output >> 16;
  800950:	2005d43a 	srai	r2,r4,16
  800954:	288001c5 	stb	r2,7(r5)
	 block[1][7] = scratchpad_output & 0xffff;
  800958:	690001c5 	stb	r4,7(r13)
	 //printf("**** %d\n",scratchpad_output);

	 scratchpad_output = ALT_CI_2D_INTERFACE25_INST(0x1f,0,0);
  80095c:	18cbc7f2 	custom	31,r5,r3,r3
	 //IOWR_8DIRECT(block, (2 << 3) + 7, scratchpad_output >> 16);
	 //IOWR_8DIRECT(block, (3 << 3) + 7, scratchpad_output & 0xffff);
	 block[2][7] = scratchpad_output >> 16;
  800960:	2805d43a 	srai	r2,r5,16
  800964:	588001c5 	stb	r2,7(r11)
	 block[3][7] = scratchpad_output & 0xffff;
  800968:	614001c5 	stb	r5,7(r12)
	 //printf("**** %d\n",scratchpad_output);

	 scratchpad_output = ALT_CI_2D_INTERFACE25_INST(0x2f,0,0);
  80096c:	18c9cbf2 	custom	47,r4,r3,r3
	 //IOWR_8DIRECT(block, (4 << 3) + 7, scratchpad_output >> 16);
	 //IOWR_8DIRECT(block, (5 << 3) + 7, scratchpad_output & 0xffff);
	 block[4][7] = scratchpad_output >> 16;
  800970:	2005d43a 	srai	r2,r4,16
  800974:	488001c5 	stb	r2,7(r9)
	 block[5][7] = scratchpad_output & 0xffff;
  800978:	510001c5 	stb	r4,7(r10)
	 //printf("**** %d\n",scratchpad_output);

	 scratchpad_output = ALT_CI_2D_INTERFACE25_INST(0x3f,0,0);
  80097c:	18c7cff2 	custom	63,r3,r3,r3
	 //IOWR_8DIRECT(block, (6 << 3) + 7, scratchpad_output >> 16);
	 //IOWR_8DIRECT(block, (7 << 3) + 7, scratchpad_output & 0xffff);
	 block[6][7] = scratchpad_output >> 16;
  800980:	1805d43a 	srai	r2,r3,16
  800984:	388001c5 	stb	r2,7(r7)
	 block[7][7] = scratchpad_output & 0xffff;
  800988:	40c001c5 	stb	r3,7(r8)
	 //printf("**** %d\n",scratchpad_output);

	 alt_dcache_flush_all();
  80098c:	080b1601 	jmpi	80b160 <alt_dcache_flush_all>

00800990 <update_buffer>:
//update buffer
//The function is written to be endianess - independent
void update_buffer(uint32_t* pbitbuffer, void** pbitstream, int* pbitcount, uint8_t size)
{
    //remove decoded bits
    (*pbitbuffer) <<= size;
  800990:	20c00017 	ldw	r3,0(r4)
    //total number of bits to be shifted in
    *pbitcount += size;
  800994:	30800017 	ldw	r2,0(r6)
//update buffer
//The function is written to be endianess - independent
void update_buffer(uint32_t* pbitbuffer, void** pbitstream, int* pbitcount, uint8_t size)
{
    //remove decoded bits
    (*pbitbuffer) <<= size;
  800998:	39c03fcc 	andi	r7,r7,255
  80099c:	19d2983a 	sll	r9,r3,r7
    //total number of bits to be shifted in
    *pbitcount += size;
  8009a0:	388f883a 	add	r7,r7,r2
    if(*pbitcount >= 8){ //we need to shift in at least 1 byte
  8009a4:	008001c4 	movi	r2,7
        *pbitbuffer |= *((uint8_t*)(*pbitstream)) << (*pbitcount - 8);
  8009a8:	3abffe04 	addi	r10,r7,-8
                    *pbitstream = ((uint8_t*)*pbitstream) + 1;
                }
            }
        }
    }
    *pbitcount &= 7; //the resulting *pbitcount should be between 0 and 7
  8009ac:	3b4001cc 	andi	r13,r7,7
//update buffer
//The function is written to be endianess - independent
void update_buffer(uint32_t* pbitbuffer, void** pbitstream, int* pbitcount, uint8_t size)
{
    //remove decoded bits
    (*pbitbuffer) <<= size;
  8009b0:	22400015 	stw	r9,0(r4)
    //total number of bits to be shifted in
    *pbitcount += size;
  8009b4:	31c00015 	stw	r7,0(r6)
    if(*pbitcount >= 8){ //we need to shift in at least 1 byte
  8009b8:	11c01c0e 	bge	r2,r7,800a2c <update_buffer+0x9c>
        *pbitbuffer |= *((uint8_t*)(*pbitstream)) << (*pbitcount - 8);
  8009bc:	2a000017 	ldw	r8,0(r5)
        *pbitstream = ((uint8_t*)*pbitstream) + 1;
        if(*pbitcount >= 16){ //at least 2 bytes
            *pbitbuffer |= *((uint8_t*)(*pbitstream)) << (*pbitcount - 16);
  8009c0:	3b3ffc04 	addi	r12,r7,-16
    //remove decoded bits
    (*pbitbuffer) <<= size;
    //total number of bits to be shifted in
    *pbitcount += size;
    if(*pbitcount >= 8){ //we need to shift in at least 1 byte
        *pbitbuffer |= *((uint8_t*)(*pbitstream)) << (*pbitcount - 8);
  8009c4:	40800003 	ldbu	r2,0(r8)
        *pbitstream = ((uint8_t*)*pbitstream) + 1;
  8009c8:	40c00044 	addi	r3,r8,1
  8009cc:	28c00015 	stw	r3,0(r5)
    //remove decoded bits
    (*pbitbuffer) <<= size;
    //total number of bits to be shifted in
    *pbitcount += size;
    if(*pbitcount >= 8){ //we need to shift in at least 1 byte
        *pbitbuffer |= *((uint8_t*)(*pbitstream)) << (*pbitcount - 8);
  8009d0:	1284983a 	sll	r2,r2,r10
        *pbitstream = ((uint8_t*)*pbitstream) + 1;
        if(*pbitcount >= 16){ //at least 2 bytes
            *pbitbuffer |= *((uint8_t*)(*pbitstream)) << (*pbitcount - 16);
            *pbitstream = ((uint8_t*)*pbitstream) + 1;
  8009d4:	42c00084 	addi	r11,r8,2
    //remove decoded bits
    (*pbitbuffer) <<= size;
    //total number of bits to be shifted in
    *pbitcount += size;
    if(*pbitcount >= 8){ //we need to shift in at least 1 byte
        *pbitbuffer |= *((uint8_t*)(*pbitstream)) << (*pbitcount - 8);
  8009d8:	4886b03a 	or	r3,r9,r2
        *pbitstream = ((uint8_t*)*pbitstream) + 1;
        if(*pbitcount >= 16){ //at least 2 bytes
  8009dc:	008003c4 	movi	r2,15
    //remove decoded bits
    (*pbitbuffer) <<= size;
    //total number of bits to be shifted in
    *pbitcount += size;
    if(*pbitcount >= 8){ //we need to shift in at least 1 byte
        *pbitbuffer |= *((uint8_t*)(*pbitstream)) << (*pbitcount - 8);
  8009e0:	20c00015 	stw	r3,0(r4)
        *pbitstream = ((uint8_t*)*pbitstream) + 1;
        if(*pbitcount >= 16){ //at least 2 bytes
  8009e4:	11c0110e 	bge	r2,r7,800a2c <update_buffer+0x9c>
            *pbitbuffer |= *((uint8_t*)(*pbitstream)) << (*pbitcount - 16);
  8009e8:	40800043 	ldbu	r2,1(r8)
            *pbitstream = ((uint8_t*)*pbitstream) + 1;
            if(*pbitcount >= 24){ //at least 3 bytes
                *pbitbuffer |= *((uint8_t*)(*pbitstream)) << (*pbitcount - 24);
  8009ec:	3abffa04 	addi	r10,r7,-24
                *pbitstream = ((uint8_t*)*pbitstream) + 1;
  8009f0:	424000c4 	addi	r9,r8,3
    *pbitcount += size;
    if(*pbitcount >= 8){ //we need to shift in at least 1 byte
        *pbitbuffer |= *((uint8_t*)(*pbitstream)) << (*pbitcount - 8);
        *pbitstream = ((uint8_t*)*pbitstream) + 1;
        if(*pbitcount >= 16){ //at least 2 bytes
            *pbitbuffer |= *((uint8_t*)(*pbitstream)) << (*pbitcount - 16);
  8009f4:	1304983a 	sll	r2,r2,r12
            *pbitstream = ((uint8_t*)*pbitstream) + 1;
  8009f8:	2ac00015 	stw	r11,0(r5)
    *pbitcount += size;
    if(*pbitcount >= 8){ //we need to shift in at least 1 byte
        *pbitbuffer |= *((uint8_t*)(*pbitstream)) << (*pbitcount - 8);
        *pbitstream = ((uint8_t*)*pbitstream) + 1;
        if(*pbitcount >= 16){ //at least 2 bytes
            *pbitbuffer |= *((uint8_t*)(*pbitstream)) << (*pbitcount - 16);
  8009fc:	1886b03a 	or	r3,r3,r2
            *pbitstream = ((uint8_t*)*pbitstream) + 1;
            if(*pbitcount >= 24){ //at least 3 bytes
  800a00:	008005c4 	movi	r2,23
    *pbitcount += size;
    if(*pbitcount >= 8){ //we need to shift in at least 1 byte
        *pbitbuffer |= *((uint8_t*)(*pbitstream)) << (*pbitcount - 8);
        *pbitstream = ((uint8_t*)*pbitstream) + 1;
        if(*pbitcount >= 16){ //at least 2 bytes
            *pbitbuffer |= *((uint8_t*)(*pbitstream)) << (*pbitcount - 16);
  800a04:	20c00015 	stw	r3,0(r4)
            *pbitstream = ((uint8_t*)*pbitstream) + 1;
            if(*pbitcount >= 24){ //at least 3 bytes
  800a08:	11c0080e 	bge	r2,r7,800a2c <update_buffer+0x9c>
                *pbitbuffer |= *((uint8_t*)(*pbitstream)) << (*pbitcount - 24);
  800a0c:	40800083 	ldbu	r2,2(r8)
                *pbitstream = ((uint8_t*)*pbitstream) + 1;
                if(*pbitcount == 32){ //all 4 bytes shifted in
                    *pbitbuffer |= *((uint8_t*)(*pbitstream));
                    *pbitstream = ((uint8_t*)*pbitstream) + 1;
  800a10:	42c00104 	addi	r11,r8,4
        if(*pbitcount >= 16){ //at least 2 bytes
            *pbitbuffer |= *((uint8_t*)(*pbitstream)) << (*pbitcount - 16);
            *pbitstream = ((uint8_t*)*pbitstream) + 1;
            if(*pbitcount >= 24){ //at least 3 bytes
                *pbitbuffer |= *((uint8_t*)(*pbitstream)) << (*pbitcount - 24);
                *pbitstream = ((uint8_t*)*pbitstream) + 1;
  800a14:	2a400015 	stw	r9,0(r5)
        *pbitstream = ((uint8_t*)*pbitstream) + 1;
        if(*pbitcount >= 16){ //at least 2 bytes
            *pbitbuffer |= *((uint8_t*)(*pbitstream)) << (*pbitcount - 16);
            *pbitstream = ((uint8_t*)*pbitstream) + 1;
            if(*pbitcount >= 24){ //at least 3 bytes
                *pbitbuffer |= *((uint8_t*)(*pbitstream)) << (*pbitcount - 24);
  800a18:	1284983a 	sll	r2,r2,r10
  800a1c:	1886b03a 	or	r3,r3,r2
                *pbitstream = ((uint8_t*)*pbitstream) + 1;
                if(*pbitcount == 32){ //all 4 bytes shifted in
  800a20:	00800804 	movi	r2,32
        *pbitstream = ((uint8_t*)*pbitstream) + 1;
        if(*pbitcount >= 16){ //at least 2 bytes
            *pbitbuffer |= *((uint8_t*)(*pbitstream)) << (*pbitcount - 16);
            *pbitstream = ((uint8_t*)*pbitstream) + 1;
            if(*pbitcount >= 24){ //at least 3 bytes
                *pbitbuffer |= *((uint8_t*)(*pbitstream)) << (*pbitcount - 24);
  800a24:	20c00015 	stw	r3,0(r4)
                *pbitstream = ((uint8_t*)*pbitstream) + 1;
                if(*pbitcount == 32){ //all 4 bytes shifted in
  800a28:	38800226 	beq	r7,r2,800a34 <update_buffer+0xa4>
                    *pbitstream = ((uint8_t*)*pbitstream) + 1;
                }
            }
        }
    }
    *pbitcount &= 7; //the resulting *pbitcount should be between 0 and 7
  800a2c:	33400015 	stw	r13,0(r6)
}
  800a30:	f800283a 	ret
            *pbitstream = ((uint8_t*)*pbitstream) + 1;
            if(*pbitcount >= 24){ //at least 3 bytes
                *pbitbuffer |= *((uint8_t*)(*pbitstream)) << (*pbitcount - 24);
                *pbitstream = ((uint8_t*)*pbitstream) + 1;
                if(*pbitcount == 32){ //all 4 bytes shifted in
                    *pbitbuffer |= *((uint8_t*)(*pbitstream));
  800a34:	408000c3 	ldbu	r2,3(r8)
                    *pbitstream = ((uint8_t*)*pbitstream) + 1;
  800a38:	2ac00015 	stw	r11,0(r5)
                }
            }
        }
    }
    *pbitcount &= 7; //the resulting *pbitcount should be between 0 and 7
  800a3c:	33400015 	stw	r13,0(r6)
            *pbitstream = ((uint8_t*)*pbitstream) + 1;
            if(*pbitcount >= 24){ //at least 3 bytes
                *pbitbuffer |= *((uint8_t*)(*pbitstream)) << (*pbitcount - 24);
                *pbitstream = ((uint8_t*)*pbitstream) + 1;
                if(*pbitcount == 32){ //all 4 bytes shifted in
                    *pbitbuffer |= *((uint8_t*)(*pbitstream));
  800a40:	1884b03a 	or	r2,r3,r2
  800a44:	20800015 	stw	r2,0(r4)
                }
            }
        }
    }
    *pbitcount &= 7; //the resulting *pbitcount should be between 0 and 7
}
  800a48:	f800283a 	ret

00800a4c <input_DC>:
        ib.e = 0;
        ib.bits = 4;
    }
    else{
        bitbuffer <<= 4;
        ib.e = HUFF_EXTEND(INPUT_BITS(bitbuffer,size),size);
  800a4c:	2006913a 	slli	r3,r4,4

//DC decode function
huff_input_t input_DC(uint32_t bitbuffer)
{
    huff_input_t ib;
    uint8_t size = INPUT_BITS(bitbuffer, 4);
  800a50:	2008d73a 	srli	r4,r4,28
        ib.e = 0;
        ib.bits = 4;
    }
    else{
        bitbuffer <<= 4;
        ib.e = HUFF_EXTEND(INPUT_BITS(bitbuffer,size),size);
  800a54:	00800804 	movi	r2,32
//extract num bits from the buffer and returns them
#define INPUT_BITS(buffer, num) (buffer) >> (32 - (num))

//DC decode function
huff_input_t input_DC(uint32_t bitbuffer)
{
  800a58:	deffff04 	addi	sp,sp,-4
    huff_input_t ib;
    uint8_t size = INPUT_BITS(bitbuffer, 4);
    if(size == 0){
  800a5c:	21403fcc 	andi	r5,r4,255
        ib.e = 0;
        ib.bits = 4;
    }
    else{
        bitbuffer <<= 4;
        ib.e = HUFF_EXTEND(INPUT_BITS(bitbuffer,size),size);
  800a60:	1145c83a 	sub	r2,r2,r5
  800a64:	188cd83a 	srl	r6,r3,r2
//DC decode function
huff_input_t input_DC(uint32_t bitbuffer)
{
    huff_input_t ib;
    uint8_t size = INPUT_BITS(bitbuffer, 4);
    if(size == 0){
  800a68:	02000104 	movi	r8,4
  800a6c:	000f883a 	mov	r7,zero
        ib.e = 0;
        ib.bits = 4;
    }
    else{
        bitbuffer <<= 4;
        ib.e = HUFF_EXTEND(INPUT_BITS(bitbuffer,size),size);
  800a70:	28bfffc4 	addi	r2,r5,-1
//DC decode function
huff_input_t input_DC(uint32_t bitbuffer)
{
    huff_input_t ib;
    uint8_t size = INPUT_BITS(bitbuffer, 4);
    if(size == 0){
  800a74:	28000626 	beq	r5,zero,800a90 <input_DC+0x44>
        ib.e = 0;
        ib.bits = 4;
    }
    else{
        bitbuffer <<= 4;
        ib.e = HUFF_EXTEND(INPUT_BITS(bitbuffer,size),size);
  800a78:	3086d83a 	srl	r3,r6,r2
  800a7c:	00bfffc4 	movi	r2,-1
  800a80:	300f883a 	mov	r7,r6
  800a84:	1144983a 	sll	r2,r2,r5
  800a88:	18000a26 	beq	r3,zero,800ab4 <input_DC+0x68>
        ib.bits = size + 4;
  800a8c:	22000104 	addi	r8,r4,4
    }
    return ib;
  800a90:	d8800045 	stb	r2,1(sp)
  800a94:	da000005 	stb	r8,0(sp)
  800a98:	38bfffcc 	andi	r2,r7,65535
  800a9c:	d8c0000b 	ldhu	r3,0(sp)
  800aa0:	1004943a 	slli	r2,r2,16
  800aa4:	d9c0008d 	sth	r7,2(sp)
}
  800aa8:	1884b03a 	or	r2,r3,r2
  800aac:	dec00104 	addi	sp,sp,4
  800ab0:	f800283a 	ret
        ib.e = 0;
        ib.bits = 4;
    }
    else{
        bitbuffer <<= 4;
        ib.e = HUFF_EXTEND(INPUT_BITS(bitbuffer,size),size);
  800ab4:	10800044 	addi	r2,r2,1
  800ab8:	308f883a 	add	r7,r6,r2
  800abc:	003ff306 	br	800a8c <input_DC+0x40>

00800ac0 <input_AC>:
huff_input_t input_AC(uint32_t bitbuffer)
{
    huff_input_t ib;
    uint8_t size;
    ib.runlength  = INPUT_BITS(bitbuffer, 4);
    bitbuffer <<= 4;
  800ac0:	2004913a 	slli	r2,r4,4
        ib.e = 0;
        ib.bits = 8;
    }
    else{
        bitbuffer <<= 4;
        ib.e = HUFF_EXTEND(INPUT_BITS(bitbuffer,size),size);
  800ac4:	2006923a 	slli	r3,r4,8
    return ib;
}

//AC decode function
huff_input_t input_AC(uint32_t bitbuffer)
{
  800ac8:	deffff04 	addi	sp,sp,-4
    huff_input_t ib;
    uint8_t size;
    ib.runlength  = INPUT_BITS(bitbuffer, 4);
    bitbuffer <<= 4;
    size  = INPUT_BITS(bitbuffer, 4);
  800acc:	1010d73a 	srli	r8,r2,28
        ib.e = 0;
        ib.bits = 8;
    }
    else{
        bitbuffer <<= 4;
        ib.e = HUFF_EXTEND(INPUT_BITS(bitbuffer,size),size);
  800ad0:	00800804 	movi	r2,32
    huff_input_t ib;
    uint8_t size;
    ib.runlength  = INPUT_BITS(bitbuffer, 4);
    bitbuffer <<= 4;
    size  = INPUT_BITS(bitbuffer, 4);
    if(size == 0) {
  800ad4:	02400204 	movi	r9,8
  800ad8:	41403fcc 	andi	r5,r8,255
        ib.e = 0;
        ib.bits = 8;
    }
    else{
        bitbuffer <<= 4;
        ib.e = HUFF_EXTEND(INPUT_BITS(bitbuffer,size),size);
  800adc:	1145c83a 	sub	r2,r2,r5
  800ae0:	188cd83a 	srl	r6,r3,r2
    huff_input_t ib;
    uint8_t size;
    ib.runlength  = INPUT_BITS(bitbuffer, 4);
    bitbuffer <<= 4;
    size  = INPUT_BITS(bitbuffer, 4);
    if(size == 0) {
  800ae4:	000f883a 	mov	r7,zero
        ib.e = 0;
        ib.bits = 8;
    }
    else{
        bitbuffer <<= 4;
        ib.e = HUFF_EXTEND(INPUT_BITS(bitbuffer,size),size);
  800ae8:	28ffffc4 	addi	r3,r5,-1
    huff_input_t ib;
    uint8_t size;
    ib.runlength  = INPUT_BITS(bitbuffer, 4);
    bitbuffer <<= 4;
    size  = INPUT_BITS(bitbuffer, 4);
    if(size == 0) {
  800aec:	28000726 	beq	r5,zero,800b0c <input_AC+0x4c>
        ib.e = 0;
        ib.bits = 8;
    }
    else{
        bitbuffer <<= 4;
        ib.e = HUFF_EXTEND(INPUT_BITS(bitbuffer,size),size);
  800af0:	00bfffc4 	movi	r2,-1
  800af4:	1144983a 	sll	r2,r2,r5
  800af8:	30c6d83a 	srl	r3,r6,r3
  800afc:	300f883a 	mov	r7,r6
  800b00:	10800044 	addi	r2,r2,1
  800b04:	18000b26 	beq	r3,zero,800b34 <input_AC+0x74>
        ib.bits = size + 8;
  800b08:	42400204 	addi	r9,r8,8
    }
    return ib;
  800b0c:	2004d73a 	srli	r2,r4,28
  800b10:	38ffffcc 	andi	r3,r7,65535
  800b14:	da400005 	stb	r9,0(sp)
  800b18:	d8800045 	stb	r2,1(sp)
  800b1c:	1806943a 	slli	r3,r3,16
  800b20:	d880000b 	ldhu	r2,0(sp)
  800b24:	d9c0008d 	sth	r7,2(sp)
}
  800b28:	10c4b03a 	or	r2,r2,r3
  800b2c:	dec00104 	addi	sp,sp,4
  800b30:	f800283a 	ret
        ib.e = 0;
        ib.bits = 8;
    }
    else{
        bitbuffer <<= 4;
        ib.e = HUFF_EXTEND(INPUT_BITS(bitbuffer,size),size);
  800b34:	308f883a 	add	r7,r6,r2
  800b38:	003ff306 	br	800b08 <input_AC+0x48>

00800b3c <lossless_decode>:
 To perform the update, the bitstream pointer is incremented every
 time a new byte in the bistream is shifted in.
 
******************************** */
void lossless_decode(int num_blocks, void* bitstream, dct_block_t* DCACq, dct_block_t quant, BOOL P)
{
  800b3c:	defffa04 	addi	sp,sp,-24
  800b40:	dd400515 	stw	r21,20(sp)
  800b44:	dd000415 	stw	r20,16(sp)
  800b48:	dcc00315 	stw	r19,12(sp)
  800b4c:	dc800215 	stw	r18,8(sp)
  800b50:	dc400115 	stw	r17,4(sp)
  800b54:	dc000015 	stw	r16,0(sp)
  800b58:	2029883a 	mov	r20,r4
  800b5c:	2811883a 	mov	r8,r5
    //remove decoded bits
    (*pbitbuffer) <<= size;
    //total number of bits to be shifted in
    *pbitcount += size;
    if(*pbitcount >= 8){ //we need to shift in at least 1 byte
        *pbitbuffer |= *((uint8_t*)(*pbitstream)) << (*pbitcount - 8);
  800b60:	29000003 	ldbu	r4,0(r5)
        *pbitstream = ((uint8_t*)*pbitstream) + 1;
        if(*pbitcount >= 16){ //at least 2 bytes
            *pbitbuffer |= *((uint8_t*)(*pbitstream)) << (*pbitcount - 16);
  800b64:	28c00043 	ldbu	r3,1(r5)
            *pbitstream = ((uint8_t*)*pbitstream) + 1;
            if(*pbitcount >= 24){ //at least 3 bytes
                *pbitbuffer |= *((uint8_t*)(*pbitstream)) << (*pbitcount - 24);
  800b68:	28800083 	ldbu	r2,2(r5)
 To perform the update, the bitstream pointer is incremented every
 time a new byte in the bistream is shifted in.
 
******************************** */
void lossless_decode(int num_blocks, void* bitstream, dct_block_t* DCACq, dct_block_t quant, BOOL P)
{
  800b6c:	dd400617 	ldw	r21,24(sp)
            *pbitstream = ((uint8_t*)*pbitstream) + 1;
            if(*pbitcount >= 24){ //at least 3 bytes
                *pbitbuffer |= *((uint8_t*)(*pbitstream)) << (*pbitcount - 24);
                *pbitstream = ((uint8_t*)*pbitstream) + 1;
                if(*pbitcount == 32){ //all 4 bytes shifted in
                    *pbitbuffer |= *((uint8_t*)(*pbitstream));
  800b70:	294000c3 	ldbu	r5,3(r5)
    
    huff_input_t ib;
    //Used for I frame DC differential encoding
    DCTELEM cur = 0;
    
    for(int count = 0; count < num_blocks; count ++){
  800b74:	0500b70e 	bge	zero,r20,800e54 <lossless_decode+0x318>
    *pbitcount += size;
    if(*pbitcount >= 8){ //we need to shift in at least 1 byte
        *pbitbuffer |= *((uint8_t*)(*pbitstream)) << (*pbitcount - 8);
        *pbitstream = ((uint8_t*)*pbitstream) + 1;
        if(*pbitcount >= 16){ //at least 2 bytes
            *pbitbuffer |= *((uint8_t*)(*pbitstream)) << (*pbitcount - 16);
  800b78:	18c03fcc 	andi	r3,r3,255
    //remove decoded bits
    (*pbitbuffer) <<= size;
    //total number of bits to be shifted in
    *pbitcount += size;
    if(*pbitcount >= 8){ //we need to shift in at least 1 byte
        *pbitbuffer |= *((uint8_t*)(*pbitstream)) << (*pbitcount - 8);
  800b7c:	2008963a 	slli	r4,r4,24
        *pbitstream = ((uint8_t*)*pbitstream) + 1;
        if(*pbitcount >= 16){ //at least 2 bytes
            *pbitbuffer |= *((uint8_t*)(*pbitstream)) << (*pbitcount - 16);
  800b80:	1806943a 	slli	r3,r3,16
            *pbitstream = ((uint8_t*)*pbitstream) + 1;
            if(*pbitcount >= 24){ //at least 3 bytes
                *pbitbuffer |= *((uint8_t*)(*pbitstream)) << (*pbitcount - 24);
  800b84:	10803fcc 	andi	r2,r2,255
  800b88:	1004923a 	slli	r2,r2,8
    *pbitcount += size;
    if(*pbitcount >= 8){ //we need to shift in at least 1 byte
        *pbitbuffer |= *((uint8_t*)(*pbitstream)) << (*pbitcount - 8);
        *pbitstream = ((uint8_t*)*pbitstream) + 1;
        if(*pbitcount >= 16){ //at least 2 bytes
            *pbitbuffer |= *((uint8_t*)(*pbitstream)) << (*pbitcount - 16);
  800b8c:	20c8b03a 	or	r4,r4,r3
            *pbitstream = ((uint8_t*)*pbitstream) + 1;
            if(*pbitcount >= 24){ //at least 3 bytes
                *pbitbuffer |= *((uint8_t*)(*pbitstream)) << (*pbitcount - 24);
                *pbitstream = ((uint8_t*)*pbitstream) + 1;
                if(*pbitcount == 32){ //all 4 bytes shifted in
                    *pbitbuffer |= *((uint8_t*)(*pbitstream));
  800b90:	29403fcc 	andi	r5,r5,255
        *pbitstream = ((uint8_t*)*pbitstream) + 1;
        if(*pbitcount >= 16){ //at least 2 bytes
            *pbitbuffer |= *((uint8_t*)(*pbitstream)) << (*pbitcount - 16);
            *pbitstream = ((uint8_t*)*pbitstream) + 1;
            if(*pbitcount >= 24){ //at least 3 bytes
                *pbitbuffer |= *((uint8_t*)(*pbitstream)) << (*pbitcount - 24);
  800b94:	2088b03a 	or	r4,r4,r2
                *pbitstream = ((uint8_t*)*pbitstream) + 1;
                if(*pbitcount == 32){ //all 4 bytes shifted in
                    *pbitbuffer |= *((uint8_t*)(*pbitstream));
  800b98:	214ab03a 	or	r5,r4,r5
                    *pbitstream = ((uint8_t*)*pbitstream) + 1;
  800b9c:	43000104 	addi	r12,r8,4
  800ba0:	0027883a 	mov	r19,zero
  800ba4:	0025883a 	mov	r18,zero
  800ba8:	001d883a 	mov	r14,zero
  800bac:	a81f003a 	cmpeq	r15,r21,zero

//DC decode function
huff_input_t input_DC(uint32_t bitbuffer)
{
    huff_input_t ib;
    uint8_t size = INPUT_BITS(bitbuffer, 4);
  800bb0:	2812d73a 	srli	r9,r5,28
    if(size == 0){
  800bb4:	4a003fcc 	andi	r8,r9,255
  800bb8:	4000d41e 	bne	r8,zero,800f0c <lossless_decode+0x3d0>
  800bbc:	0009883a 	mov	r4,zero
  800bc0:	00800104 	movi	r2,4
void update_buffer(uint32_t* pbitbuffer, void** pbitstream, int* pbitcount, uint8_t size)
{
    //remove decoded bits
    (*pbitbuffer) <<= size;
    //total number of bits to be shifted in
    *pbitcount += size;
  800bc4:	1391883a 	add	r8,r2,r14
//update buffer
//The function is written to be endianess - independent
void update_buffer(uint32_t* pbitbuffer, void** pbitstream, int* pbitcount, uint8_t size)
{
    //remove decoded bits
    (*pbitbuffer) <<= size;
  800bc8:	288a983a 	sll	r5,r5,r2
    //total number of bits to be shifted in
    *pbitcount += size;
    if(*pbitcount >= 8){ //we need to shift in at least 1 byte
  800bcc:	008001c4 	movi	r2,7
  800bd0:	1200160e 	bge	r2,r8,800c2c <lossless_decode+0xf0>
        *pbitbuffer |= *((uint8_t*)(*pbitstream)) << (*pbitcount - 8);
  800bd4:	60800003 	ldbu	r2,0(r12)
  800bd8:	40fffe04 	addi	r3,r8,-8
        *pbitstream = ((uint8_t*)*pbitstream) + 1;
  800bdc:	62400044 	addi	r9,r12,1
    //remove decoded bits
    (*pbitbuffer) <<= size;
    //total number of bits to be shifted in
    *pbitcount += size;
    if(*pbitcount >= 8){ //we need to shift in at least 1 byte
        *pbitbuffer |= *((uint8_t*)(*pbitstream)) << (*pbitcount - 8);
  800be0:	10c4983a 	sll	r2,r2,r3
        *pbitstream = ((uint8_t*)*pbitstream) + 1;
        if(*pbitcount >= 16){ //at least 2 bytes
  800be4:	00c003c4 	movi	r3,15
    //remove decoded bits
    (*pbitbuffer) <<= size;
    //total number of bits to be shifted in
    *pbitcount += size;
    if(*pbitcount >= 8){ //we need to shift in at least 1 byte
        *pbitbuffer |= *((uint8_t*)(*pbitstream)) << (*pbitcount - 8);
  800be8:	288ab03a 	or	r5,r5,r2
        *pbitstream = ((uint8_t*)*pbitstream) + 1;
        if(*pbitcount >= 16){ //at least 2 bytes
  800bec:	1a000e0e 	bge	r3,r8,800c28 <lossless_decode+0xec>
            *pbitbuffer |= *((uint8_t*)(*pbitstream)) << (*pbitcount - 16);
  800bf0:	60800043 	ldbu	r2,1(r12)
  800bf4:	40fffc04 	addi	r3,r8,-16
            *pbitstream = ((uint8_t*)*pbitstream) + 1;
  800bf8:	62400084 	addi	r9,r12,2
    *pbitcount += size;
    if(*pbitcount >= 8){ //we need to shift in at least 1 byte
        *pbitbuffer |= *((uint8_t*)(*pbitstream)) << (*pbitcount - 8);
        *pbitstream = ((uint8_t*)*pbitstream) + 1;
        if(*pbitcount >= 16){ //at least 2 bytes
            *pbitbuffer |= *((uint8_t*)(*pbitstream)) << (*pbitcount - 16);
  800bfc:	10c4983a 	sll	r2,r2,r3
            *pbitstream = ((uint8_t*)*pbitstream) + 1;
            if(*pbitcount >= 24){ //at least 3 bytes
  800c00:	00c005c4 	movi	r3,23
    *pbitcount += size;
    if(*pbitcount >= 8){ //we need to shift in at least 1 byte
        *pbitbuffer |= *((uint8_t*)(*pbitstream)) << (*pbitcount - 8);
        *pbitstream = ((uint8_t*)*pbitstream) + 1;
        if(*pbitcount >= 16){ //at least 2 bytes
            *pbitbuffer |= *((uint8_t*)(*pbitstream)) << (*pbitcount - 16);
  800c04:	288ab03a 	or	r5,r5,r2
            *pbitstream = ((uint8_t*)*pbitstream) + 1;
            if(*pbitcount >= 24){ //at least 3 bytes
  800c08:	1a00070e 	bge	r3,r8,800c28 <lossless_decode+0xec>
                *pbitbuffer |= *((uint8_t*)(*pbitstream)) << (*pbitcount - 24);
  800c0c:	60800083 	ldbu	r2,2(r12)
  800c10:	40fffa04 	addi	r3,r8,-24
                *pbitstream = ((uint8_t*)*pbitstream) + 1;
  800c14:	624000c4 	addi	r9,r12,3
        *pbitstream = ((uint8_t*)*pbitstream) + 1;
        if(*pbitcount >= 16){ //at least 2 bytes
            *pbitbuffer |= *((uint8_t*)(*pbitstream)) << (*pbitcount - 16);
            *pbitstream = ((uint8_t*)*pbitstream) + 1;
            if(*pbitcount >= 24){ //at least 3 bytes
                *pbitbuffer |= *((uint8_t*)(*pbitstream)) << (*pbitcount - 24);
  800c18:	10c4983a 	sll	r2,r2,r3
                *pbitstream = ((uint8_t*)*pbitstream) + 1;
                if(*pbitcount == 32){ //all 4 bytes shifted in
  800c1c:	00c00804 	movi	r3,32
        *pbitstream = ((uint8_t*)*pbitstream) + 1;
        if(*pbitcount >= 16){ //at least 2 bytes
            *pbitbuffer |= *((uint8_t*)(*pbitstream)) << (*pbitcount - 16);
            *pbitstream = ((uint8_t*)*pbitstream) + 1;
            if(*pbitcount >= 24){ //at least 3 bytes
                *pbitbuffer |= *((uint8_t*)(*pbitstream)) << (*pbitcount - 24);
  800c20:	288ab03a 	or	r5,r5,r2
                *pbitstream = ((uint8_t*)*pbitstream) + 1;
                if(*pbitcount == 32){ //all 4 bytes shifted in
  800c24:	40c0d326 	beq	r8,r3,800f74 <lossless_decode+0x438>
        if(*pbitcount >= 16){ //at least 2 bytes
            *pbitbuffer |= *((uint8_t*)(*pbitstream)) << (*pbitcount - 16);
            *pbitstream = ((uint8_t*)*pbitstream) + 1;
            if(*pbitcount >= 24){ //at least 3 bytes
                *pbitbuffer |= *((uint8_t*)(*pbitstream)) << (*pbitcount - 24);
                *pbitstream = ((uint8_t*)*pbitstream) + 1;
  800c28:	4819883a 	mov	r12,r9
        
        //decode DC coefficients
        ib = input_DC(bitbuffer);
        update_buffer(&bitbuffer, &bitstream, &bitcount, ib.bits);
#ifndef NULL_QUANT
        if(P){ //differential decoding based on previous frame
  800c2c:	7800c91e 	bne	r15,zero,800f54 <lossless_decode+0x418>
            pe[0] += (ib.e * (((DCTELEM*)quant)[0]) );
  800c30:	3880000b 	ldhu	r2,0(r7)
  800c34:	30c0000b 	ldhu	r3,0(r6)
  800c38:	2085383a 	mul	r2,r4,r2
  800c3c:	10c5883a 	add	r2,r2,r3
  800c40:	3080000d 	sth	r2,0(r6)
                    *pbitstream = ((uint8_t*)*pbitstream) + 1;
                }
            }
        }
    }
    *pbitcount &= 7; //the resulting *pbitcount should be between 0 and 7
  800c44:	438001cc 	andi	r14,r8,7
  800c48:	02400044 	movi	r9,1
  800c4c:	04400804 	movi	r17,32
  800c50:	040003c4 	movi	r16,15
huff_input_t input_AC(uint32_t bitbuffer)
{
    huff_input_t ib;
    uint8_t size;
    ib.runlength  = INPUT_BITS(bitbuffer, 4);
    bitbuffer <<= 4;
  800c54:	2804913a 	slli	r2,r5,4
//AC decode function
huff_input_t input_AC(uint32_t bitbuffer)
{
    huff_input_t ib;
    uint8_t size;
    ib.runlength  = INPUT_BITS(bitbuffer, 4);
  800c58:	2816d73a 	srli	r11,r5,28
    bitbuffer <<= 4;
    size  = INPUT_BITS(bitbuffer, 4);
  800c5c:	1014d73a 	srli	r10,r2,28
    if(size == 0) {
  800c60:	52003fcc 	andi	r8,r10,255
  800c64:	4000281e 	bne	r8,zero,800d08 <lossless_decode+0x1cc>
  800c68:	001b883a 	mov	r13,zero
  800c6c:	00800204 	movi	r2,8
void update_buffer(uint32_t* pbitbuffer, void** pbitstream, int* pbitcount, uint8_t size)
{
    //remove decoded bits
    (*pbitbuffer) <<= size;
    //total number of bits to be shifted in
    *pbitcount += size;
  800c70:	1389883a 	add	r4,r2,r14
//update buffer
//The function is written to be endianess - independent
void update_buffer(uint32_t* pbitbuffer, void** pbitstream, int* pbitcount, uint8_t size)
{
    //remove decoded bits
    (*pbitbuffer) <<= size;
  800c74:	288a983a 	sll	r5,r5,r2
    //total number of bits to be shifted in
    *pbitcount += size;
    if(*pbitcount >= 8){ //we need to shift in at least 1 byte
  800c78:	008001c4 	movi	r2,7
  800c7c:	1100140e 	bge	r2,r4,800cd0 <lossless_decode+0x194>
        *pbitbuffer |= *((uint8_t*)(*pbitstream)) << (*pbitcount - 8);
  800c80:	60800003 	ldbu	r2,0(r12)
  800c84:	20fffe04 	addi	r3,r4,-8
        *pbitstream = ((uint8_t*)*pbitstream) + 1;
  800c88:	62000044 	addi	r8,r12,1
    //remove decoded bits
    (*pbitbuffer) <<= size;
    //total number of bits to be shifted in
    *pbitcount += size;
    if(*pbitcount >= 8){ //we need to shift in at least 1 byte
        *pbitbuffer |= *((uint8_t*)(*pbitstream)) << (*pbitcount - 8);
  800c8c:	10c4983a 	sll	r2,r2,r3
  800c90:	288ab03a 	or	r5,r5,r2
        *pbitstream = ((uint8_t*)*pbitstream) + 1;
        if(*pbitcount >= 16){ //at least 2 bytes
  800c94:	81000d0e 	bge	r16,r4,800ccc <lossless_decode+0x190>
            *pbitbuffer |= *((uint8_t*)(*pbitstream)) << (*pbitcount - 16);
  800c98:	60800043 	ldbu	r2,1(r12)
  800c9c:	20fffc04 	addi	r3,r4,-16
            *pbitstream = ((uint8_t*)*pbitstream) + 1;
  800ca0:	62000084 	addi	r8,r12,2
    *pbitcount += size;
    if(*pbitcount >= 8){ //we need to shift in at least 1 byte
        *pbitbuffer |= *((uint8_t*)(*pbitstream)) << (*pbitcount - 8);
        *pbitstream = ((uint8_t*)*pbitstream) + 1;
        if(*pbitcount >= 16){ //at least 2 bytes
            *pbitbuffer |= *((uint8_t*)(*pbitstream)) << (*pbitcount - 16);
  800ca4:	10c4983a 	sll	r2,r2,r3
            *pbitstream = ((uint8_t*)*pbitstream) + 1;
            if(*pbitcount >= 24){ //at least 3 bytes
  800ca8:	00c005c4 	movi	r3,23
    *pbitcount += size;
    if(*pbitcount >= 8){ //we need to shift in at least 1 byte
        *pbitbuffer |= *((uint8_t*)(*pbitstream)) << (*pbitcount - 8);
        *pbitstream = ((uint8_t*)*pbitstream) + 1;
        if(*pbitcount >= 16){ //at least 2 bytes
            *pbitbuffer |= *((uint8_t*)(*pbitstream)) << (*pbitcount - 16);
  800cac:	288ab03a 	or	r5,r5,r2
            *pbitstream = ((uint8_t*)*pbitstream) + 1;
            if(*pbitcount >= 24){ //at least 3 bytes
  800cb0:	1900060e 	bge	r3,r4,800ccc <lossless_decode+0x190>
                *pbitbuffer |= *((uint8_t*)(*pbitstream)) << (*pbitcount - 24);
  800cb4:	60800083 	ldbu	r2,2(r12)
  800cb8:	20fffa04 	addi	r3,r4,-24
                *pbitstream = ((uint8_t*)*pbitstream) + 1;
  800cbc:	620000c4 	addi	r8,r12,3
        *pbitstream = ((uint8_t*)*pbitstream) + 1;
        if(*pbitcount >= 16){ //at least 2 bytes
            *pbitbuffer |= *((uint8_t*)(*pbitstream)) << (*pbitcount - 16);
            *pbitstream = ((uint8_t*)*pbitstream) + 1;
            if(*pbitcount >= 24){ //at least 3 bytes
                *pbitbuffer |= *((uint8_t*)(*pbitstream)) << (*pbitcount - 24);
  800cc0:	10c4983a 	sll	r2,r2,r3
  800cc4:	288ab03a 	or	r5,r5,r2
                *pbitstream = ((uint8_t*)*pbitstream) + 1;
                if(*pbitcount == 32){ //all 4 bytes shifted in
  800cc8:	24401c26 	beq	r4,r17,800d3c <lossless_decode+0x200>
        if(*pbitcount >= 16){ //at least 2 bytes
            *pbitbuffer |= *((uint8_t*)(*pbitstream)) << (*pbitcount - 16);
            *pbitstream = ((uint8_t*)*pbitstream) + 1;
            if(*pbitcount >= 24){ //at least 3 bytes
                *pbitbuffer |= *((uint8_t*)(*pbitstream)) << (*pbitcount - 24);
                *pbitstream = ((uint8_t*)*pbitstream) + 1;
  800ccc:	4019883a 	mov	r12,r8
        uint8_t index = 1; //zig-zag order index for AC values in the 8x8 matrix, [0, 63]
        while(1){
            //decode AC coefficient
            ib = input_AC(bitbuffer);
            update_buffer(&bitbuffer, &bitstream, &bitcount, ib.bits);
            if(ib.e == 0){
  800cd0:	68bfffcc 	andi	r2,r13,65535
  800cd4:	10a0001c 	xori	r2,r2,32768
  800cd8:	10a00004 	addi	r2,r2,-32768
                    *pbitstream = ((uint8_t*)*pbitstream) + 1;
                }
            }
        }
    }
    *pbitcount &= 7; //the resulting *pbitcount should be between 0 and 7
  800cdc:	238001cc 	andi	r14,r4,7
        uint8_t index = 1; //zig-zag order index for AC values in the 8x8 matrix, [0, 63]
        while(1){
            //decode AC coefficient
            ib = input_AC(bitbuffer);
            update_buffer(&bitbuffer, &bitstream, &bitcount, ib.bits);
            if(ib.e == 0){
  800ce0:	10001e1e 	bne	r2,zero,800d5c <lossless_decode+0x220>
                if(ib.runlength == 15){
  800ce4:	58803fcc 	andi	r2,r11,255
  800ce8:	1400731e 	bne	r2,r16,800eb8 <lossless_decode+0x37c>
                    //EZL
                    if(P) //sum 0 to the next 16 values. This is equivalent to skipping 16.
  800cec:	7800611e 	bne	r15,zero,800e74 <lossless_decode+0x338>
huff_input_t input_AC(uint32_t bitbuffer)
{
    huff_input_t ib;
    uint8_t size;
    ib.runlength  = INPUT_BITS(bitbuffer, 4);
    bitbuffer <<= 4;
  800cf0:	2804913a 	slli	r2,r5,4
            update_buffer(&bitbuffer, &bitstream, &bitcount, ib.bits);
            if(ib.e == 0){
                if(ib.runlength == 15){
                    //EZL
                    if(P) //sum 0 to the next 16 values. This is equivalent to skipping 16.
                        index += 16;
  800cf4:	4a400404 	addi	r9,r9,16
//AC decode function
huff_input_t input_AC(uint32_t bitbuffer)
{
    huff_input_t ib;
    uint8_t size;
    ib.runlength  = INPUT_BITS(bitbuffer, 4);
  800cf8:	2816d73a 	srli	r11,r5,28
    bitbuffer <<= 4;
    size  = INPUT_BITS(bitbuffer, 4);
  800cfc:	1014d73a 	srli	r10,r2,28
    if(size == 0) {
  800d00:	52003fcc 	andi	r8,r10,255
  800d04:	403fd826 	beq	r8,zero,800c68 <lossless_decode+0x12c>
        ib.e = 0;
        ib.bits = 8;
    }
    else{
        bitbuffer <<= 4;
        ib.e = HUFF_EXTEND(INPUT_BITS(bitbuffer,size),size);
  800d08:	2808923a 	slli	r4,r5,8
  800d0c:	8a07c83a 	sub	r3,r17,r8
  800d10:	40bfffc4 	addi	r2,r8,-1
  800d14:	20c8d83a 	srl	r4,r4,r3
  800d18:	2084d83a 	srl	r2,r4,r2
  800d1c:	1000241e 	bne	r2,zero,800db0 <lossless_decode+0x274>
  800d20:	00bfffc4 	movi	r2,-1
  800d24:	1204983a 	sll	r2,r2,r8
  800d28:	10800044 	addi	r2,r2,1
  800d2c:	209b883a 	add	r13,r4,r2
  800d30:	50800204 	addi	r2,r10,8
  800d34:	10803fcc 	andi	r2,r2,255
  800d38:	003fcd06 	br	800c70 <lossless_decode+0x134>
            *pbitstream = ((uint8_t*)*pbitstream) + 1;
            if(*pbitcount >= 24){ //at least 3 bytes
                *pbitbuffer |= *((uint8_t*)(*pbitstream)) << (*pbitcount - 24);
                *pbitstream = ((uint8_t*)*pbitstream) + 1;
                if(*pbitcount == 32){ //all 4 bytes shifted in
                    *pbitbuffer |= *((uint8_t*)(*pbitstream));
  800d3c:	608000c3 	ldbu	r2,3(r12)
                    *pbitstream = ((uint8_t*)*pbitstream) + 1;
                }
            }
        }
    }
    *pbitcount &= 7; //the resulting *pbitcount should be between 0 and 7
  800d40:	238001cc 	andi	r14,r4,7
            if(*pbitcount >= 24){ //at least 3 bytes
                *pbitbuffer |= *((uint8_t*)(*pbitstream)) << (*pbitcount - 24);
                *pbitstream = ((uint8_t*)*pbitstream) + 1;
                if(*pbitcount == 32){ //all 4 bytes shifted in
                    *pbitbuffer |= *((uint8_t*)(*pbitstream));
                    *pbitstream = ((uint8_t*)*pbitstream) + 1;
  800d44:	63000104 	addi	r12,r12,4
            *pbitstream = ((uint8_t*)*pbitstream) + 1;
            if(*pbitcount >= 24){ //at least 3 bytes
                *pbitbuffer |= *((uint8_t*)(*pbitstream)) << (*pbitcount - 24);
                *pbitstream = ((uint8_t*)*pbitstream) + 1;
                if(*pbitcount == 32){ //all 4 bytes shifted in
                    *pbitbuffer |= *((uint8_t*)(*pbitstream));
  800d48:	288ab03a 	or	r5,r5,r2
        uint8_t index = 1; //zig-zag order index for AC values in the 8x8 matrix, [0, 63]
        while(1){
            //decode AC coefficient
            ib = input_AC(bitbuffer);
            update_buffer(&bitbuffer, &bitstream, &bitcount, ib.bits);
            if(ib.e == 0){
  800d4c:	68bfffcc 	andi	r2,r13,65535
  800d50:	10a0001c 	xori	r2,r2,32768
  800d54:	10a00004 	addi	r2,r2,-32768
  800d58:	103fe226 	beq	r2,zero,800ce4 <lossless_decode+0x1a8>
                    //if P == 1, then don't change the values
                    break; //break from while and go to next block
                }
            }
            else{ //ib.e != 0
                if(P) //sum 0 to the next runlength values. This is equivalent to skipping runlength.
  800d5c:	7800161e 	bne	r15,zero,800db8 <lossless_decode+0x27c>
                    index += ib.runlength;
  800d60:	4ad3883a 	add	r9,r9,r11
                        pe[zigzag_table[index]] = 0;
                }
                //now add the actual value
#ifndef NULL_QUANT
                if(P){ //differential decoding based on previous frame 
                    pe[zigzag_table[index]] += ib.e * (((DCTELEM*)quant)[zigzag_table[index]]);
  800d64:	4a003fcc 	andi	r8,r9,255
  800d68:	4205883a 	add	r2,r8,r8
  800d6c:	1085883a 	add	r2,r2,r2
  800d70:	02c02074 	movhi	r11,129
  800d74:	5ac00a04 	addi	r11,r11,40
  800d78:	12c5883a 	add	r2,r2,r11
  800d7c:	10c00017 	ldw	r3,0(r2)
  800d80:	18c7883a 	add	r3,r3,r3
  800d84:	19c9883a 	add	r4,r3,r7
  800d88:	2080000b 	ldhu	r2,0(r4)
  800d8c:	30c7883a 	add	r3,r6,r3
  800d90:	1900000b 	ldhu	r4,0(r3)
  800d94:	6885383a 	mul	r2,r13,r2
  800d98:	1105883a 	add	r2,r2,r4
  800d9c:	1880000d 	sth	r2,0(r3)
                    pe[zigzag_table[index]] = ib.e * (((DCTELEM*)quant)[zigzag_table[index]]);
                }
#else
                pe[zigzag_table[index]] = ib.e;
#endif
                if(index >= 63) break;
  800da0:	00800f84 	movi	r2,62
  800da4:	12002836 	bltu	r2,r8,800e48 <lossless_decode+0x30c>
                index++;
  800da8:	4a400044 	addi	r9,r9,1
  800dac:	003fa906 	br	800c54 <lossless_decode+0x118>
        ib.e = 0;
        ib.bits = 8;
    }
    else{
        bitbuffer <<= 4;
        ib.e = HUFF_EXTEND(INPUT_BITS(bitbuffer,size),size);
  800db0:	201b883a 	mov	r13,r4
  800db4:	003fde06 	br	800d30 <lossless_decode+0x1f4>
            }
            else{ //ib.e != 0
                if(P) //sum 0 to the next runlength values. This is equivalent to skipping runlength.
                    index += ib.runlength;
                else{ //add runlength zeros 
                    uint8_t terminal = index + ib.runlength;
  800db8:	4ac7883a 	add	r3,r9,r11
                    for(; index < terminal; index++)
  800dbc:	4a003fcc 	andi	r8,r9,255
  800dc0:	18803fcc 	andi	r2,r3,255
  800dc4:	40805f2e 	bgeu	r8,r2,800f44 <lossless_decode+0x408>
  800dc8:	4005883a 	mov	r2,r8
  800dcc:	1815883a 	mov	r10,r3
  800dd0:	4809883a 	mov	r4,r9
  800dd4:	02c02074 	movhi	r11,129
  800dd8:	5ac00a04 	addi	r11,r11,40
  800ddc:	1a003fcc 	andi	r8,r3,255
                        pe[zigzag_table[index]] = 0;
  800de0:	1085883a 	add	r2,r2,r2
  800de4:	1085883a 	add	r2,r2,r2
  800de8:	12c5883a 	add	r2,r2,r11
  800dec:	10c00017 	ldw	r3,0(r2)
            else{ //ib.e != 0
                if(P) //sum 0 to the next runlength values. This is equivalent to skipping runlength.
                    index += ib.runlength;
                else{ //add runlength zeros 
                    uint8_t terminal = index + ib.runlength;
                    for(; index < terminal; index++)
  800df0:	21000044 	addi	r4,r4,1
  800df4:	20803fcc 	andi	r2,r4,255
                        pe[zigzag_table[index]] = 0;
  800df8:	18c7883a 	add	r3,r3,r3
  800dfc:	1987883a 	add	r3,r3,r6
  800e00:	1800000d 	sth	zero,0(r3)
            else{ //ib.e != 0
                if(P) //sum 0 to the next runlength values. This is equivalent to skipping runlength.
                    index += ib.runlength;
                else{ //add runlength zeros 
                    uint8_t terminal = index + ib.runlength;
                    for(; index < terminal; index++)
  800e04:	123ff61e 	bne	r2,r8,800de0 <lossless_decode+0x2a4>
  800e08:	5005883a 	mov	r2,r10
  800e0c:	5013883a 	mov	r9,r10
  800e10:	52003fcc 	andi	r8,r10,255
#ifndef NULL_QUANT
                if(P){ //differential decoding based on previous frame 
                    pe[zigzag_table[index]] += ib.e * (((DCTELEM*)quant)[zigzag_table[index]]);
                }
                else{ //no differential decoding
                    pe[zigzag_table[index]] = ib.e * (((DCTELEM*)quant)[zigzag_table[index]]);
  800e14:	10803fcc 	andi	r2,r2,255
  800e18:	1085883a 	add	r2,r2,r2
  800e1c:	1085883a 	add	r2,r2,r2
  800e20:	12c5883a 	add	r2,r2,r11
  800e24:	10c00017 	ldw	r3,0(r2)
  800e28:	18c7883a 	add	r3,r3,r3
  800e2c:	19c9883a 	add	r4,r3,r7
  800e30:	2080000b 	ldhu	r2,0(r4)
  800e34:	30c7883a 	add	r3,r6,r3
  800e38:	6885383a 	mul	r2,r13,r2
  800e3c:	1880000d 	sth	r2,0(r3)
                }
#else
                pe[zigzag_table[index]] = ib.e;
#endif
                if(index >= 63) break;
  800e40:	00800f84 	movi	r2,62
  800e44:	123fd82e 	bgeu	r2,r8,800da8 <lossless_decode+0x26c>
    
    huff_input_t ib;
    //Used for I frame DC differential encoding
    DCTELEM cur = 0;
    
    for(int count = 0; count < num_blocks; count ++){
  800e48:	94800044 	addi	r18,r18,1
  800e4c:	31802004 	addi	r6,r6,128
  800e50:	a4bf571e 	bne	r20,r18,800bb0 <lossless_decode+0x74>
                if(index >= 63) break;
                index++;
            }
        }
    }
}
  800e54:	dd400517 	ldw	r21,20(sp)
  800e58:	dd000417 	ldw	r20,16(sp)
  800e5c:	dcc00317 	ldw	r19,12(sp)
  800e60:	dc800217 	ldw	r18,8(sp)
  800e64:	dc400117 	ldw	r17,4(sp)
  800e68:	dc000017 	ldw	r16,0(sp)
  800e6c:	dec00604 	addi	sp,sp,24
  800e70:	f800283a 	ret
                if(ib.runlength == 15){
                    //EZL
                    if(P) //sum 0 to the next 16 values. This is equivalent to skipping 16.
                        index += 16;
                    else{ //add 16 zeros
                        uint8_t terminal = index + 16;
  800e74:	48800404 	addi	r2,r9,16
                        for(; index < terminal; index++)
  800e78:	11003fcc 	andi	r4,r2,255
  800e7c:	4a003fcc 	andi	r8,r9,255
  800e80:	413f742e 	bgeu	r8,r4,800c54 <lossless_decode+0x118>
  800e84:	02c02074 	movhi	r11,129
  800e88:	5ac00a04 	addi	r11,r11,40
                            pe[zigzag_table[index]] = 0;
  800e8c:	4205883a 	add	r2,r8,r8
  800e90:	1085883a 	add	r2,r2,r2
  800e94:	12c5883a 	add	r2,r2,r11
  800e98:	10c00017 	ldw	r3,0(r2)
                    //EZL
                    if(P) //sum 0 to the next 16 values. This is equivalent to skipping 16.
                        index += 16;
                    else{ //add 16 zeros
                        uint8_t terminal = index + 16;
                        for(; index < terminal; index++)
  800e9c:	4a400044 	addi	r9,r9,1
  800ea0:	4a003fcc 	andi	r8,r9,255
                            pe[zigzag_table[index]] = 0;
  800ea4:	18c7883a 	add	r3,r3,r3
  800ea8:	1987883a 	add	r3,r3,r6
  800eac:	1800000d 	sth	zero,0(r3)
                    //EZL
                    if(P) //sum 0 to the next 16 values. This is equivalent to skipping 16.
                        index += 16;
                    else{ //add 16 zeros
                        uint8_t terminal = index + 16;
                        for(; index < terminal; index++)
  800eb0:	413ff636 	bltu	r8,r4,800e8c <lossless_decode+0x350>
  800eb4:	003f6706 	br	800c54 <lossless_decode+0x118>
                            pe[zigzag_table[index]] = 0;
                    }
                }
                else {
                    //END
                    if(P == 0){
  800eb8:	a83fe31e 	bne	r21,zero,800e48 <lossless_decode+0x30c>
                        //output all zeros
                        for(; index < 64; index++)
  800ebc:	4a003fcc 	andi	r8,r9,255
  800ec0:	00800fc4 	movi	r2,63
  800ec4:	123fe036 	bltu	r2,r8,800e48 <lossless_decode+0x30c>
  800ec8:	02c02074 	movhi	r11,129
  800ecc:	5ac00a04 	addi	r11,r11,40
  800ed0:	01001004 	movi	r4,64
                            pe[zigzag_table[index]] = 0;
  800ed4:	4205883a 	add	r2,r8,r8
  800ed8:	1085883a 	add	r2,r2,r2
  800edc:	12c5883a 	add	r2,r2,r11
  800ee0:	10c00017 	ldw	r3,0(r2)
                }
                else {
                    //END
                    if(P == 0){
                        //output all zeros
                        for(; index < 64; index++)
  800ee4:	4a400044 	addi	r9,r9,1
  800ee8:	4a003fcc 	andi	r8,r9,255
                            pe[zigzag_table[index]] = 0;
  800eec:	18c7883a 	add	r3,r3,r3
  800ef0:	1987883a 	add	r3,r3,r6
  800ef4:	1800000d 	sth	zero,0(r3)
                }
                else {
                    //END
                    if(P == 0){
                        //output all zeros
                        for(; index < 64; index++)
  800ef8:	413ff61e 	bne	r8,r4,800ed4 <lossless_decode+0x398>
    
    huff_input_t ib;
    //Used for I frame DC differential encoding
    DCTELEM cur = 0;
    
    for(int count = 0; count < num_blocks; count ++){
  800efc:	94800044 	addi	r18,r18,1
  800f00:	31802004 	addi	r6,r6,128
  800f04:	a4bf2a1e 	bne	r20,r18,800bb0 <lossless_decode+0x74>
  800f08:	003fd206 	br	800e54 <lossless_decode+0x318>
        ib.e = 0;
        ib.bits = 4;
    }
    else{
        bitbuffer <<= 4;
        ib.e = HUFF_EXTEND(INPUT_BITS(bitbuffer,size),size);
  800f0c:	2804913a 	slli	r2,r5,4
  800f10:	00c00804 	movi	r3,32
  800f14:	1a07c83a 	sub	r3,r3,r8
  800f18:	10c6d83a 	srl	r3,r2,r3
  800f1c:	413fffc4 	addi	r4,r8,-1
  800f20:	1908d83a 	srl	r4,r3,r4
  800f24:	2000111e 	bne	r4,zero,800f6c <lossless_decode+0x430>
  800f28:	00bfffc4 	movi	r2,-1
  800f2c:	1204983a 	sll	r2,r2,r8
  800f30:	10800044 	addi	r2,r2,1
  800f34:	1889883a 	add	r4,r3,r2
  800f38:	48800104 	addi	r2,r9,4
  800f3c:	10803fcc 	andi	r2,r2,255
  800f40:	003f2006 	br	800bc4 <lossless_decode+0x88>
                if(index >= 63) break;
                index++;
            }
        }
    }
}
  800f44:	4805883a 	mov	r2,r9
  800f48:	02c02074 	movhi	r11,129
  800f4c:	5ac00a04 	addi	r11,r11,40
  800f50:	003fb006 	br	800e14 <lossless_decode+0x2d8>
        if(P){ //differential decoding based on previous frame
            pe[0] += (ib.e * (((DCTELEM*)quant)[0]) );
        }
        else{ //differential decoding based on previous block
            cur += ib.e;
            pe[0] = cur * (((DCTELEM*)quant)[0]);
  800f54:	38c0000b 	ldhu	r3,0(r7)
#ifndef NULL_QUANT
        if(P){ //differential decoding based on previous frame
            pe[0] += (ib.e * (((DCTELEM*)quant)[0]) );
        }
        else{ //differential decoding based on previous block
            cur += ib.e;
  800f58:	9905883a 	add	r2,r19,r4
  800f5c:	1027883a 	mov	r19,r2
            pe[0] = cur * (((DCTELEM*)quant)[0]);
  800f60:	10c5383a 	mul	r2,r2,r3
  800f64:	3080000d 	sth	r2,0(r6)
  800f68:	003f3606 	br	800c44 <lossless_decode+0x108>
        ib.e = 0;
        ib.bits = 4;
    }
    else{
        bitbuffer <<= 4;
        ib.e = HUFF_EXTEND(INPUT_BITS(bitbuffer,size),size);
  800f6c:	1809883a 	mov	r4,r3
  800f70:	003ff106 	br	800f38 <lossless_decode+0x3fc>
            *pbitstream = ((uint8_t*)*pbitstream) + 1;
            if(*pbitcount >= 24){ //at least 3 bytes
                *pbitbuffer |= *((uint8_t*)(*pbitstream)) << (*pbitcount - 24);
                *pbitstream = ((uint8_t*)*pbitstream) + 1;
                if(*pbitcount == 32){ //all 4 bytes shifted in
                    *pbitbuffer |= *((uint8_t*)(*pbitstream));
  800f74:	608000c3 	ldbu	r2,3(r12)
                    *pbitstream = ((uint8_t*)*pbitstream) + 1;
  800f78:	63000104 	addi	r12,r12,4
            *pbitstream = ((uint8_t*)*pbitstream) + 1;
            if(*pbitcount >= 24){ //at least 3 bytes
                *pbitbuffer |= *((uint8_t*)(*pbitstream)) << (*pbitcount - 24);
                *pbitstream = ((uint8_t*)*pbitstream) + 1;
                if(*pbitcount == 32){ //all 4 bytes shifted in
                    *pbitbuffer |= *((uint8_t*)(*pbitstream));
  800f7c:	288ab03a 	or	r5,r5,r2
  800f80:	003f2a06 	br	800c2c <lossless_decode+0xf0>

00800f84 <ycbcr_to_rgb>:
//(1 bit sign, 14 bits scaling, 8 bit original sample + 1 additional bit since the
//result can overflow due to imprecisions added in the quantizaton)


void ycbcr_to_rgb(int h, int w, uint32_t w_size, pcolor_block_t Y, pcolor_block_t Cb, pcolor_block_t Cr, rgb_pixel_t* rgbblock)
{
  800f84:	3109383a 	mul	r4,r6,r4
  800f88:	db800017 	ldw	r14,0(sp)
  800f8c:	db400117 	ldw	r13,4(sp)
  800f90:	290b883a 	add	r5,r5,r4
  800f94:	d8800217 	ldw	r2,8(sp)
  800f98:	294b883a 	add	r5,r5,r5
  800f9c:	294b883a 	add	r5,r5,r5
  800fa0:	318d883a 	add	r6,r6,r6
  800fa4:	1151883a 	add	r8,r2,r5
  800fa8:	318d883a 	add	r6,r6,r6
  800fac:	6817883a 	mov	r11,r13
  800fb0:	7015883a 	mov	r10,r14
  800fb4:	3813883a 	mov	r9,r7
  800fb8:	0019883a 	mov	r12,zero
        index = (h+y) * w_size + w;
        for(int x = 0; x < 8; x++){
        	uint32_t Cbr = Cr[y][x] << 8 | Cb[y][x];
        	rgb_pixel_t pixel;
        	uint32_t rawPixel;
        	rawPixel = ALT_CI_YCBCR_TO_RGB2_INST(Y[y][x],Cbr);
  800fbc:	6345883a 	add	r2,r12,r13
  800fc0:	11000003 	ldbu	r4,0(r2)
  800fc4:	6387883a 	add	r3,r12,r14
  800fc8:	19400003 	ldbu	r5,0(r3)
  800fcc:	2008923a 	slli	r4,r4,8
  800fd0:	61c7883a 	add	r3,r12,r7
  800fd4:	18800003 	ldbu	r2,0(r3)
  800fd8:	2148b03a 	or	r4,r4,r5
  800fdc:	1105d032 	custom	64,r2,r2,r4
            //pixel.alpha = 0;
            //pixel.blue = rawPixel;
            //pixel.green = rawPixel >> 8;
            //pixel.red = rawPixel >> 16;
            //rgbblock[index] = pixel;
            IOWR_32DIRECT(rgbblock, index*4, rawPixel);
  800fe0:	40800035 	stwio	r2,0(r8)
        index = (h+y) * w_size + w;
        for(int x = 0; x < 8; x++){
        	uint32_t Cbr = Cr[y][x] << 8 | Cb[y][x];
        	rgb_pixel_t pixel;
        	uint32_t rawPixel;
        	rawPixel = ALT_CI_YCBCR_TO_RGB2_INST(Y[y][x],Cbr);
  800fe4:	58c00043 	ldbu	r3,1(r11)
  800fe8:	50800043 	ldbu	r2,1(r10)
  800fec:	49000043 	ldbu	r4,1(r9)
  800ff0:	1806923a 	slli	r3,r3,8
  800ff4:	1886b03a 	or	r3,r3,r2
  800ff8:	20c9d032 	custom	64,r4,r4,r3
            //pixel.alpha = 0;
            //pixel.blue = rawPixel;
            //pixel.green = rawPixel >> 8;
            //pixel.red = rawPixel >> 16;
            //rgbblock[index] = pixel;
            IOWR_32DIRECT(rgbblock, index*4, rawPixel);
  800ffc:	41000135 	stwio	r4,4(r8)
        index = (h+y) * w_size + w;
        for(int x = 0; x < 8; x++){
        	uint32_t Cbr = Cr[y][x] << 8 | Cb[y][x];
        	rgb_pixel_t pixel;
        	uint32_t rawPixel;
        	rawPixel = ALT_CI_YCBCR_TO_RGB2_INST(Y[y][x],Cbr);
  801000:	58800083 	ldbu	r2,2(r11)
  801004:	51000083 	ldbu	r4,2(r10)
  801008:	48c00083 	ldbu	r3,2(r9)
  80100c:	1004923a 	slli	r2,r2,8
  801010:	1104b03a 	or	r2,r2,r4
  801014:	1887d032 	custom	64,r3,r3,r2
            //pixel.alpha = 0;
            //pixel.blue = rawPixel;
            //pixel.green = rawPixel >> 8;
            //pixel.red = rawPixel >> 16;
            //rgbblock[index] = pixel;
            IOWR_32DIRECT(rgbblock, index*4, rawPixel);
  801018:	40c00235 	stwio	r3,8(r8)
        index = (h+y) * w_size + w;
        for(int x = 0; x < 8; x++){
        	uint32_t Cbr = Cr[y][x] << 8 | Cb[y][x];
        	rgb_pixel_t pixel;
        	uint32_t rawPixel;
        	rawPixel = ALT_CI_YCBCR_TO_RGB2_INST(Y[y][x],Cbr);
  80101c:	588000c3 	ldbu	r2,3(r11)
  801020:	510000c3 	ldbu	r4,3(r10)
  801024:	48c000c3 	ldbu	r3,3(r9)
  801028:	1004923a 	slli	r2,r2,8
  80102c:	1104b03a 	or	r2,r2,r4
  801030:	1887d032 	custom	64,r3,r3,r2
            //pixel.alpha = 0;
            //pixel.blue = rawPixel;
            //pixel.green = rawPixel >> 8;
            //pixel.red = rawPixel >> 16;
            //rgbblock[index] = pixel;
            IOWR_32DIRECT(rgbblock, index*4, rawPixel);
  801034:	40c00335 	stwio	r3,12(r8)
        index = (h+y) * w_size + w;
        for(int x = 0; x < 8; x++){
        	uint32_t Cbr = Cr[y][x] << 8 | Cb[y][x];
        	rgb_pixel_t pixel;
        	uint32_t rawPixel;
        	rawPixel = ALT_CI_YCBCR_TO_RGB2_INST(Y[y][x],Cbr);
  801038:	58800103 	ldbu	r2,4(r11)
  80103c:	51000103 	ldbu	r4,4(r10)
  801040:	48c00103 	ldbu	r3,4(r9)
  801044:	1004923a 	slli	r2,r2,8
  801048:	1104b03a 	or	r2,r2,r4
  80104c:	1887d032 	custom	64,r3,r3,r2
            //pixel.alpha = 0;
            //pixel.blue = rawPixel;
            //pixel.green = rawPixel >> 8;
            //pixel.red = rawPixel >> 16;
            //rgbblock[index] = pixel;
            IOWR_32DIRECT(rgbblock, index*4, rawPixel);
  801050:	40c00435 	stwio	r3,16(r8)
        index = (h+y) * w_size + w;
        for(int x = 0; x < 8; x++){
        	uint32_t Cbr = Cr[y][x] << 8 | Cb[y][x];
        	rgb_pixel_t pixel;
        	uint32_t rawPixel;
        	rawPixel = ALT_CI_YCBCR_TO_RGB2_INST(Y[y][x],Cbr);
  801054:	58800143 	ldbu	r2,5(r11)
  801058:	51000143 	ldbu	r4,5(r10)
  80105c:	48c00143 	ldbu	r3,5(r9)
  801060:	1004923a 	slli	r2,r2,8
  801064:	1104b03a 	or	r2,r2,r4
  801068:	1887d032 	custom	64,r3,r3,r2
            //pixel.alpha = 0;
            //pixel.blue = rawPixel;
            //pixel.green = rawPixel >> 8;
            //pixel.red = rawPixel >> 16;
            //rgbblock[index] = pixel;
            IOWR_32DIRECT(rgbblock, index*4, rawPixel);
  80106c:	40c00535 	stwio	r3,20(r8)
        index = (h+y) * w_size + w;
        for(int x = 0; x < 8; x++){
        	uint32_t Cbr = Cr[y][x] << 8 | Cb[y][x];
        	rgb_pixel_t pixel;
        	uint32_t rawPixel;
        	rawPixel = ALT_CI_YCBCR_TO_RGB2_INST(Y[y][x],Cbr);
  801070:	58800183 	ldbu	r2,6(r11)
  801074:	51000183 	ldbu	r4,6(r10)
  801078:	48c00183 	ldbu	r3,6(r9)
  80107c:	1004923a 	slli	r2,r2,8
  801080:	1104b03a 	or	r2,r2,r4
  801084:	1887d032 	custom	64,r3,r3,r2
            //pixel.alpha = 0;
            //pixel.blue = rawPixel;
            //pixel.green = rawPixel >> 8;
            //pixel.red = rawPixel >> 16;
            //rgbblock[index] = pixel;
            IOWR_32DIRECT(rgbblock, index*4, rawPixel);
  801088:	40c00635 	stwio	r3,24(r8)
        index = (h+y) * w_size + w;
        for(int x = 0; x < 8; x++){
        	uint32_t Cbr = Cr[y][x] << 8 | Cb[y][x];
        	rgb_pixel_t pixel;
        	uint32_t rawPixel;
        	rawPixel = ALT_CI_YCBCR_TO_RGB2_INST(Y[y][x],Cbr);
  80108c:	588001c3 	ldbu	r2,7(r11)
  801090:	510001c3 	ldbu	r4,7(r10)
  801094:	48c001c3 	ldbu	r3,7(r9)
  801098:	1004923a 	slli	r2,r2,8
  80109c:	1104b03a 	or	r2,r2,r4
  8010a0:	1887d032 	custom	64,r3,r3,r2
            //pixel.alpha = 0;
            //pixel.blue = rawPixel;
            //pixel.green = rawPixel >> 8;
            //pixel.red = rawPixel >> 16;
            //rgbblock[index] = pixel;
            IOWR_32DIRECT(rgbblock, index*4, rawPixel);
  8010a4:	40c00735 	stwio	r3,28(r8)
  8010a8:	63000204 	addi	r12,r12,8


void ycbcr_to_rgb(int h, int w, uint32_t w_size, pcolor_block_t Y, pcolor_block_t Cb, pcolor_block_t Cr, rgb_pixel_t* rgbblock)
{
    int index;
    for (int y = 0; y < 8; y++){
  8010ac:	00801004 	movi	r2,64
            //pixel.alpha = 0;
            //pixel.blue = rawPixel;
            //pixel.green = rawPixel >> 8;
            //pixel.red = rawPixel >> 16;
            //rgbblock[index] = pixel;
            IOWR_32DIRECT(rgbblock, index*4, rawPixel);
  8010b0:	4191883a 	add	r8,r8,r6
  8010b4:	5ac00204 	addi	r11,r11,8
  8010b8:	52800204 	addi	r10,r10,8
  8010bc:	4a400204 	addi	r9,r9,8


void ycbcr_to_rgb(int h, int w, uint32_t w_size, pcolor_block_t Y, pcolor_block_t Cb, pcolor_block_t Cr, rgb_pixel_t* rgbblock)
{
    int index;
    for (int y = 0; y < 8; y++){
  8010c0:	60bfbe1e 	bne	r12,r2,800fbc <ycbcr_to_rgb+0x38>
            //rgbblock[index] = pixel;
            IOWR_32DIRECT(rgbblock, index*4, rawPixel);
            index++;
        }
    }
}
  8010c4:	f800283a 	ret

008010c8 <initTimer>:
	}

}

//Timer initalization function
void initTimer() {
  8010c8:	deffff04 	addi	sp,sp,-4

	//set the timer period to 1400/50 million seconds
	int timerPeriod = 2900000;

	// initialize timer interrupt vector
	alt_irq_register(TIMER_0_IRQ, (void*) 0, timer0_ISR);
  8010cc:	01000044 	movi	r4,1
  8010d0:	000b883a 	mov	r5,zero
  8010d4:	01802034 	movhi	r6,128
  8010d8:	31844904 	addi	r6,r6,4388
	}

}

//Timer initalization function
void initTimer() {
  8010dc:	dfc00015 	stw	ra,0(sp)

	//set the timer period to 1400/50 million seconds
	int timerPeriod = 2900000;

	// initialize timer interrupt vector
	alt_irq_register(TIMER_0_IRQ, (void*) 0, timer0_ISR);
  8010e0:	080b3640 	call	80b364 <alt_irq_register>

	// initialize timer period
	IOWR(TIMER_0_BASE, 2, (alt_u16)timerPeriod);
  8010e4:	00d00804 	movi	r3,16416
  8010e8:	00804434 	movhi	r2,272
  8010ec:	10850204 	addi	r2,r2,5128
  8010f0:	10c00035 	stwio	r3,0(r2)
	IOWR(TIMER_0_BASE, 3, (alt_u16)(timerPeriod >> 16));
  8010f4:	01000b04 	movi	r4,44
  8010f8:	10800104 	addi	r2,r2,4
  8010fc:	11000035 	stwio	r4,0(r2)

	// clear timer interrupt bit in status register
	IOWR(TIMER_0_BASE, 0, 0x0);
  801100:	00c04434 	movhi	r3,272
  801104:	18c50004 	addi	r3,r3,5120
  801108:	18000035 	stwio	zero,0(r3)

	// initialize timer control - start timer, run continuously, enable interrupts
	IOWR(TIMER_0_BASE, 1, 0x7);
  80110c:	010001c4 	movi	r4,7
  801110:	10bffe04 	addi	r2,r2,-8
  801114:	11000035 	stwio	r4,0(r2)
}
  801118:	dfc00017 	ldw	ra,0(sp)
  80111c:	dec00104 	addi	sp,sp,4
  801120:	f800283a 	ret

00801124 <timer0_ISR>:
int counter =0;
alt_up_pixel_buffer_dma_dev * pixel_buf_dev;

void ycbcr_to_rgb(int h, int w, uint32_t w_size, pcolor_block_t Y, pcolor_block_t Cb, pcolor_block_t Cr, rgb_pixel_t* rgbblock);

static void timer0_ISR(void* context, alt_u32 id) {
  801124:	deffff04 	addi	sp,sp,-4
	// acknowledge the interrupt by clearing the TO bit in the status register
	IOWR(TIMER_0_BASE, 0, 0x0);
  801128:	00804434 	movhi	r2,272
  80112c:	10850004 	addi	r2,r2,5120
int counter =0;
alt_up_pixel_buffer_dma_dev * pixel_buf_dev;

void ycbcr_to_rgb(int h, int w, uint32_t w_size, pcolor_block_t Y, pcolor_block_t Cb, pcolor_block_t Cr, rgb_pixel_t* rgbblock);

static void timer0_ISR(void* context, alt_u32 id) {
  801130:	dfc00015 	stw	ra,0(sp)
	// acknowledge the interrupt by clearing the TO bit in the status register
	IOWR(TIMER_0_BASE, 0, 0x0);
  801134:	10000035 	stwio	zero,0(r2)
	if(pixel_buf_dev != NULL && *playing && flag){
  801138:	d1277317 	ldw	r4,-25140(gp)
  80113c:	20000e26 	beq	r4,zero,801178 <timer0_ISR+0x54>
  801140:	d0a76f17 	ldw	r2,-25156(gp)
  801144:	10c00017 	ldw	r3,0(r2)
  801148:	18000b26 	beq	r3,zero,801178 <timer0_ISR+0x54>
  80114c:	d0a76d17 	ldw	r2,-25164(gp)
  801150:	10000926 	beq	r2,zero,801178 <timer0_ISR+0x54>
		flag = 0;
  801154:	d0276d15 	stw	zero,-25164(gp)
  801158:	00000106 	br	801160 <timer0_ISR+0x3c>
  80115c:	d1277317 	ldw	r4,-25140(gp)
		while(alt_up_pixel_buffer_dma_check_swap_buffers_status(pixel_buf_dev));
  801160:	080d6940 	call	80d694 <alt_up_pixel_buffer_dma_check_swap_buffers_status>
  801164:	103ffd1e 	bne	r2,zero,80115c <timer0_ISR+0x38>
		alt_up_pixel_buffer_dma_swap_buffers(pixel_buf_dev);
  801168:	d1277317 	ldw	r4,-25140(gp)
	}

}
  80116c:	dfc00017 	ldw	ra,0(sp)
  801170:	dec00104 	addi	sp,sp,4
	// acknowledge the interrupt by clearing the TO bit in the status register
	IOWR(TIMER_0_BASE, 0, 0x0);
	if(pixel_buf_dev != NULL && *playing && flag){
		flag = 0;
		while(alt_up_pixel_buffer_dma_check_swap_buffers_status(pixel_buf_dev));
		alt_up_pixel_buffer_dma_swap_buffers(pixel_buf_dev);
  801174:	080d63c1 	jmpi	80d63c <alt_up_pixel_buffer_dma_swap_buffers>
	}

}
  801178:	dfc00017 	ldw	ra,0(sp)
  80117c:	dec00104 	addi	sp,sp,4
  801180:	f800283a 	ret

00801184 <main>:
	// initialize timer control - start timer, run continuously, enable interrupts
	IOWR(TIMER_0_BASE, 1, 0x7);
}

int main()
{
  801184:	deffed04 	addi	sp,sp,-76

	  color_block_t** Yblock;
	  color_block_t** Cbblock;
	  color_block_t** Crblock;
	  alt_u32 receiveMessage = 0;
	  recv_dev = altera_avalon_mailbox_open("/dev/mailbox_0");
  801188:	01002074 	movhi	r4,129
  80118c:	213ea904 	addi	r4,r4,-1372
	// initialize timer control - start timer, run continuously, enable interrupts
	IOWR(TIMER_0_BASE, 1, 0x7);
}

int main()
{
  801190:	dfc01215 	stw	ra,72(sp)
  801194:	dd800f15 	stw	r22,60(sp)
  801198:	dc000915 	stw	r16,36(sp)
  80119c:	df001115 	stw	fp,68(sp)
  8011a0:	ddc01015 	stw	r23,64(sp)
  8011a4:	dd400e15 	stw	r21,56(sp)
  8011a8:	dd000d15 	stw	r20,52(sp)
  8011ac:	dcc00c15 	stw	r19,48(sp)
  8011b0:	dc800b15 	stw	r18,44(sp)
  8011b4:	dc400a15 	stw	r17,40(sp)

	  color_block_t** Yblock;
	  color_block_t** Cbblock;
	  color_block_t** Crblock;
	  alt_u32 receiveMessage = 0;
	  recv_dev = altera_avalon_mailbox_open("/dev/mailbox_0");
  8011b8:	080ccfc0 	call	80ccfc <altera_avalon_mailbox_open>
	  send_dev = altera_avalon_mailbox_open("/dev/mailbox_1");
  8011bc:	01002074 	movhi	r4,129
  8011c0:	213ead04 	addi	r4,r4,-1356

	  color_block_t** Yblock;
	  color_block_t** Cbblock;
	  color_block_t** Crblock;
	  alt_u32 receiveMessage = 0;
	  recv_dev = altera_avalon_mailbox_open("/dev/mailbox_0");
  8011c4:	102d883a 	mov	r22,r2
	  send_dev = altera_avalon_mailbox_open("/dev/mailbox_1");
  8011c8:	080ccfc0 	call	80ccfc <altera_avalon_mailbox_open>
  8011cc:	d8800815 	stw	r2,32(sp)
  8011d0:	04002074 	movhi	r16,129
  8011d4:	840e8304 	addi	r16,r16,14860

	  while( altera_avalon_mailbox_get(recv_dev, errno) );
  8011d8:	81400017 	ldw	r5,0(r16)
  8011dc:	b009883a 	mov	r4,r22
  8011e0:	080cf280 	call	80cf28 <altera_avalon_mailbox_get>
  8011e4:	103ffc1e 	bne	r2,zero,8011d8 <main+0x54>

	//set the timer period to 1400/50 million seconds
	int timerPeriod = 2900000;

	// initialize timer interrupt vector
	alt_irq_register(TIMER_0_IRQ, (void*) 0, timer0_ISR);
  8011e8:	01000044 	movi	r4,1
  8011ec:	000b883a 	mov	r5,zero
  8011f0:	01802034 	movhi	r6,128
  8011f4:	31844904 	addi	r6,r6,4388
  8011f8:	080b3640 	call	80b364 <alt_irq_register>

	// initialize timer period
	IOWR(TIMER_0_BASE, 2, (alt_u16)timerPeriod);
  8011fc:	00d00804 	movi	r3,16416
  801200:	00804434 	movhi	r2,272
  801204:	10850204 	addi	r2,r2,5128
  801208:	10c00035 	stwio	r3,0(r2)
	IOWR(TIMER_0_BASE, 3, (alt_u16)(timerPeriod >> 16));
  80120c:	01000b04 	movi	r4,44
  801210:	10800104 	addi	r2,r2,4
  801214:	11000035 	stwio	r4,0(r2)

	// clear timer interrupt bit in status register
	IOWR(TIMER_0_BASE, 0, 0x0);
  801218:	00c04434 	movhi	r3,272
  80121c:	18c50004 	addi	r3,r3,5120
  801220:	18000035 	stwio	zero,0(r3)

	// initialize timer control - start timer, run continuously, enable interrupts
	IOWR(TIMER_0_BASE, 1, 0x7);
  801224:	010001c4 	movi	r4,7
  801228:	10bffe04 	addi	r2,r2,-8
  80122c:	11000035 	stwio	r4,0(r2)

	  while( altera_avalon_mailbox_get(recv_dev, errno) );
	  //file streams
	  FILE* file_in;
	  initTimer();
	  pixel_buf_dev = alt_up_pixel_buffer_dma_open_dev(VIDEO_PIXEL_BUFFER_DMA_0_NAME);
  801230:	01002074 	movhi	r4,129
  801234:	213eb104 	addi	r4,r4,-1340
  801238:	080d4040 	call	80d404 <alt_up_pixel_buffer_dma_open_dev>
  80123c:	d0a77315 	stw	r2,-25140(gp)
	  if ( pixel_buf_dev == NULL){
  801240:	1000031e 	bne	r2,zero,801250 <main+0xcc>
		  error_and_exit ("Error: could not open pixel buffer device \n");
  801244:	01002074 	movhi	r4,129
  801248:	213eb904 	addi	r4,r4,-1308
  80124c:	08006880 	call	800688 <error_and_exit>
	  }


	  YDCAC = altera_avalon_mailbox_pend(recv_dev);
  801250:	b009883a 	mov	r4,r22
  801254:	080ce800 	call	80ce80 <altera_avalon_mailbox_pend>
	  CbDCAC = altera_avalon_mailbox_pend(recv_dev);
  801258:	b009883a 	mov	r4,r22
	  if ( pixel_buf_dev == NULL){
		  error_and_exit ("Error: could not open pixel buffer device \n");
	  }


	  YDCAC = altera_avalon_mailbox_pend(recv_dev);
  80125c:	d8800715 	stw	r2,28(sp)
	  CbDCAC = altera_avalon_mailbox_pend(recv_dev);
  801260:	080ce800 	call	80ce80 <altera_avalon_mailbox_pend>
	  CrDCAC = altera_avalon_mailbox_pend(recv_dev);
  801264:	b009883a 	mov	r4,r22
		  error_and_exit ("Error: could not open pixel buffer device \n");
	  }


	  YDCAC = altera_avalon_mailbox_pend(recv_dev);
	  CbDCAC = altera_avalon_mailbox_pend(recv_dev);
  801268:	d8800615 	stw	r2,24(sp)
	  CrDCAC = altera_avalon_mailbox_pend(recv_dev);
  80126c:	080ce800 	call	80ce80 <altera_avalon_mailbox_pend>

	  Yblock = altera_avalon_mailbox_pend(recv_dev);
  801270:	b009883a 	mov	r4,r22
	  }


	  YDCAC = altera_avalon_mailbox_pend(recv_dev);
	  CbDCAC = altera_avalon_mailbox_pend(recv_dev);
	  CrDCAC = altera_avalon_mailbox_pend(recv_dev);
  801274:	d8800515 	stw	r2,20(sp)

	  Yblock = altera_avalon_mailbox_pend(recv_dev);
  801278:	080ce800 	call	80ce80 <altera_avalon_mailbox_pend>
	  Cbblock = altera_avalon_mailbox_pend(recv_dev);
  80127c:	b009883a 	mov	r4,r22

	  YDCAC = altera_avalon_mailbox_pend(recv_dev);
	  CbDCAC = altera_avalon_mailbox_pend(recv_dev);
	  CrDCAC = altera_avalon_mailbox_pend(recv_dev);

	  Yblock = altera_avalon_mailbox_pend(recv_dev);
  801280:	d8800415 	stw	r2,16(sp)
	  Cbblock = altera_avalon_mailbox_pend(recv_dev);
  801284:	080ce800 	call	80ce80 <altera_avalon_mailbox_pend>
	  Crblock = altera_avalon_mailbox_pend(recv_dev);
  801288:	b009883a 	mov	r4,r22
	  YDCAC = altera_avalon_mailbox_pend(recv_dev);
	  CbDCAC = altera_avalon_mailbox_pend(recv_dev);
	  CrDCAC = altera_avalon_mailbox_pend(recv_dev);

	  Yblock = altera_avalon_mailbox_pend(recv_dev);
	  Cbblock = altera_avalon_mailbox_pend(recv_dev);
  80128c:	d8800315 	stw	r2,12(sp)
	  Crblock = altera_avalon_mailbox_pend(recv_dev);
  801290:	080ce800 	call	80ce80 <altera_avalon_mailbox_pend>

	  playing = altera_avalon_mailbox_pend(recv_dev);
  801294:	b009883a 	mov	r4,r22
	  CbDCAC = altera_avalon_mailbox_pend(recv_dev);
	  CrDCAC = altera_avalon_mailbox_pend(recv_dev);

	  Yblock = altera_avalon_mailbox_pend(recv_dev);
	  Cbblock = altera_avalon_mailbox_pend(recv_dev);
	  Crblock = altera_avalon_mailbox_pend(recv_dev);
  801298:	1039883a 	mov	fp,r2

	  playing = altera_avalon_mailbox_pend(recv_dev);
  80129c:	080ce800 	call	80ce80 <altera_avalon_mailbox_pend>
	  getNextFile = altera_avalon_mailbox_pend(recv_dev);
  8012a0:	b009883a 	mov	r4,r22

	  Yblock = altera_avalon_mailbox_pend(recv_dev);
	  Cbblock = altera_avalon_mailbox_pend(recv_dev);
	  Crblock = altera_avalon_mailbox_pend(recv_dev);

	  playing = altera_avalon_mailbox_pend(recv_dev);
  8012a4:	d0a76f15 	stw	r2,-25156(gp)
	  getNextFile = altera_avalon_mailbox_pend(recv_dev);
  8012a8:	080ce800 	call	80ce80 <altera_avalon_mailbox_pend>
	  fastForward = altera_avalon_mailbox_pend(recv_dev);
  8012ac:	b009883a 	mov	r4,r22
	  Yblock = altera_avalon_mailbox_pend(recv_dev);
	  Cbblock = altera_avalon_mailbox_pend(recv_dev);
	  Crblock = altera_avalon_mailbox_pend(recv_dev);

	  playing = altera_avalon_mailbox_pend(recv_dev);
	  getNextFile = altera_avalon_mailbox_pend(recv_dev);
  8012b0:	d0a77215 	stw	r2,-25144(gp)
	  fastForward = altera_avalon_mailbox_pend(recv_dev);
  8012b4:	080ce800 	call	80ce80 <altera_avalon_mailbox_pend>
	  backward = altera_avalon_mailbox_pend(recv_dev);
  8012b8:	b009883a 	mov	r4,r22
	  Cbblock = altera_avalon_mailbox_pend(recv_dev);
	  Crblock = altera_avalon_mailbox_pend(recv_dev);

	  playing = altera_avalon_mailbox_pend(recv_dev);
	  getNextFile = altera_avalon_mailbox_pend(recv_dev);
	  fastForward = altera_avalon_mailbox_pend(recv_dev);
  8012bc:	d0a77115 	stw	r2,-25148(gp)
	  backward = altera_avalon_mailbox_pend(recv_dev);
  8012c0:	080ce800 	call	80ce80 <altera_avalon_mailbox_pend>

	  int h_size = altera_avalon_mailbox_pend(recv_dev);
  8012c4:	b009883a 	mov	r4,r22
	  Crblock = altera_avalon_mailbox_pend(recv_dev);

	  playing = altera_avalon_mailbox_pend(recv_dev);
	  getNextFile = altera_avalon_mailbox_pend(recv_dev);
	  fastForward = altera_avalon_mailbox_pend(recv_dev);
	  backward = altera_avalon_mailbox_pend(recv_dev);
  8012c8:	d0a77015 	stw	r2,-25152(gp)

	  int h_size = altera_avalon_mailbox_pend(recv_dev);
  8012cc:	080ce800 	call	80ce80 <altera_avalon_mailbox_pend>
	  int w_size = altera_avalon_mailbox_pend(recv_dev);
  8012d0:	b009883a 	mov	r4,r22
	  playing = altera_avalon_mailbox_pend(recv_dev);
	  getNextFile = altera_avalon_mailbox_pend(recv_dev);
	  fastForward = altera_avalon_mailbox_pend(recv_dev);
	  backward = altera_avalon_mailbox_pend(recv_dev);

	  int h_size = altera_avalon_mailbox_pend(recv_dev);
  8012d4:	1021883a 	mov	r16,r2
	  int w_size = altera_avalon_mailbox_pend(recv_dev);
  8012d8:	080ce800 	call	80ce80 <altera_avalon_mailbox_pend>


	  printf("YDCAC[%d] = %x\n", 0, YDCAC);
  8012dc:	d9800717 	ldw	r6,28(sp)
  8012e0:	01002074 	movhi	r4,129
  8012e4:	213ec404 	addi	r4,r4,-1264
  8012e8:	000b883a 	mov	r5,zero
	  getNextFile = altera_avalon_mailbox_pend(recv_dev);
	  fastForward = altera_avalon_mailbox_pend(recv_dev);
	  backward = altera_avalon_mailbox_pend(recv_dev);

	  int h_size = altera_avalon_mailbox_pend(recv_dev);
	  int w_size = altera_avalon_mailbox_pend(recv_dev);
  8012ec:	102f883a 	mov	r23,r2


	  printf("YDCAC[%d] = %x\n", 0, YDCAC);
  8012f0:	08014640 	call	801464 <printf>

	  int hCb_size = h_size/8;           //number of chrominance blocks
	  int wCb_size = w_size/8;
  8012f4:	b807883a 	mov	r3,r23
  8012f8:	b800010e 	bge	r23,zero,801300 <main+0x17c>
  8012fc:	b8c001c4 	addi	r3,r23,7
  801300:	8005883a 	mov	r2,r16
  801304:	1829d0fa 	srai	r20,r3,3
  801308:	8000010e 	bge	r16,zero,801310 <main+0x18c>
  80130c:	808001c4 	addi	r2,r16,7
  801310:	1005d0fa 	srai	r2,r2,3
  801314:	152b383a 	mul	r21,r2,r20
	  int hYb_size = h_size/8;           //number of luminance blocks. Same as chrominance in the sample app
	  int wYb_size = w_size/8;

	  while(1){

		  receiveMessage = altera_avalon_mailbox_pend(recv_dev);
  801318:	b009883a 	mov	r4,r22
  80131c:	080ce800 	call	80ce80 <altera_avalon_mailbox_pend>
			  if( (receiveMessage >= 0 && receiveMessage < 15 ) || receiveMessage == 100){
				  break;
			  }
			  receiveMessage = altera_avalon_mailbox_pend(recv_dev);
		  }*/
		  counter = receiveMessage;
  801320:	0025883a 	mov	r18,zero
  801324:	0027883a 	mov	r19,zero
  801328:	d0a76e15 	stw	r2,-25160(gp)
		  for(int i = 0; i< 10; i++){
			  for(int b = 0; b < hYb_size*wYb_size; b++){
  80132c:	95401316 	blt	r18,r21,80137c <main+0x1f8>
				  ycbcr_to_rgb(b/wCb_size*8, b%wCb_size*8, w_size, ((color_block_t*)(Yblock[0]))[b], ((color_block_t*)(Cbblock[0]))[b], ((color_block_t*)(Crblock[0]))[b], (rgb_pixel_t*)(pixel_buf_dev->back_buffer_start_address));

			  }
			  /*for(int b = 0; b < hCb_size*wCb_size; b++)
				  ycbcr_to_rgb(b/wCb_size*8, b%wCb_size*8, w_size, ((color_block_t*)(Yblock[0]))[b], ((color_block_t*)(Cbblock[0]))[b], ((color_block_t*)(Crblock[0]))[b], (rgb_pixel_t*)(pixel_buf_dev->back_buffer_start_address));*/
			  flag = 1;
  801330:	00800044 	movi	r2,1
  801334:	d0a76d15 	stw	r2,-25164(gp)
			  while(flag);
  801338:	d0a76d17 	ldw	r2,-25164(gp)
  80133c:	103ffe1e 	bne	r2,zero,801338 <main+0x1b4>
			  counter = (counter +1 ) % 10;
  801340:	d0a76e17 	ldw	r2,-25160(gp)
  801344:	00c00284 	movi	r3,10
			  altera_avalon_mailbox_post(send_dev, 1);
  801348:	d9000817 	ldw	r4,32(sp)
			  }
			  /*for(int b = 0; b < hCb_size*wCb_size; b++)
				  ycbcr_to_rgb(b/wCb_size*8, b%wCb_size*8, w_size, ((color_block_t*)(Yblock[0]))[b], ((color_block_t*)(Cbblock[0]))[b], ((color_block_t*)(Crblock[0]))[b], (rgb_pixel_t*)(pixel_buf_dev->back_buffer_start_address));*/
			  flag = 1;
			  while(flag);
			  counter = (counter +1 ) % 10;
  80134c:	10800044 	addi	r2,r2,1
  801350:	10c7283a 	div	r3,r2,r3
  801354:	18c002a4 	muli	r3,r3,10
			  altera_avalon_mailbox_post(send_dev, 1);
  801358:	01400044 	movi	r5,1
				  break;
			  }
			  receiveMessage = altera_avalon_mailbox_pend(recv_dev);
		  }*/
		  counter = receiveMessage;
		  for(int i = 0; i< 10; i++){
  80135c:	9967883a 	add	r19,r19,r5
			  }
			  /*for(int b = 0; b < hCb_size*wCb_size; b++)
				  ycbcr_to_rgb(b/wCb_size*8, b%wCb_size*8, w_size, ((color_block_t*)(Yblock[0]))[b], ((color_block_t*)(Cbblock[0]))[b], ((color_block_t*)(Crblock[0]))[b], (rgb_pixel_t*)(pixel_buf_dev->back_buffer_start_address));*/
			  flag = 1;
			  while(flag);
			  counter = (counter +1 ) % 10;
  801360:	10c5c83a 	sub	r2,r2,r3
  801364:	d0a76e15 	stw	r2,-25160(gp)
			  altera_avalon_mailbox_post(send_dev, 1);
  801368:	080cd740 	call	80cd74 <altera_avalon_mailbox_post>
				  break;
			  }
			  receiveMessage = altera_avalon_mailbox_pend(recv_dev);
		  }*/
		  counter = receiveMessage;
		  for(int i = 0; i< 10; i++){
  80136c:	00c00244 	movi	r3,9
  801370:	1cffe916 	blt	r3,r19,801318 <main+0x194>
  801374:	0025883a 	mov	r18,zero
			  for(int b = 0; b < hYb_size*wYb_size; b++){
  801378:	957fed0e 	bge	r18,r21,801330 <main+0x1ac>
				  idct(((dct_block_t*)(YDCAC[0]))[b], ((color_block_t*)(Yblock[0]))[b]);
  80137c:	d8800717 	ldw	r2,28(sp)
  801380:	902291ba 	slli	r17,r18,6
  801384:	902091fa 	slli	r16,r18,7
  801388:	11000017 	ldw	r4,0(r2)
  80138c:	d8800417 	ldw	r2,16(sp)
  801390:	8109883a 	add	r4,r16,r4
  801394:	11400017 	ldw	r5,0(r2)
  801398:	894b883a 	add	r5,r17,r5
  80139c:	08006a80 	call	8006a8 <idct>
				  idct(((dct_block_t*)(CbDCAC[0]))[b], ((color_block_t*)(Cbblock[0]))[b]);
  8013a0:	d8800617 	ldw	r2,24(sp)
  8013a4:	11000017 	ldw	r4,0(r2)
  8013a8:	d8800317 	ldw	r2,12(sp)
  8013ac:	8109883a 	add	r4,r16,r4
  8013b0:	11400017 	ldw	r5,0(r2)
  8013b4:	894b883a 	add	r5,r17,r5
  8013b8:	08006a80 	call	8006a8 <idct>
				  idct(((dct_block_t*)(CrDCAC[0]))[b], ((color_block_t*)(Crblock[0]))[b]);
  8013bc:	d8800517 	ldw	r2,20(sp)
  8013c0:	e1400017 	ldw	r5,0(fp)
  8013c4:	11000017 	ldw	r4,0(r2)
  8013c8:	894b883a 	add	r5,r17,r5
  8013cc:	8109883a 	add	r4,r16,r4
  8013d0:	08006a80 	call	8006a8 <idct>
				  ycbcr_to_rgb(b/wCb_size*8, b%wCb_size*8, w_size, ((color_block_t*)(Yblock[0]))[b], ((color_block_t*)(Cbblock[0]))[b], ((color_block_t*)(Crblock[0]))[b], (rgb_pixel_t*)(pixel_buf_dev->back_buffer_start_address));
  8013d4:	d8800317 	ldw	r2,12(sp)
  8013d8:	9509283a 	div	r4,r18,r20
  8013dc:	250b383a 	mul	r5,r4,r20
  8013e0:	10c00017 	ldw	r3,0(r2)
  8013e4:	d8800417 	ldw	r2,16(sp)
  8013e8:	914bc83a 	sub	r5,r18,r5
  8013ec:	88c7883a 	add	r3,r17,r3
  8013f0:	11c00017 	ldw	r7,0(r2)
  8013f4:	d8c00015 	stw	r3,0(sp)
  8013f8:	e0800017 	ldw	r2,0(fp)
  8013fc:	200890fa 	slli	r4,r4,3
  801400:	280a90fa 	slli	r5,r5,3
  801404:	8885883a 	add	r2,r17,r2
  801408:	d8800115 	stw	r2,4(sp)
  80140c:	d0a77317 	ldw	r2,-25140(gp)
  801410:	89cf883a 	add	r7,r17,r7
  801414:	b80d883a 	mov	r6,r23
  801418:	10c00c17 	ldw	r3,48(r2)
			  }
			  receiveMessage = altera_avalon_mailbox_pend(recv_dev);
		  }*/
		  counter = receiveMessage;
		  for(int i = 0; i< 10; i++){
			  for(int b = 0; b < hYb_size*wYb_size; b++){
  80141c:	94800044 	addi	r18,r18,1
				  idct(((dct_block_t*)(YDCAC[0]))[b], ((color_block_t*)(Yblock[0]))[b]);
				  idct(((dct_block_t*)(CbDCAC[0]))[b], ((color_block_t*)(Cbblock[0]))[b]);
				  idct(((dct_block_t*)(CrDCAC[0]))[b], ((color_block_t*)(Crblock[0]))[b]);
				  ycbcr_to_rgb(b/wCb_size*8, b%wCb_size*8, w_size, ((color_block_t*)(Yblock[0]))[b], ((color_block_t*)(Cbblock[0]))[b], ((color_block_t*)(Crblock[0]))[b], (rgb_pixel_t*)(pixel_buf_dev->back_buffer_start_address));
  801420:	d8c00215 	stw	r3,8(sp)
  801424:	0800f840 	call	800f84 <ycbcr_to_rgb>
  801428:	003fc006 	br	80132c <main+0x1a8>

0080142c <exit>:
  80142c:	defffe04 	addi	sp,sp,-8
  801430:	000b883a 	mov	r5,zero
  801434:	dc000015 	stw	r16,0(sp)
  801438:	dfc00115 	stw	ra,4(sp)
  80143c:	2021883a 	mov	r16,r4
  801440:	08035680 	call	803568 <__call_exitprocs>
  801444:	00802074 	movhi	r2,129
  801448:	10871004 	addi	r2,r2,7232
  80144c:	11000017 	ldw	r4,0(r2)
  801450:	20800f17 	ldw	r2,60(r4)
  801454:	10000126 	beq	r2,zero,80145c <exit+0x30>
  801458:	103ee83a 	callr	r2
  80145c:	8009883a 	mov	r4,r16
  801460:	080b2100 	call	80b210 <_exit>

00801464 <printf>:
  801464:	defffb04 	addi	sp,sp,-20
  801468:	dfc00115 	stw	ra,4(sp)
  80146c:	d9400215 	stw	r5,8(sp)
  801470:	d9800315 	stw	r6,12(sp)
  801474:	d9c00415 	stw	r7,16(sp)
  801478:	00802074 	movhi	r2,129
  80147c:	10870f04 	addi	r2,r2,7228
  801480:	10c00017 	ldw	r3,0(r2)
  801484:	200b883a 	mov	r5,r4
  801488:	d8800204 	addi	r2,sp,8
  80148c:	19000217 	ldw	r4,8(r3)
  801490:	100d883a 	mov	r6,r2
  801494:	d8800015 	stw	r2,0(sp)
  801498:	08034040 	call	803404 <__vfprintf_internal>
  80149c:	dfc00117 	ldw	ra,4(sp)
  8014a0:	dec00504 	addi	sp,sp,20
  8014a4:	f800283a 	ret

008014a8 <_printf_r>:
  8014a8:	defffc04 	addi	sp,sp,-16
  8014ac:	dfc00115 	stw	ra,4(sp)
  8014b0:	d9800215 	stw	r6,8(sp)
  8014b4:	d9c00315 	stw	r7,12(sp)
  8014b8:	280d883a 	mov	r6,r5
  8014bc:	21400217 	ldw	r5,8(r4)
  8014c0:	d8c00204 	addi	r3,sp,8
  8014c4:	180f883a 	mov	r7,r3
  8014c8:	d8c00015 	stw	r3,0(sp)
  8014cc:	08015580 	call	801558 <___vfprintf_internal_r>
  8014d0:	dfc00117 	ldw	ra,4(sp)
  8014d4:	dec00404 	addi	sp,sp,16
  8014d8:	f800283a 	ret

008014dc <putchar>:
  8014dc:	00802074 	movhi	r2,129
  8014e0:	10870f04 	addi	r2,r2,7228
  8014e4:	11800017 	ldw	r6,0(r2)
  8014e8:	200b883a 	mov	r5,r4
  8014ec:	3009883a 	mov	r4,r6
  8014f0:	31800217 	ldw	r6,8(r6)
  8014f4:	0807bbc1 	jmpi	807bbc <_putc_r>

008014f8 <_putchar_r>:
  8014f8:	21800217 	ldw	r6,8(r4)
  8014fc:	0807bbc1 	jmpi	807bbc <_putc_r>

00801500 <__sprint_r>:
  801500:	30800217 	ldw	r2,8(r6)
  801504:	defffe04 	addi	sp,sp,-8
  801508:	dc000015 	stw	r16,0(sp)
  80150c:	dfc00115 	stw	ra,4(sp)
  801510:	3021883a 	mov	r16,r6
  801514:	0007883a 	mov	r3,zero
  801518:	1000061e 	bne	r2,zero,801534 <__sprint_r+0x34>
  80151c:	1805883a 	mov	r2,r3
  801520:	30000115 	stw	zero,4(r6)
  801524:	dfc00117 	ldw	ra,4(sp)
  801528:	dc000017 	ldw	r16,0(sp)
  80152c:	dec00204 	addi	sp,sp,8
  801530:	f800283a 	ret
  801534:	08058140 	call	805814 <__sfvwrite_r>
  801538:	1007883a 	mov	r3,r2
  80153c:	1805883a 	mov	r2,r3
  801540:	80000115 	stw	zero,4(r16)
  801544:	80000215 	stw	zero,8(r16)
  801548:	dfc00117 	ldw	ra,4(sp)
  80154c:	dc000017 	ldw	r16,0(sp)
  801550:	dec00204 	addi	sp,sp,8
  801554:	f800283a 	ret

00801558 <___vfprintf_internal_r>:
  801558:	defea404 	addi	sp,sp,-1392
  80155c:	dd815815 	stw	r22,1376(sp)
  801560:	dc015215 	stw	r16,1352(sp)
  801564:	d9c15115 	stw	r7,1348(sp)
  801568:	dfc15b15 	stw	ra,1388(sp)
  80156c:	df015a15 	stw	fp,1384(sp)
  801570:	ddc15915 	stw	r23,1380(sp)
  801574:	dd415715 	stw	r21,1372(sp)
  801578:	dd015615 	stw	r20,1368(sp)
  80157c:	dcc15515 	stw	r19,1364(sp)
  801580:	dc815415 	stw	r18,1360(sp)
  801584:	dc415315 	stw	r17,1356(sp)
  801588:	282d883a 	mov	r22,r5
  80158c:	3021883a 	mov	r16,r6
  801590:	d9014f15 	stw	r4,1340(sp)
  801594:	0805e380 	call	805e38 <_localeconv_r>
  801598:	10800017 	ldw	r2,0(r2)
  80159c:	d9c15117 	ldw	r7,1348(sp)
  8015a0:	d8814915 	stw	r2,1316(sp)
  8015a4:	d8814f17 	ldw	r2,1340(sp)
  8015a8:	10000226 	beq	r2,zero,8015b4 <___vfprintf_internal_r+0x5c>
  8015ac:	10800e17 	ldw	r2,56(r2)
  8015b0:	10020d26 	beq	r2,zero,801de8 <___vfprintf_internal_r+0x890>
  8015b4:	b080030b 	ldhu	r2,12(r22)
  8015b8:	1080020c 	andi	r2,r2,8
  8015bc:	10020e26 	beq	r2,zero,801df8 <___vfprintf_internal_r+0x8a0>
  8015c0:	b0800417 	ldw	r2,16(r22)
  8015c4:	10020c26 	beq	r2,zero,801df8 <___vfprintf_internal_r+0x8a0>
  8015c8:	b200030b 	ldhu	r8,12(r22)
  8015cc:	00800284 	movi	r2,10
  8015d0:	40c0068c 	andi	r3,r8,26
  8015d4:	18802f1e 	bne	r3,r2,801694 <___vfprintf_internal_r+0x13c>
  8015d8:	b080038f 	ldh	r2,14(r22)
  8015dc:	10002d16 	blt	r2,zero,801694 <___vfprintf_internal_r+0x13c>
  8015e0:	b240038b 	ldhu	r9,14(r22)
  8015e4:	b2800717 	ldw	r10,28(r22)
  8015e8:	b2c00917 	ldw	r11,36(r22)
  8015ec:	d9014f17 	ldw	r4,1340(sp)
  8015f0:	dc402904 	addi	r17,sp,164
  8015f4:	d8804004 	addi	r2,sp,256
  8015f8:	00c10004 	movi	r3,1024
  8015fc:	423fff4c 	andi	r8,r8,65533
  801600:	800d883a 	mov	r6,r16
  801604:	880b883a 	mov	r5,r17
  801608:	da002c0d 	sth	r8,176(sp)
  80160c:	da402c8d 	sth	r9,178(sp)
  801610:	da803015 	stw	r10,192(sp)
  801614:	dac03215 	stw	r11,200(sp)
  801618:	d8802d15 	stw	r2,180(sp)
  80161c:	d8c02e15 	stw	r3,184(sp)
  801620:	d8802915 	stw	r2,164(sp)
  801624:	d8c02b15 	stw	r3,172(sp)
  801628:	d8002f15 	stw	zero,188(sp)
  80162c:	08015580 	call	801558 <___vfprintf_internal_r>
  801630:	d8814b15 	stw	r2,1324(sp)
  801634:	10000416 	blt	r2,zero,801648 <___vfprintf_internal_r+0xf0>
  801638:	d9014f17 	ldw	r4,1340(sp)
  80163c:	880b883a 	mov	r5,r17
  801640:	0804ee40 	call	804ee4 <_fflush_r>
  801644:	1002321e 	bne	r2,zero,801f10 <___vfprintf_internal_r+0x9b8>
  801648:	d8802c0b 	ldhu	r2,176(sp)
  80164c:	1080100c 	andi	r2,r2,64
  801650:	10000326 	beq	r2,zero,801660 <___vfprintf_internal_r+0x108>
  801654:	b080030b 	ldhu	r2,12(r22)
  801658:	10801014 	ori	r2,r2,64
  80165c:	b080030d 	sth	r2,12(r22)
  801660:	d8814b17 	ldw	r2,1324(sp)
  801664:	dfc15b17 	ldw	ra,1388(sp)
  801668:	df015a17 	ldw	fp,1384(sp)
  80166c:	ddc15917 	ldw	r23,1380(sp)
  801670:	dd815817 	ldw	r22,1376(sp)
  801674:	dd415717 	ldw	r21,1372(sp)
  801678:	dd015617 	ldw	r20,1368(sp)
  80167c:	dcc15517 	ldw	r19,1364(sp)
  801680:	dc815417 	ldw	r18,1360(sp)
  801684:	dc415317 	ldw	r17,1356(sp)
  801688:	dc015217 	ldw	r16,1352(sp)
  80168c:	dec15c04 	addi	sp,sp,1392
  801690:	f800283a 	ret
  801694:	0005883a 	mov	r2,zero
  801698:	0007883a 	mov	r3,zero
  80169c:	dd401904 	addi	r21,sp,100
  8016a0:	d8814215 	stw	r2,1288(sp)
  8016a4:	802f883a 	mov	r23,r16
  8016a8:	d8c14315 	stw	r3,1292(sp)
  8016ac:	d8014b15 	stw	zero,1324(sp)
  8016b0:	d8014815 	stw	zero,1312(sp)
  8016b4:	d8014415 	stw	zero,1296(sp)
  8016b8:	d8014715 	stw	zero,1308(sp)
  8016bc:	dd400c15 	stw	r21,48(sp)
  8016c0:	d8000e15 	stw	zero,56(sp)
  8016c4:	d8000d15 	stw	zero,52(sp)
  8016c8:	b8800007 	ldb	r2,0(r23)
  8016cc:	10001926 	beq	r2,zero,801734 <___vfprintf_internal_r+0x1dc>
  8016d0:	00c00944 	movi	r3,37
  8016d4:	10c01726 	beq	r2,r3,801734 <___vfprintf_internal_r+0x1dc>
  8016d8:	b821883a 	mov	r16,r23
  8016dc:	00000106 	br	8016e4 <___vfprintf_internal_r+0x18c>
  8016e0:	10c00326 	beq	r2,r3,8016f0 <___vfprintf_internal_r+0x198>
  8016e4:	84000044 	addi	r16,r16,1
  8016e8:	80800007 	ldb	r2,0(r16)
  8016ec:	103ffc1e 	bne	r2,zero,8016e0 <___vfprintf_internal_r+0x188>
  8016f0:	85e7c83a 	sub	r19,r16,r23
  8016f4:	98000e26 	beq	r19,zero,801730 <___vfprintf_internal_r+0x1d8>
  8016f8:	dc800e17 	ldw	r18,56(sp)
  8016fc:	dc400d17 	ldw	r17,52(sp)
  801700:	008001c4 	movi	r2,7
  801704:	94e5883a 	add	r18,r18,r19
  801708:	8c400044 	addi	r17,r17,1
  80170c:	adc00015 	stw	r23,0(r21)
  801710:	dc800e15 	stw	r18,56(sp)
  801714:	acc00115 	stw	r19,4(r21)
  801718:	dc400d15 	stw	r17,52(sp)
  80171c:	14428b16 	blt	r2,r17,80214c <___vfprintf_internal_r+0xbf4>
  801720:	ad400204 	addi	r21,r21,8
  801724:	d9014b17 	ldw	r4,1324(sp)
  801728:	24c9883a 	add	r4,r4,r19
  80172c:	d9014b15 	stw	r4,1324(sp)
  801730:	802f883a 	mov	r23,r16
  801734:	b8800007 	ldb	r2,0(r23)
  801738:	10013c26 	beq	r2,zero,801c2c <___vfprintf_internal_r+0x6d4>
  80173c:	bdc00044 	addi	r23,r23,1
  801740:	d8000405 	stb	zero,16(sp)
  801744:	b8c00007 	ldb	r3,0(r23)
  801748:	04ffffc4 	movi	r19,-1
  80174c:	d8014c15 	stw	zero,1328(sp)
  801750:	d8014a15 	stw	zero,1320(sp)
  801754:	d8c14d15 	stw	r3,1332(sp)
  801758:	bdc00044 	addi	r23,r23,1
  80175c:	d9414d17 	ldw	r5,1332(sp)
  801760:	00801604 	movi	r2,88
  801764:	28fff804 	addi	r3,r5,-32
  801768:	10c06036 	bltu	r2,r3,8018ec <___vfprintf_internal_r+0x394>
  80176c:	18c5883a 	add	r2,r3,r3
  801770:	1085883a 	add	r2,r2,r2
  801774:	00c02034 	movhi	r3,128
  801778:	18c5e204 	addi	r3,r3,6024
  80177c:	10c5883a 	add	r2,r2,r3
  801780:	11000017 	ldw	r4,0(r2)
  801784:	2000683a 	jmp	r4
  801788:	008026fc 	xorhi	r2,zero,155
  80178c:	008018ec 	andhi	r2,zero,99
  801790:	008018ec 	andhi	r2,zero,99
  801794:	008026e8 	cmpgeui	r2,zero,155
  801798:	008018ec 	andhi	r2,zero,99
  80179c:	008018ec 	andhi	r2,zero,99
  8017a0:	008018ec 	andhi	r2,zero,99
  8017a4:	008018ec 	andhi	r2,zero,99
  8017a8:	008018ec 	andhi	r2,zero,99
  8017ac:	008018ec 	andhi	r2,zero,99
  8017b0:	008024c8 	cmpgei	r2,zero,147
  8017b4:	008026d8 	cmpnei	r2,zero,155
  8017b8:	008018ec 	andhi	r2,zero,99
  8017bc:	008024e0 	cmpeqi	r2,zero,147
  8017c0:	00802774 	movhi	r2,157
  8017c4:	008018ec 	andhi	r2,zero,99
  8017c8:	00802760 	cmpeqi	r2,zero,157
  8017cc:	00802728 	cmpgeui	r2,zero,156
  8017d0:	00802728 	cmpgeui	r2,zero,156
  8017d4:	00802728 	cmpgeui	r2,zero,156
  8017d8:	00802728 	cmpgeui	r2,zero,156
  8017dc:	00802728 	cmpgeui	r2,zero,156
  8017e0:	00802728 	cmpgeui	r2,zero,156
  8017e4:	00802728 	cmpgeui	r2,zero,156
  8017e8:	00802728 	cmpgeui	r2,zero,156
  8017ec:	00802728 	cmpgeui	r2,zero,156
  8017f0:	008018ec 	andhi	r2,zero,99
  8017f4:	008018ec 	andhi	r2,zero,99
  8017f8:	008018ec 	andhi	r2,zero,99
  8017fc:	008018ec 	andhi	r2,zero,99
  801800:	008018ec 	andhi	r2,zero,99
  801804:	008018ec 	andhi	r2,zero,99
  801808:	008018ec 	andhi	r2,zero,99
  80180c:	008018ec 	andhi	r2,zero,99
  801810:	008018ec 	andhi	r2,zero,99
  801814:	008018ec 	andhi	r2,zero,99
  801818:	00801f44 	movi	r2,125
  80181c:	008025b0 	cmpltui	r2,zero,150
  801820:	008018ec 	andhi	r2,zero,99
  801824:	008025b0 	cmpltui	r2,zero,150
  801828:	008018ec 	andhi	r2,zero,99
  80182c:	008018ec 	andhi	r2,zero,99
  801830:	008018ec 	andhi	r2,zero,99
  801834:	008018ec 	andhi	r2,zero,99
  801838:	00802714 	movui	r2,156
  80183c:	008018ec 	andhi	r2,zero,99
  801840:	008018ec 	andhi	r2,zero,99
  801844:	00801ff8 	rdprs	r2,zero,127
  801848:	008018ec 	andhi	r2,zero,99
  80184c:	008018ec 	andhi	r2,zero,99
  801850:	008018ec 	andhi	r2,zero,99
  801854:	008018ec 	andhi	r2,zero,99
  801858:	008018ec 	andhi	r2,zero,99
  80185c:	00802044 	movi	r2,129
  801860:	008018ec 	andhi	r2,zero,99
  801864:	008018ec 	andhi	r2,zero,99
  801868:	00802664 	muli	r2,zero,153
  80186c:	008018ec 	andhi	r2,zero,99
  801870:	008018ec 	andhi	r2,zero,99
  801874:	008018ec 	andhi	r2,zero,99
  801878:	008018ec 	andhi	r2,zero,99
  80187c:	008018ec 	andhi	r2,zero,99
  801880:	008018ec 	andhi	r2,zero,99
  801884:	008018ec 	andhi	r2,zero,99
  801888:	008018ec 	andhi	r2,zero,99
  80188c:	008018ec 	andhi	r2,zero,99
  801890:	008018ec 	andhi	r2,zero,99
  801894:	00802638 	rdprs	r2,zero,152
  801898:	00801f50 	cmplti	r2,zero,125
  80189c:	008025b0 	cmpltui	r2,zero,150
  8018a0:	008025b0 	cmpltui	r2,zero,150
  8018a4:	008025b0 	cmpltui	r2,zero,150
  8018a8:	0080259c 	xori	r2,zero,150
  8018ac:	00801f50 	cmplti	r2,zero,125
  8018b0:	008018ec 	andhi	r2,zero,99
  8018b4:	008018ec 	andhi	r2,zero,99
  8018b8:	00802524 	muli	r2,zero,148
  8018bc:	008018ec 	andhi	r2,zero,99
  8018c0:	008024f4 	movhi	r2,147
  8018c4:	00802004 	movi	r2,128
  8018c8:	00802554 	movui	r2,149
  8018cc:	00802540 	call	80254 <__alt_mem_sdram_0-0x77fdac>
  8018d0:	008018ec 	andhi	r2,zero,99
  8018d4:	008027d0 	cmplti	r2,zero,159
  8018d8:	008018ec 	andhi	r2,zero,99
  8018dc:	00802050 	cmplti	r2,zero,129
  8018e0:	008018ec 	andhi	r2,zero,99
  8018e4:	008018ec 	andhi	r2,zero,99
  8018e8:	008026c8 	cmpgei	r2,zero,155
  8018ec:	d9014d17 	ldw	r4,1332(sp)
  8018f0:	2000ce26 	beq	r4,zero,801c2c <___vfprintf_internal_r+0x6d4>
  8018f4:	01400044 	movi	r5,1
  8018f8:	d9800f04 	addi	r6,sp,60
  8018fc:	d9c14015 	stw	r7,1280(sp)
  801900:	d9414515 	stw	r5,1300(sp)
  801904:	d9814115 	stw	r6,1284(sp)
  801908:	280f883a 	mov	r7,r5
  80190c:	d9000f05 	stb	r4,60(sp)
  801910:	d8000405 	stb	zero,16(sp)
  801914:	d8014615 	stw	zero,1304(sp)
  801918:	d8c14c17 	ldw	r3,1328(sp)
  80191c:	1880008c 	andi	r2,r3,2
  801920:	1005003a 	cmpeq	r2,r2,zero
  801924:	d8815015 	stw	r2,1344(sp)
  801928:	1000031e 	bne	r2,zero,801938 <___vfprintf_internal_r+0x3e0>
  80192c:	d9014517 	ldw	r4,1300(sp)
  801930:	21000084 	addi	r4,r4,2
  801934:	d9014515 	stw	r4,1300(sp)
  801938:	d9414c17 	ldw	r5,1328(sp)
  80193c:	2940210c 	andi	r5,r5,132
  801940:	d9414e15 	stw	r5,1336(sp)
  801944:	28002d1e 	bne	r5,zero,8019fc <___vfprintf_internal_r+0x4a4>
  801948:	d9814a17 	ldw	r6,1320(sp)
  80194c:	d8814517 	ldw	r2,1300(sp)
  801950:	30a1c83a 	sub	r16,r6,r2
  801954:	0400290e 	bge	zero,r16,8019fc <___vfprintf_internal_r+0x4a4>
  801958:	00800404 	movi	r2,16
  80195c:	1404580e 	bge	r2,r16,802ac0 <___vfprintf_internal_r+0x1568>
  801960:	dc800e17 	ldw	r18,56(sp)
  801964:	dc400d17 	ldw	r17,52(sp)
  801968:	1027883a 	mov	r19,r2
  80196c:	07002074 	movhi	fp,129
  801970:	e73ee384 	addi	fp,fp,-1138
  801974:	050001c4 	movi	r20,7
  801978:	00000306 	br	801988 <___vfprintf_internal_r+0x430>
  80197c:	843ffc04 	addi	r16,r16,-16
  801980:	ad400204 	addi	r21,r21,8
  801984:	9c00130e 	bge	r19,r16,8019d4 <___vfprintf_internal_r+0x47c>
  801988:	94800404 	addi	r18,r18,16
  80198c:	8c400044 	addi	r17,r17,1
  801990:	af000015 	stw	fp,0(r21)
  801994:	acc00115 	stw	r19,4(r21)
  801998:	dc800e15 	stw	r18,56(sp)
  80199c:	dc400d15 	stw	r17,52(sp)
  8019a0:	a47ff60e 	bge	r20,r17,80197c <___vfprintf_internal_r+0x424>
  8019a4:	d9014f17 	ldw	r4,1340(sp)
  8019a8:	b00b883a 	mov	r5,r22
  8019ac:	d9800c04 	addi	r6,sp,48
  8019b0:	d9c15115 	stw	r7,1348(sp)
  8019b4:	08015000 	call	801500 <__sprint_r>
  8019b8:	d9c15117 	ldw	r7,1348(sp)
  8019bc:	10009e1e 	bne	r2,zero,801c38 <___vfprintf_internal_r+0x6e0>
  8019c0:	843ffc04 	addi	r16,r16,-16
  8019c4:	dc800e17 	ldw	r18,56(sp)
  8019c8:	dc400d17 	ldw	r17,52(sp)
  8019cc:	dd401904 	addi	r21,sp,100
  8019d0:	9c3fed16 	blt	r19,r16,801988 <___vfprintf_internal_r+0x430>
  8019d4:	9425883a 	add	r18,r18,r16
  8019d8:	8c400044 	addi	r17,r17,1
  8019dc:	008001c4 	movi	r2,7
  8019e0:	af000015 	stw	fp,0(r21)
  8019e4:	ac000115 	stw	r16,4(r21)
  8019e8:	dc800e15 	stw	r18,56(sp)
  8019ec:	dc400d15 	stw	r17,52(sp)
  8019f0:	1441f516 	blt	r2,r17,8021c8 <___vfprintf_internal_r+0xc70>
  8019f4:	ad400204 	addi	r21,r21,8
  8019f8:	00000206 	br	801a04 <___vfprintf_internal_r+0x4ac>
  8019fc:	dc800e17 	ldw	r18,56(sp)
  801a00:	dc400d17 	ldw	r17,52(sp)
  801a04:	d8800407 	ldb	r2,16(sp)
  801a08:	10000b26 	beq	r2,zero,801a38 <___vfprintf_internal_r+0x4e0>
  801a0c:	00800044 	movi	r2,1
  801a10:	94800044 	addi	r18,r18,1
  801a14:	8c400044 	addi	r17,r17,1
  801a18:	a8800115 	stw	r2,4(r21)
  801a1c:	d8c00404 	addi	r3,sp,16
  801a20:	008001c4 	movi	r2,7
  801a24:	a8c00015 	stw	r3,0(r21)
  801a28:	dc800e15 	stw	r18,56(sp)
  801a2c:	dc400d15 	stw	r17,52(sp)
  801a30:	1441da16 	blt	r2,r17,80219c <___vfprintf_internal_r+0xc44>
  801a34:	ad400204 	addi	r21,r21,8
  801a38:	d9015017 	ldw	r4,1344(sp)
  801a3c:	20000b1e 	bne	r4,zero,801a6c <___vfprintf_internal_r+0x514>
  801a40:	d8800444 	addi	r2,sp,17
  801a44:	94800084 	addi	r18,r18,2
  801a48:	8c400044 	addi	r17,r17,1
  801a4c:	a8800015 	stw	r2,0(r21)
  801a50:	00c00084 	movi	r3,2
  801a54:	008001c4 	movi	r2,7
  801a58:	a8c00115 	stw	r3,4(r21)
  801a5c:	dc800e15 	stw	r18,56(sp)
  801a60:	dc400d15 	stw	r17,52(sp)
  801a64:	1441c216 	blt	r2,r17,802170 <___vfprintf_internal_r+0xc18>
  801a68:	ad400204 	addi	r21,r21,8
  801a6c:	d9414e17 	ldw	r5,1336(sp)
  801a70:	00802004 	movi	r2,128
  801a74:	2880b126 	beq	r5,r2,801d3c <___vfprintf_internal_r+0x7e4>
  801a78:	d8c14617 	ldw	r3,1304(sp)
  801a7c:	19e1c83a 	sub	r16,r3,r7
  801a80:	0400260e 	bge	zero,r16,801b1c <___vfprintf_internal_r+0x5c4>
  801a84:	00800404 	movi	r2,16
  801a88:	1403c90e 	bge	r2,r16,8029b0 <___vfprintf_internal_r+0x1458>
  801a8c:	1027883a 	mov	r19,r2
  801a90:	07002074 	movhi	fp,129
  801a94:	e73edf84 	addi	fp,fp,-1154
  801a98:	050001c4 	movi	r20,7
  801a9c:	00000306 	br	801aac <___vfprintf_internal_r+0x554>
  801aa0:	843ffc04 	addi	r16,r16,-16
  801aa4:	ad400204 	addi	r21,r21,8
  801aa8:	9c00130e 	bge	r19,r16,801af8 <___vfprintf_internal_r+0x5a0>
  801aac:	94800404 	addi	r18,r18,16
  801ab0:	8c400044 	addi	r17,r17,1
  801ab4:	af000015 	stw	fp,0(r21)
  801ab8:	acc00115 	stw	r19,4(r21)
  801abc:	dc800e15 	stw	r18,56(sp)
  801ac0:	dc400d15 	stw	r17,52(sp)
  801ac4:	a47ff60e 	bge	r20,r17,801aa0 <___vfprintf_internal_r+0x548>
  801ac8:	d9014f17 	ldw	r4,1340(sp)
  801acc:	b00b883a 	mov	r5,r22
  801ad0:	d9800c04 	addi	r6,sp,48
  801ad4:	d9c15115 	stw	r7,1348(sp)
  801ad8:	08015000 	call	801500 <__sprint_r>
  801adc:	d9c15117 	ldw	r7,1348(sp)
  801ae0:	1000551e 	bne	r2,zero,801c38 <___vfprintf_internal_r+0x6e0>
  801ae4:	843ffc04 	addi	r16,r16,-16
  801ae8:	dc800e17 	ldw	r18,56(sp)
  801aec:	dc400d17 	ldw	r17,52(sp)
  801af0:	dd401904 	addi	r21,sp,100
  801af4:	9c3fed16 	blt	r19,r16,801aac <___vfprintf_internal_r+0x554>
  801af8:	9425883a 	add	r18,r18,r16
  801afc:	8c400044 	addi	r17,r17,1
  801b00:	008001c4 	movi	r2,7
  801b04:	af000015 	stw	fp,0(r21)
  801b08:	ac000115 	stw	r16,4(r21)
  801b0c:	dc800e15 	stw	r18,56(sp)
  801b10:	dc400d15 	stw	r17,52(sp)
  801b14:	14418216 	blt	r2,r17,802120 <___vfprintf_internal_r+0xbc8>
  801b18:	ad400204 	addi	r21,r21,8
  801b1c:	d9014c17 	ldw	r4,1328(sp)
  801b20:	2080400c 	andi	r2,r4,256
  801b24:	10004a1e 	bne	r2,zero,801c50 <___vfprintf_internal_r+0x6f8>
  801b28:	d9414117 	ldw	r5,1284(sp)
  801b2c:	91e5883a 	add	r18,r18,r7
  801b30:	8c400044 	addi	r17,r17,1
  801b34:	008001c4 	movi	r2,7
  801b38:	a9400015 	stw	r5,0(r21)
  801b3c:	a9c00115 	stw	r7,4(r21)
  801b40:	dc800e15 	stw	r18,56(sp)
  801b44:	dc400d15 	stw	r17,52(sp)
  801b48:	14416716 	blt	r2,r17,8020e8 <___vfprintf_internal_r+0xb90>
  801b4c:	a8c00204 	addi	r3,r21,8
  801b50:	d9814c17 	ldw	r6,1328(sp)
  801b54:	3080010c 	andi	r2,r6,4
  801b58:	10002826 	beq	r2,zero,801bfc <___vfprintf_internal_r+0x6a4>
  801b5c:	d8814a17 	ldw	r2,1320(sp)
  801b60:	d9014517 	ldw	r4,1300(sp)
  801b64:	1121c83a 	sub	r16,r2,r4
  801b68:	0400240e 	bge	zero,r16,801bfc <___vfprintf_internal_r+0x6a4>
  801b6c:	00800404 	movi	r2,16
  801b70:	14044f0e 	bge	r2,r16,802cb0 <___vfprintf_internal_r+0x1758>
  801b74:	dc400d17 	ldw	r17,52(sp)
  801b78:	1027883a 	mov	r19,r2
  801b7c:	07002074 	movhi	fp,129
  801b80:	e73ee384 	addi	fp,fp,-1138
  801b84:	050001c4 	movi	r20,7
  801b88:	00000306 	br	801b98 <___vfprintf_internal_r+0x640>
  801b8c:	843ffc04 	addi	r16,r16,-16
  801b90:	18c00204 	addi	r3,r3,8
  801b94:	9c00110e 	bge	r19,r16,801bdc <___vfprintf_internal_r+0x684>
  801b98:	94800404 	addi	r18,r18,16
  801b9c:	8c400044 	addi	r17,r17,1
  801ba0:	1f000015 	stw	fp,0(r3)
  801ba4:	1cc00115 	stw	r19,4(r3)
  801ba8:	dc800e15 	stw	r18,56(sp)
  801bac:	dc400d15 	stw	r17,52(sp)
  801bb0:	a47ff60e 	bge	r20,r17,801b8c <___vfprintf_internal_r+0x634>
  801bb4:	d9014f17 	ldw	r4,1340(sp)
  801bb8:	b00b883a 	mov	r5,r22
  801bbc:	d9800c04 	addi	r6,sp,48
  801bc0:	08015000 	call	801500 <__sprint_r>
  801bc4:	10001c1e 	bne	r2,zero,801c38 <___vfprintf_internal_r+0x6e0>
  801bc8:	843ffc04 	addi	r16,r16,-16
  801bcc:	dc800e17 	ldw	r18,56(sp)
  801bd0:	dc400d17 	ldw	r17,52(sp)
  801bd4:	d8c01904 	addi	r3,sp,100
  801bd8:	9c3fef16 	blt	r19,r16,801b98 <___vfprintf_internal_r+0x640>
  801bdc:	9425883a 	add	r18,r18,r16
  801be0:	8c400044 	addi	r17,r17,1
  801be4:	008001c4 	movi	r2,7
  801be8:	1f000015 	stw	fp,0(r3)
  801bec:	1c000115 	stw	r16,4(r3)
  801bf0:	dc800e15 	stw	r18,56(sp)
  801bf4:	dc400d15 	stw	r17,52(sp)
  801bf8:	1440cb16 	blt	r2,r17,801f28 <___vfprintf_internal_r+0x9d0>
  801bfc:	d8814a17 	ldw	r2,1320(sp)
  801c00:	d9414517 	ldw	r5,1300(sp)
  801c04:	1140010e 	bge	r2,r5,801c0c <___vfprintf_internal_r+0x6b4>
  801c08:	2805883a 	mov	r2,r5
  801c0c:	d9814b17 	ldw	r6,1324(sp)
  801c10:	308d883a 	add	r6,r6,r2
  801c14:	d9814b15 	stw	r6,1324(sp)
  801c18:	90013b1e 	bne	r18,zero,802108 <___vfprintf_internal_r+0xbb0>
  801c1c:	d9c14017 	ldw	r7,1280(sp)
  801c20:	dd401904 	addi	r21,sp,100
  801c24:	d8000d15 	stw	zero,52(sp)
  801c28:	003ea706 	br	8016c8 <___vfprintf_internal_r+0x170>
  801c2c:	d8800e17 	ldw	r2,56(sp)
  801c30:	10053f1e 	bne	r2,zero,803130 <___vfprintf_internal_r+0x1bd8>
  801c34:	d8000d15 	stw	zero,52(sp)
  801c38:	b080030b 	ldhu	r2,12(r22)
  801c3c:	1080100c 	andi	r2,r2,64
  801c40:	103e8726 	beq	r2,zero,801660 <___vfprintf_internal_r+0x108>
  801c44:	00bfffc4 	movi	r2,-1
  801c48:	d8814b15 	stw	r2,1324(sp)
  801c4c:	003e8406 	br	801660 <___vfprintf_internal_r+0x108>
  801c50:	d9814d17 	ldw	r6,1332(sp)
  801c54:	00801944 	movi	r2,101
  801c58:	11806e16 	blt	r2,r6,801e14 <___vfprintf_internal_r+0x8bc>
  801c5c:	d9414717 	ldw	r5,1308(sp)
  801c60:	00c00044 	movi	r3,1
  801c64:	1943430e 	bge	r3,r5,802974 <___vfprintf_internal_r+0x141c>
  801c68:	d8814117 	ldw	r2,1284(sp)
  801c6c:	94800044 	addi	r18,r18,1
  801c70:	8c400044 	addi	r17,r17,1
  801c74:	a8800015 	stw	r2,0(r21)
  801c78:	008001c4 	movi	r2,7
  801c7c:	a8c00115 	stw	r3,4(r21)
  801c80:	dc800e15 	stw	r18,56(sp)
  801c84:	dc400d15 	stw	r17,52(sp)
  801c88:	1441ca16 	blt	r2,r17,8023b4 <___vfprintf_internal_r+0xe5c>
  801c8c:	a8c00204 	addi	r3,r21,8
  801c90:	d9014917 	ldw	r4,1316(sp)
  801c94:	00800044 	movi	r2,1
  801c98:	94800044 	addi	r18,r18,1
  801c9c:	8c400044 	addi	r17,r17,1
  801ca0:	18800115 	stw	r2,4(r3)
  801ca4:	008001c4 	movi	r2,7
  801ca8:	19000015 	stw	r4,0(r3)
  801cac:	dc800e15 	stw	r18,56(sp)
  801cb0:	dc400d15 	stw	r17,52(sp)
  801cb4:	1441b616 	blt	r2,r17,802390 <___vfprintf_internal_r+0xe38>
  801cb8:	1cc00204 	addi	r19,r3,8
  801cbc:	d9014217 	ldw	r4,1288(sp)
  801cc0:	d9414317 	ldw	r5,1292(sp)
  801cc4:	000d883a 	mov	r6,zero
  801cc8:	000f883a 	mov	r7,zero
  801ccc:	080a3080 	call	80a308 <__nedf2>
  801cd0:	10017426 	beq	r2,zero,8022a4 <___vfprintf_internal_r+0xd4c>
  801cd4:	d9414717 	ldw	r5,1308(sp)
  801cd8:	d9814117 	ldw	r6,1284(sp)
  801cdc:	8c400044 	addi	r17,r17,1
  801ce0:	2c85883a 	add	r2,r5,r18
  801ce4:	14bfffc4 	addi	r18,r2,-1
  801ce8:	28bfffc4 	addi	r2,r5,-1
  801cec:	30c00044 	addi	r3,r6,1
  801cf0:	98800115 	stw	r2,4(r19)
  801cf4:	008001c4 	movi	r2,7
  801cf8:	98c00015 	stw	r3,0(r19)
  801cfc:	dc800e15 	stw	r18,56(sp)
  801d00:	dc400d15 	stw	r17,52(sp)
  801d04:	14418e16 	blt	r2,r17,802340 <___vfprintf_internal_r+0xde8>
  801d08:	9cc00204 	addi	r19,r19,8
  801d0c:	d9414817 	ldw	r5,1312(sp)
  801d10:	d8800804 	addi	r2,sp,32
  801d14:	8c400044 	addi	r17,r17,1
  801d18:	9165883a 	add	r18,r18,r5
  801d1c:	98800015 	stw	r2,0(r19)
  801d20:	008001c4 	movi	r2,7
  801d24:	99400115 	stw	r5,4(r19)
  801d28:	dc800e15 	stw	r18,56(sp)
  801d2c:	dc400d15 	stw	r17,52(sp)
  801d30:	1440ed16 	blt	r2,r17,8020e8 <___vfprintf_internal_r+0xb90>
  801d34:	98c00204 	addi	r3,r19,8
  801d38:	003f8506 	br	801b50 <___vfprintf_internal_r+0x5f8>
  801d3c:	d9814a17 	ldw	r6,1320(sp)
  801d40:	d8814517 	ldw	r2,1300(sp)
  801d44:	30a1c83a 	sub	r16,r6,r2
  801d48:	043f4b0e 	bge	zero,r16,801a78 <___vfprintf_internal_r+0x520>
  801d4c:	00800404 	movi	r2,16
  801d50:	1404340e 	bge	r2,r16,802e24 <___vfprintf_internal_r+0x18cc>
  801d54:	1027883a 	mov	r19,r2
  801d58:	07002074 	movhi	fp,129
  801d5c:	e73edf84 	addi	fp,fp,-1154
  801d60:	050001c4 	movi	r20,7
  801d64:	00000306 	br	801d74 <___vfprintf_internal_r+0x81c>
  801d68:	843ffc04 	addi	r16,r16,-16
  801d6c:	ad400204 	addi	r21,r21,8
  801d70:	9c00130e 	bge	r19,r16,801dc0 <___vfprintf_internal_r+0x868>
  801d74:	94800404 	addi	r18,r18,16
  801d78:	8c400044 	addi	r17,r17,1
  801d7c:	af000015 	stw	fp,0(r21)
  801d80:	acc00115 	stw	r19,4(r21)
  801d84:	dc800e15 	stw	r18,56(sp)
  801d88:	dc400d15 	stw	r17,52(sp)
  801d8c:	a47ff60e 	bge	r20,r17,801d68 <___vfprintf_internal_r+0x810>
  801d90:	d9014f17 	ldw	r4,1340(sp)
  801d94:	b00b883a 	mov	r5,r22
  801d98:	d9800c04 	addi	r6,sp,48
  801d9c:	d9c15115 	stw	r7,1348(sp)
  801da0:	08015000 	call	801500 <__sprint_r>
  801da4:	d9c15117 	ldw	r7,1348(sp)
  801da8:	103fa31e 	bne	r2,zero,801c38 <___vfprintf_internal_r+0x6e0>
  801dac:	843ffc04 	addi	r16,r16,-16
  801db0:	dc800e17 	ldw	r18,56(sp)
  801db4:	dc400d17 	ldw	r17,52(sp)
  801db8:	dd401904 	addi	r21,sp,100
  801dbc:	9c3fed16 	blt	r19,r16,801d74 <___vfprintf_internal_r+0x81c>
  801dc0:	9425883a 	add	r18,r18,r16
  801dc4:	8c400044 	addi	r17,r17,1
  801dc8:	008001c4 	movi	r2,7
  801dcc:	af000015 	stw	fp,0(r21)
  801dd0:	ac000115 	stw	r16,4(r21)
  801dd4:	dc800e15 	stw	r18,56(sp)
  801dd8:	dc400d15 	stw	r17,52(sp)
  801ddc:	14416116 	blt	r2,r17,802364 <___vfprintf_internal_r+0xe0c>
  801de0:	ad400204 	addi	r21,r21,8
  801de4:	003f2406 	br	801a78 <___vfprintf_internal_r+0x520>
  801de8:	d9014f17 	ldw	r4,1340(sp)
  801dec:	080517c0 	call	80517c <__sinit>
  801df0:	d9c15117 	ldw	r7,1348(sp)
  801df4:	003def06 	br	8015b4 <___vfprintf_internal_r+0x5c>
  801df8:	d9014f17 	ldw	r4,1340(sp)
  801dfc:	b00b883a 	mov	r5,r22
  801e00:	d9c15115 	stw	r7,1348(sp)
  801e04:	08034280 	call	803428 <__swsetup_r>
  801e08:	d9c15117 	ldw	r7,1348(sp)
  801e0c:	103dee26 	beq	r2,zero,8015c8 <___vfprintf_internal_r+0x70>
  801e10:	003f8c06 	br	801c44 <___vfprintf_internal_r+0x6ec>
  801e14:	d9014217 	ldw	r4,1288(sp)
  801e18:	d9414317 	ldw	r5,1292(sp)
  801e1c:	000d883a 	mov	r6,zero
  801e20:	000f883a 	mov	r7,zero
  801e24:	080a2800 	call	80a280 <__eqdf2>
  801e28:	1000f21e 	bne	r2,zero,8021f4 <___vfprintf_internal_r+0xc9c>
  801e2c:	00802074 	movhi	r2,129
  801e30:	10beb804 	addi	r2,r2,-1312
  801e34:	94800044 	addi	r18,r18,1
  801e38:	8c400044 	addi	r17,r17,1
  801e3c:	a8800015 	stw	r2,0(r21)
  801e40:	00c00044 	movi	r3,1
  801e44:	008001c4 	movi	r2,7
  801e48:	a8c00115 	stw	r3,4(r21)
  801e4c:	dc800e15 	stw	r18,56(sp)
  801e50:	dc400d15 	stw	r17,52(sp)
  801e54:	1442fa16 	blt	r2,r17,802a40 <___vfprintf_internal_r+0x14e8>
  801e58:	a8c00204 	addi	r3,r21,8
  801e5c:	d8800517 	ldw	r2,20(sp)
  801e60:	d9014717 	ldw	r4,1308(sp)
  801e64:	11015c0e 	bge	r2,r4,8023d8 <___vfprintf_internal_r+0xe80>
  801e68:	dc400d17 	ldw	r17,52(sp)
  801e6c:	d9814917 	ldw	r6,1316(sp)
  801e70:	00800044 	movi	r2,1
  801e74:	94800044 	addi	r18,r18,1
  801e78:	8c400044 	addi	r17,r17,1
  801e7c:	18800115 	stw	r2,4(r3)
  801e80:	008001c4 	movi	r2,7
  801e84:	19800015 	stw	r6,0(r3)
  801e88:	dc800e15 	stw	r18,56(sp)
  801e8c:	dc400d15 	stw	r17,52(sp)
  801e90:	14431016 	blt	r2,r17,802ad4 <___vfprintf_internal_r+0x157c>
  801e94:	18c00204 	addi	r3,r3,8
  801e98:	d8814717 	ldw	r2,1308(sp)
  801e9c:	143fffc4 	addi	r16,r2,-1
  801ea0:	043f2b0e 	bge	zero,r16,801b50 <___vfprintf_internal_r+0x5f8>
  801ea4:	00800404 	movi	r2,16
  801ea8:	1402a20e 	bge	r2,r16,802934 <___vfprintf_internal_r+0x13dc>
  801eac:	dc400d17 	ldw	r17,52(sp)
  801eb0:	1027883a 	mov	r19,r2
  801eb4:	07002074 	movhi	fp,129
  801eb8:	e73edf84 	addi	fp,fp,-1154
  801ebc:	050001c4 	movi	r20,7
  801ec0:	00000306 	br	801ed0 <___vfprintf_internal_r+0x978>
  801ec4:	18c00204 	addi	r3,r3,8
  801ec8:	843ffc04 	addi	r16,r16,-16
  801ecc:	9c029c0e 	bge	r19,r16,802940 <___vfprintf_internal_r+0x13e8>
  801ed0:	94800404 	addi	r18,r18,16
  801ed4:	8c400044 	addi	r17,r17,1
  801ed8:	1f000015 	stw	fp,0(r3)
  801edc:	1cc00115 	stw	r19,4(r3)
  801ee0:	dc800e15 	stw	r18,56(sp)
  801ee4:	dc400d15 	stw	r17,52(sp)
  801ee8:	a47ff60e 	bge	r20,r17,801ec4 <___vfprintf_internal_r+0x96c>
  801eec:	d9014f17 	ldw	r4,1340(sp)
  801ef0:	b00b883a 	mov	r5,r22
  801ef4:	d9800c04 	addi	r6,sp,48
  801ef8:	08015000 	call	801500 <__sprint_r>
  801efc:	103f4e1e 	bne	r2,zero,801c38 <___vfprintf_internal_r+0x6e0>
  801f00:	dc800e17 	ldw	r18,56(sp)
  801f04:	dc400d17 	ldw	r17,52(sp)
  801f08:	d8c01904 	addi	r3,sp,100
  801f0c:	003fee06 	br	801ec8 <___vfprintf_internal_r+0x970>
  801f10:	d8802c0b 	ldhu	r2,176(sp)
  801f14:	00ffffc4 	movi	r3,-1
  801f18:	d8c14b15 	stw	r3,1324(sp)
  801f1c:	1080100c 	andi	r2,r2,64
  801f20:	103dcc1e 	bne	r2,zero,801654 <___vfprintf_internal_r+0xfc>
  801f24:	003dce06 	br	801660 <___vfprintf_internal_r+0x108>
  801f28:	d9014f17 	ldw	r4,1340(sp)
  801f2c:	b00b883a 	mov	r5,r22
  801f30:	d9800c04 	addi	r6,sp,48
  801f34:	08015000 	call	801500 <__sprint_r>
  801f38:	103f3f1e 	bne	r2,zero,801c38 <___vfprintf_internal_r+0x6e0>
  801f3c:	dc800e17 	ldw	r18,56(sp)
  801f40:	003f2e06 	br	801bfc <___vfprintf_internal_r+0x6a4>
  801f44:	d9414c17 	ldw	r5,1328(sp)
  801f48:	29400414 	ori	r5,r5,16
  801f4c:	d9414c15 	stw	r5,1328(sp)
  801f50:	d9814c17 	ldw	r6,1328(sp)
  801f54:	3080080c 	andi	r2,r6,32
  801f58:	10014f1e 	bne	r2,zero,802498 <___vfprintf_internal_r+0xf40>
  801f5c:	d8c14c17 	ldw	r3,1328(sp)
  801f60:	1880040c 	andi	r2,r3,16
  801f64:	1002ea1e 	bne	r2,zero,802b10 <___vfprintf_internal_r+0x15b8>
  801f68:	d9014c17 	ldw	r4,1328(sp)
  801f6c:	2080100c 	andi	r2,r4,64
  801f70:	1002e726 	beq	r2,zero,802b10 <___vfprintf_internal_r+0x15b8>
  801f74:	3880000f 	ldh	r2,0(r7)
  801f78:	39c00104 	addi	r7,r7,4
  801f7c:	d9c14015 	stw	r7,1280(sp)
  801f80:	1023d7fa 	srai	r17,r2,31
  801f84:	1021883a 	mov	r16,r2
  801f88:	88037216 	blt	r17,zero,802d54 <___vfprintf_internal_r+0x17fc>
  801f8c:	01000044 	movi	r4,1
  801f90:	98000416 	blt	r19,zero,801fa4 <___vfprintf_internal_r+0xa4c>
  801f94:	d8c14c17 	ldw	r3,1328(sp)
  801f98:	00bfdfc4 	movi	r2,-129
  801f9c:	1886703a 	and	r3,r3,r2
  801fa0:	d8c14c15 	stw	r3,1328(sp)
  801fa4:	8444b03a 	or	r2,r16,r17
  801fa8:	1002261e 	bne	r2,zero,802844 <___vfprintf_internal_r+0x12ec>
  801fac:	9802251e 	bne	r19,zero,802844 <___vfprintf_internal_r+0x12ec>
  801fb0:	20803fcc 	andi	r2,r4,255
  801fb4:	10029b26 	beq	r2,zero,802a24 <___vfprintf_internal_r+0x14cc>
  801fb8:	d8c01904 	addi	r3,sp,100
  801fbc:	dd000f04 	addi	r20,sp,60
  801fc0:	d8c14115 	stw	r3,1284(sp)
  801fc4:	d8c14117 	ldw	r3,1284(sp)
  801fc8:	dcc14515 	stw	r19,1300(sp)
  801fcc:	a0c5c83a 	sub	r2,r20,r3
  801fd0:	11c00a04 	addi	r7,r2,40
  801fd4:	99c0010e 	bge	r19,r7,801fdc <___vfprintf_internal_r+0xa84>
  801fd8:	d9c14515 	stw	r7,1300(sp)
  801fdc:	dcc14615 	stw	r19,1304(sp)
  801fe0:	d8800407 	ldb	r2,16(sp)
  801fe4:	103e4c26 	beq	r2,zero,801918 <___vfprintf_internal_r+0x3c0>
  801fe8:	d8814517 	ldw	r2,1300(sp)
  801fec:	10800044 	addi	r2,r2,1
  801ff0:	d8814515 	stw	r2,1300(sp)
  801ff4:	003e4806 	br	801918 <___vfprintf_internal_r+0x3c0>
  801ff8:	d9814c17 	ldw	r6,1328(sp)
  801ffc:	31800414 	ori	r6,r6,16
  802000:	d9814c15 	stw	r6,1328(sp)
  802004:	d8c14c17 	ldw	r3,1328(sp)
  802008:	1880080c 	andi	r2,r3,32
  80200c:	1001271e 	bne	r2,zero,8024ac <___vfprintf_internal_r+0xf54>
  802010:	d9414c17 	ldw	r5,1328(sp)
  802014:	2880040c 	andi	r2,r5,16
  802018:	1002b61e 	bne	r2,zero,802af4 <___vfprintf_internal_r+0x159c>
  80201c:	d9814c17 	ldw	r6,1328(sp)
  802020:	3080100c 	andi	r2,r6,64
  802024:	1002b326 	beq	r2,zero,802af4 <___vfprintf_internal_r+0x159c>
  802028:	3c00000b 	ldhu	r16,0(r7)
  80202c:	0009883a 	mov	r4,zero
  802030:	39c00104 	addi	r7,r7,4
  802034:	0023883a 	mov	r17,zero
  802038:	d9c14015 	stw	r7,1280(sp)
  80203c:	d8000405 	stb	zero,16(sp)
  802040:	003fd306 	br	801f90 <___vfprintf_internal_r+0xa38>
  802044:	d9014c17 	ldw	r4,1328(sp)
  802048:	21000414 	ori	r4,r4,16
  80204c:	d9014c15 	stw	r4,1328(sp)
  802050:	d9414c17 	ldw	r5,1328(sp)
  802054:	2880080c 	andi	r2,r5,32
  802058:	1001081e 	bne	r2,zero,80247c <___vfprintf_internal_r+0xf24>
  80205c:	d8c14c17 	ldw	r3,1328(sp)
  802060:	1880040c 	andi	r2,r3,16
  802064:	1002b01e 	bne	r2,zero,802b28 <___vfprintf_internal_r+0x15d0>
  802068:	d9014c17 	ldw	r4,1328(sp)
  80206c:	2080100c 	andi	r2,r4,64
  802070:	1002ad26 	beq	r2,zero,802b28 <___vfprintf_internal_r+0x15d0>
  802074:	3c00000b 	ldhu	r16,0(r7)
  802078:	01000044 	movi	r4,1
  80207c:	39c00104 	addi	r7,r7,4
  802080:	0023883a 	mov	r17,zero
  802084:	d9c14015 	stw	r7,1280(sp)
  802088:	d8000405 	stb	zero,16(sp)
  80208c:	003fc006 	br	801f90 <___vfprintf_internal_r+0xa38>
  802090:	d9014f17 	ldw	r4,1340(sp)
  802094:	b00b883a 	mov	r5,r22
  802098:	d9800c04 	addi	r6,sp,48
  80209c:	08015000 	call	801500 <__sprint_r>
  8020a0:	103ee51e 	bne	r2,zero,801c38 <___vfprintf_internal_r+0x6e0>
  8020a4:	dc800e17 	ldw	r18,56(sp)
  8020a8:	d8c01904 	addi	r3,sp,100
  8020ac:	d9814c17 	ldw	r6,1328(sp)
  8020b0:	3080004c 	andi	r2,r6,1
  8020b4:	1005003a 	cmpeq	r2,r2,zero
  8020b8:	103ea51e 	bne	r2,zero,801b50 <___vfprintf_internal_r+0x5f8>
  8020bc:	00800044 	movi	r2,1
  8020c0:	dc400d17 	ldw	r17,52(sp)
  8020c4:	18800115 	stw	r2,4(r3)
  8020c8:	d8814917 	ldw	r2,1316(sp)
  8020cc:	94800044 	addi	r18,r18,1
  8020d0:	8c400044 	addi	r17,r17,1
  8020d4:	18800015 	stw	r2,0(r3)
  8020d8:	008001c4 	movi	r2,7
  8020dc:	dc800e15 	stw	r18,56(sp)
  8020e0:	dc400d15 	stw	r17,52(sp)
  8020e4:	14421e0e 	bge	r2,r17,802960 <___vfprintf_internal_r+0x1408>
  8020e8:	d9014f17 	ldw	r4,1340(sp)
  8020ec:	b00b883a 	mov	r5,r22
  8020f0:	d9800c04 	addi	r6,sp,48
  8020f4:	08015000 	call	801500 <__sprint_r>
  8020f8:	103ecf1e 	bne	r2,zero,801c38 <___vfprintf_internal_r+0x6e0>
  8020fc:	dc800e17 	ldw	r18,56(sp)
  802100:	d8c01904 	addi	r3,sp,100
  802104:	003e9206 	br	801b50 <___vfprintf_internal_r+0x5f8>
  802108:	d9014f17 	ldw	r4,1340(sp)
  80210c:	b00b883a 	mov	r5,r22
  802110:	d9800c04 	addi	r6,sp,48
  802114:	08015000 	call	801500 <__sprint_r>
  802118:	103ec026 	beq	r2,zero,801c1c <___vfprintf_internal_r+0x6c4>
  80211c:	003ec606 	br	801c38 <___vfprintf_internal_r+0x6e0>
  802120:	d9014f17 	ldw	r4,1340(sp)
  802124:	b00b883a 	mov	r5,r22
  802128:	d9800c04 	addi	r6,sp,48
  80212c:	d9c15115 	stw	r7,1348(sp)
  802130:	08015000 	call	801500 <__sprint_r>
  802134:	d9c15117 	ldw	r7,1348(sp)
  802138:	103ebf1e 	bne	r2,zero,801c38 <___vfprintf_internal_r+0x6e0>
  80213c:	dc800e17 	ldw	r18,56(sp)
  802140:	dc400d17 	ldw	r17,52(sp)
  802144:	dd401904 	addi	r21,sp,100
  802148:	003e7406 	br	801b1c <___vfprintf_internal_r+0x5c4>
  80214c:	d9014f17 	ldw	r4,1340(sp)
  802150:	b00b883a 	mov	r5,r22
  802154:	d9800c04 	addi	r6,sp,48
  802158:	d9c15115 	stw	r7,1348(sp)
  80215c:	08015000 	call	801500 <__sprint_r>
  802160:	d9c15117 	ldw	r7,1348(sp)
  802164:	103eb41e 	bne	r2,zero,801c38 <___vfprintf_internal_r+0x6e0>
  802168:	dd401904 	addi	r21,sp,100
  80216c:	003d6d06 	br	801724 <___vfprintf_internal_r+0x1cc>
  802170:	d9014f17 	ldw	r4,1340(sp)
  802174:	b00b883a 	mov	r5,r22
  802178:	d9800c04 	addi	r6,sp,48
  80217c:	d9c15115 	stw	r7,1348(sp)
  802180:	08015000 	call	801500 <__sprint_r>
  802184:	d9c15117 	ldw	r7,1348(sp)
  802188:	103eab1e 	bne	r2,zero,801c38 <___vfprintf_internal_r+0x6e0>
  80218c:	dc800e17 	ldw	r18,56(sp)
  802190:	dc400d17 	ldw	r17,52(sp)
  802194:	dd401904 	addi	r21,sp,100
  802198:	003e3406 	br	801a6c <___vfprintf_internal_r+0x514>
  80219c:	d9014f17 	ldw	r4,1340(sp)
  8021a0:	b00b883a 	mov	r5,r22
  8021a4:	d9800c04 	addi	r6,sp,48
  8021a8:	d9c15115 	stw	r7,1348(sp)
  8021ac:	08015000 	call	801500 <__sprint_r>
  8021b0:	d9c15117 	ldw	r7,1348(sp)
  8021b4:	103ea01e 	bne	r2,zero,801c38 <___vfprintf_internal_r+0x6e0>
  8021b8:	dc800e17 	ldw	r18,56(sp)
  8021bc:	dc400d17 	ldw	r17,52(sp)
  8021c0:	dd401904 	addi	r21,sp,100
  8021c4:	003e1c06 	br	801a38 <___vfprintf_internal_r+0x4e0>
  8021c8:	d9014f17 	ldw	r4,1340(sp)
  8021cc:	b00b883a 	mov	r5,r22
  8021d0:	d9800c04 	addi	r6,sp,48
  8021d4:	d9c15115 	stw	r7,1348(sp)
  8021d8:	08015000 	call	801500 <__sprint_r>
  8021dc:	d9c15117 	ldw	r7,1348(sp)
  8021e0:	103e951e 	bne	r2,zero,801c38 <___vfprintf_internal_r+0x6e0>
  8021e4:	dc800e17 	ldw	r18,56(sp)
  8021e8:	dc400d17 	ldw	r17,52(sp)
  8021ec:	dd401904 	addi	r21,sp,100
  8021f0:	003e0406 	br	801a04 <___vfprintf_internal_r+0x4ac>
  8021f4:	d9000517 	ldw	r4,20(sp)
  8021f8:	0102520e 	bge	zero,r4,802b44 <___vfprintf_internal_r+0x15ec>
  8021fc:	d9814717 	ldw	r6,1308(sp)
  802200:	21807a16 	blt	r4,r6,8023ec <___vfprintf_internal_r+0xe94>
  802204:	d8814117 	ldw	r2,1284(sp)
  802208:	91a5883a 	add	r18,r18,r6
  80220c:	8c400044 	addi	r17,r17,1
  802210:	a8800015 	stw	r2,0(r21)
  802214:	008001c4 	movi	r2,7
  802218:	a9800115 	stw	r6,4(r21)
  80221c:	dc800e15 	stw	r18,56(sp)
  802220:	dc400d15 	stw	r17,52(sp)
  802224:	1442f616 	blt	r2,r17,802e00 <___vfprintf_internal_r+0x18a8>
  802228:	a8c00204 	addi	r3,r21,8
  80222c:	d9414717 	ldw	r5,1308(sp)
  802230:	2161c83a 	sub	r16,r4,r5
  802234:	043f9d0e 	bge	zero,r16,8020ac <___vfprintf_internal_r+0xb54>
  802238:	00800404 	movi	r2,16
  80223c:	1402130e 	bge	r2,r16,802a8c <___vfprintf_internal_r+0x1534>
  802240:	dc400d17 	ldw	r17,52(sp)
  802244:	1027883a 	mov	r19,r2
  802248:	07002074 	movhi	fp,129
  80224c:	e73edf84 	addi	fp,fp,-1154
  802250:	050001c4 	movi	r20,7
  802254:	00000306 	br	802264 <___vfprintf_internal_r+0xd0c>
  802258:	18c00204 	addi	r3,r3,8
  80225c:	843ffc04 	addi	r16,r16,-16
  802260:	9c020d0e 	bge	r19,r16,802a98 <___vfprintf_internal_r+0x1540>
  802264:	94800404 	addi	r18,r18,16
  802268:	8c400044 	addi	r17,r17,1
  80226c:	1f000015 	stw	fp,0(r3)
  802270:	1cc00115 	stw	r19,4(r3)
  802274:	dc800e15 	stw	r18,56(sp)
  802278:	dc400d15 	stw	r17,52(sp)
  80227c:	a47ff60e 	bge	r20,r17,802258 <___vfprintf_internal_r+0xd00>
  802280:	d9014f17 	ldw	r4,1340(sp)
  802284:	b00b883a 	mov	r5,r22
  802288:	d9800c04 	addi	r6,sp,48
  80228c:	08015000 	call	801500 <__sprint_r>
  802290:	103e691e 	bne	r2,zero,801c38 <___vfprintf_internal_r+0x6e0>
  802294:	dc800e17 	ldw	r18,56(sp)
  802298:	dc400d17 	ldw	r17,52(sp)
  80229c:	d8c01904 	addi	r3,sp,100
  8022a0:	003fee06 	br	80225c <___vfprintf_internal_r+0xd04>
  8022a4:	d8814717 	ldw	r2,1308(sp)
  8022a8:	143fffc4 	addi	r16,r2,-1
  8022ac:	043e970e 	bge	zero,r16,801d0c <___vfprintf_internal_r+0x7b4>
  8022b0:	00800404 	movi	r2,16
  8022b4:	1400180e 	bge	r2,r16,802318 <___vfprintf_internal_r+0xdc0>
  8022b8:	1029883a 	mov	r20,r2
  8022bc:	07002074 	movhi	fp,129
  8022c0:	e73edf84 	addi	fp,fp,-1154
  8022c4:	054001c4 	movi	r21,7
  8022c8:	00000306 	br	8022d8 <___vfprintf_internal_r+0xd80>
  8022cc:	9cc00204 	addi	r19,r19,8
  8022d0:	843ffc04 	addi	r16,r16,-16
  8022d4:	a400120e 	bge	r20,r16,802320 <___vfprintf_internal_r+0xdc8>
  8022d8:	94800404 	addi	r18,r18,16
  8022dc:	8c400044 	addi	r17,r17,1
  8022e0:	9f000015 	stw	fp,0(r19)
  8022e4:	9d000115 	stw	r20,4(r19)
  8022e8:	dc800e15 	stw	r18,56(sp)
  8022ec:	dc400d15 	stw	r17,52(sp)
  8022f0:	ac7ff60e 	bge	r21,r17,8022cc <___vfprintf_internal_r+0xd74>
  8022f4:	d9014f17 	ldw	r4,1340(sp)
  8022f8:	b00b883a 	mov	r5,r22
  8022fc:	d9800c04 	addi	r6,sp,48
  802300:	08015000 	call	801500 <__sprint_r>
  802304:	103e4c1e 	bne	r2,zero,801c38 <___vfprintf_internal_r+0x6e0>
  802308:	dc800e17 	ldw	r18,56(sp)
  80230c:	dc400d17 	ldw	r17,52(sp)
  802310:	dcc01904 	addi	r19,sp,100
  802314:	003fee06 	br	8022d0 <___vfprintf_internal_r+0xd78>
  802318:	07002074 	movhi	fp,129
  80231c:	e73edf84 	addi	fp,fp,-1154
  802320:	9425883a 	add	r18,r18,r16
  802324:	8c400044 	addi	r17,r17,1
  802328:	008001c4 	movi	r2,7
  80232c:	9f000015 	stw	fp,0(r19)
  802330:	9c000115 	stw	r16,4(r19)
  802334:	dc800e15 	stw	r18,56(sp)
  802338:	dc400d15 	stw	r17,52(sp)
  80233c:	147e720e 	bge	r2,r17,801d08 <___vfprintf_internal_r+0x7b0>
  802340:	d9014f17 	ldw	r4,1340(sp)
  802344:	b00b883a 	mov	r5,r22
  802348:	d9800c04 	addi	r6,sp,48
  80234c:	08015000 	call	801500 <__sprint_r>
  802350:	103e391e 	bne	r2,zero,801c38 <___vfprintf_internal_r+0x6e0>
  802354:	dc800e17 	ldw	r18,56(sp)
  802358:	dc400d17 	ldw	r17,52(sp)
  80235c:	dcc01904 	addi	r19,sp,100
  802360:	003e6a06 	br	801d0c <___vfprintf_internal_r+0x7b4>
  802364:	d9014f17 	ldw	r4,1340(sp)
  802368:	b00b883a 	mov	r5,r22
  80236c:	d9800c04 	addi	r6,sp,48
  802370:	d9c15115 	stw	r7,1348(sp)
  802374:	08015000 	call	801500 <__sprint_r>
  802378:	d9c15117 	ldw	r7,1348(sp)
  80237c:	103e2e1e 	bne	r2,zero,801c38 <___vfprintf_internal_r+0x6e0>
  802380:	dc800e17 	ldw	r18,56(sp)
  802384:	dc400d17 	ldw	r17,52(sp)
  802388:	dd401904 	addi	r21,sp,100
  80238c:	003dba06 	br	801a78 <___vfprintf_internal_r+0x520>
  802390:	d9014f17 	ldw	r4,1340(sp)
  802394:	b00b883a 	mov	r5,r22
  802398:	d9800c04 	addi	r6,sp,48
  80239c:	08015000 	call	801500 <__sprint_r>
  8023a0:	103e251e 	bne	r2,zero,801c38 <___vfprintf_internal_r+0x6e0>
  8023a4:	dc800e17 	ldw	r18,56(sp)
  8023a8:	dc400d17 	ldw	r17,52(sp)
  8023ac:	dcc01904 	addi	r19,sp,100
  8023b0:	003e4206 	br	801cbc <___vfprintf_internal_r+0x764>
  8023b4:	d9014f17 	ldw	r4,1340(sp)
  8023b8:	b00b883a 	mov	r5,r22
  8023bc:	d9800c04 	addi	r6,sp,48
  8023c0:	08015000 	call	801500 <__sprint_r>
  8023c4:	103e1c1e 	bne	r2,zero,801c38 <___vfprintf_internal_r+0x6e0>
  8023c8:	dc800e17 	ldw	r18,56(sp)
  8023cc:	dc400d17 	ldw	r17,52(sp)
  8023d0:	d8c01904 	addi	r3,sp,100
  8023d4:	003e2e06 	br	801c90 <___vfprintf_internal_r+0x738>
  8023d8:	d9414c17 	ldw	r5,1328(sp)
  8023dc:	2880004c 	andi	r2,r5,1
  8023e0:	1005003a 	cmpeq	r2,r2,zero
  8023e4:	103dda1e 	bne	r2,zero,801b50 <___vfprintf_internal_r+0x5f8>
  8023e8:	003e9f06 	br	801e68 <___vfprintf_internal_r+0x910>
  8023ec:	d8c14117 	ldw	r3,1284(sp)
  8023f0:	9125883a 	add	r18,r18,r4
  8023f4:	8c400044 	addi	r17,r17,1
  8023f8:	008001c4 	movi	r2,7
  8023fc:	a8c00015 	stw	r3,0(r21)
  802400:	a9000115 	stw	r4,4(r21)
  802404:	dc800e15 	stw	r18,56(sp)
  802408:	dc400d15 	stw	r17,52(sp)
  80240c:	14426616 	blt	r2,r17,802da8 <___vfprintf_internal_r+0x1850>
  802410:	a8c00204 	addi	r3,r21,8
  802414:	d9414917 	ldw	r5,1316(sp)
  802418:	00800044 	movi	r2,1
  80241c:	94800044 	addi	r18,r18,1
  802420:	8c400044 	addi	r17,r17,1
  802424:	18800115 	stw	r2,4(r3)
  802428:	008001c4 	movi	r2,7
  80242c:	19400015 	stw	r5,0(r3)
  802430:	dc800e15 	stw	r18,56(sp)
  802434:	dc400d15 	stw	r17,52(sp)
  802438:	2021883a 	mov	r16,r4
  80243c:	14425016 	blt	r2,r17,802d80 <___vfprintf_internal_r+0x1828>
  802440:	19400204 	addi	r5,r3,8
  802444:	d9814717 	ldw	r6,1308(sp)
  802448:	8c400044 	addi	r17,r17,1
  80244c:	dc400d15 	stw	r17,52(sp)
  802450:	3107c83a 	sub	r3,r6,r4
  802454:	d9014117 	ldw	r4,1284(sp)
  802458:	90e5883a 	add	r18,r18,r3
  80245c:	28c00115 	stw	r3,4(r5)
  802460:	8105883a 	add	r2,r16,r4
  802464:	28800015 	stw	r2,0(r5)
  802468:	008001c4 	movi	r2,7
  80246c:	dc800e15 	stw	r18,56(sp)
  802470:	147f1d16 	blt	r2,r17,8020e8 <___vfprintf_internal_r+0xb90>
  802474:	28c00204 	addi	r3,r5,8
  802478:	003db506 	br	801b50 <___vfprintf_internal_r+0x5f8>
  80247c:	3c000017 	ldw	r16,0(r7)
  802480:	3c400117 	ldw	r17,4(r7)
  802484:	39800204 	addi	r6,r7,8
  802488:	01000044 	movi	r4,1
  80248c:	d9814015 	stw	r6,1280(sp)
  802490:	d8000405 	stb	zero,16(sp)
  802494:	003ebe06 	br	801f90 <___vfprintf_internal_r+0xa38>
  802498:	3c000017 	ldw	r16,0(r7)
  80249c:	3c400117 	ldw	r17,4(r7)
  8024a0:	38800204 	addi	r2,r7,8
  8024a4:	d8814015 	stw	r2,1280(sp)
  8024a8:	003eb706 	br	801f88 <___vfprintf_internal_r+0xa30>
  8024ac:	3c000017 	ldw	r16,0(r7)
  8024b0:	3c400117 	ldw	r17,4(r7)
  8024b4:	39000204 	addi	r4,r7,8
  8024b8:	d9014015 	stw	r4,1280(sp)
  8024bc:	0009883a 	mov	r4,zero
  8024c0:	d8000405 	stb	zero,16(sp)
  8024c4:	003eb206 	br	801f90 <___vfprintf_internal_r+0xa38>
  8024c8:	38c00017 	ldw	r3,0(r7)
  8024cc:	39c00104 	addi	r7,r7,4
  8024d0:	d8c14a15 	stw	r3,1320(sp)
  8024d4:	1800d10e 	bge	r3,zero,80281c <___vfprintf_internal_r+0x12c4>
  8024d8:	00c7c83a 	sub	r3,zero,r3
  8024dc:	d8c14a15 	stw	r3,1320(sp)
  8024e0:	d9014c17 	ldw	r4,1328(sp)
  8024e4:	b8c00007 	ldb	r3,0(r23)
  8024e8:	21000114 	ori	r4,r4,4
  8024ec:	d9014c15 	stw	r4,1328(sp)
  8024f0:	003c9806 	br	801754 <___vfprintf_internal_r+0x1fc>
  8024f4:	d9814c17 	ldw	r6,1328(sp)
  8024f8:	3080080c 	andi	r2,r6,32
  8024fc:	1001f026 	beq	r2,zero,802cc0 <___vfprintf_internal_r+0x1768>
  802500:	d9014b17 	ldw	r4,1324(sp)
  802504:	38800017 	ldw	r2,0(r7)
  802508:	39c00104 	addi	r7,r7,4
  80250c:	d9c14015 	stw	r7,1280(sp)
  802510:	2007d7fa 	srai	r3,r4,31
  802514:	d9c14017 	ldw	r7,1280(sp)
  802518:	11000015 	stw	r4,0(r2)
  80251c:	10c00115 	stw	r3,4(r2)
  802520:	003c6906 	br	8016c8 <___vfprintf_internal_r+0x170>
  802524:	b8c00007 	ldb	r3,0(r23)
  802528:	00801b04 	movi	r2,108
  80252c:	18824f26 	beq	r3,r2,802e6c <___vfprintf_internal_r+0x1914>
  802530:	d9414c17 	ldw	r5,1328(sp)
  802534:	29400414 	ori	r5,r5,16
  802538:	d9414c15 	stw	r5,1328(sp)
  80253c:	003c8506 	br	801754 <___vfprintf_internal_r+0x1fc>
  802540:	d9814c17 	ldw	r6,1328(sp)
  802544:	b8c00007 	ldb	r3,0(r23)
  802548:	31800814 	ori	r6,r6,32
  80254c:	d9814c15 	stw	r6,1328(sp)
  802550:	003c8006 	br	801754 <___vfprintf_internal_r+0x1fc>
  802554:	d8814c17 	ldw	r2,1328(sp)
  802558:	3c000017 	ldw	r16,0(r7)
  80255c:	00c01e04 	movi	r3,120
  802560:	10800094 	ori	r2,r2,2
  802564:	d8814c15 	stw	r2,1328(sp)
  802568:	39c00104 	addi	r7,r7,4
  80256c:	01402074 	movhi	r5,129
  802570:	297ec904 	addi	r5,r5,-1244
  802574:	00800c04 	movi	r2,48
  802578:	0023883a 	mov	r17,zero
  80257c:	01000084 	movi	r4,2
  802580:	d9c14015 	stw	r7,1280(sp)
  802584:	d8c14d15 	stw	r3,1332(sp)
  802588:	d9414415 	stw	r5,1296(sp)
  80258c:	d8800445 	stb	r2,17(sp)
  802590:	d8c00485 	stb	r3,18(sp)
  802594:	d8000405 	stb	zero,16(sp)
  802598:	003e7d06 	br	801f90 <___vfprintf_internal_r+0xa38>
  80259c:	d8814c17 	ldw	r2,1328(sp)
  8025a0:	b8c00007 	ldb	r3,0(r23)
  8025a4:	10801014 	ori	r2,r2,64
  8025a8:	d8814c15 	stw	r2,1328(sp)
  8025ac:	003c6906 	br	801754 <___vfprintf_internal_r+0x1fc>
  8025b0:	d9414c17 	ldw	r5,1328(sp)
  8025b4:	2880020c 	andi	r2,r5,8
  8025b8:	1001df26 	beq	r2,zero,802d38 <___vfprintf_internal_r+0x17e0>
  8025bc:	39800017 	ldw	r6,0(r7)
  8025c0:	38800204 	addi	r2,r7,8
  8025c4:	d8814015 	stw	r2,1280(sp)
  8025c8:	d9814215 	stw	r6,1288(sp)
  8025cc:	39c00117 	ldw	r7,4(r7)
  8025d0:	d9c14315 	stw	r7,1292(sp)
  8025d4:	d9014217 	ldw	r4,1288(sp)
  8025d8:	d9414317 	ldw	r5,1292(sp)
  8025dc:	08082980 	call	808298 <__isinfd>
  8025e0:	10021726 	beq	r2,zero,802e40 <___vfprintf_internal_r+0x18e8>
  8025e4:	d9014217 	ldw	r4,1288(sp)
  8025e8:	d9414317 	ldw	r5,1292(sp)
  8025ec:	000d883a 	mov	r6,zero
  8025f0:	000f883a 	mov	r7,zero
  8025f4:	080a4a00 	call	80a4a0 <__ltdf2>
  8025f8:	1002ca16 	blt	r2,zero,803124 <___vfprintf_internal_r+0x1bcc>
  8025fc:	d9414d17 	ldw	r5,1332(sp)
  802600:	008011c4 	movi	r2,71
  802604:	11420a16 	blt	r2,r5,802e30 <___vfprintf_internal_r+0x18d8>
  802608:	01802074 	movhi	r6,129
  80260c:	31bece04 	addi	r6,r6,-1224
  802610:	d9814115 	stw	r6,1284(sp)
  802614:	d9014c17 	ldw	r4,1328(sp)
  802618:	00c000c4 	movi	r3,3
  80261c:	00bfdfc4 	movi	r2,-129
  802620:	2088703a 	and	r4,r4,r2
  802624:	180f883a 	mov	r7,r3
  802628:	d8c14515 	stw	r3,1300(sp)
  80262c:	d9014c15 	stw	r4,1328(sp)
  802630:	d8014615 	stw	zero,1304(sp)
  802634:	003e6a06 	br	801fe0 <___vfprintf_internal_r+0xa88>
  802638:	38800017 	ldw	r2,0(r7)
  80263c:	00c00044 	movi	r3,1
  802640:	39c00104 	addi	r7,r7,4
  802644:	d9c14015 	stw	r7,1280(sp)
  802648:	d9000f04 	addi	r4,sp,60
  80264c:	180f883a 	mov	r7,r3
  802650:	d8c14515 	stw	r3,1300(sp)
  802654:	d9014115 	stw	r4,1284(sp)
  802658:	d8800f05 	stb	r2,60(sp)
  80265c:	d8000405 	stb	zero,16(sp)
  802660:	003cac06 	br	801914 <___vfprintf_internal_r+0x3bc>
  802664:	01402074 	movhi	r5,129
  802668:	297ed404 	addi	r5,r5,-1200
  80266c:	d9414415 	stw	r5,1296(sp)
  802670:	d9814c17 	ldw	r6,1328(sp)
  802674:	3080080c 	andi	r2,r6,32
  802678:	1000f926 	beq	r2,zero,802a60 <___vfprintf_internal_r+0x1508>
  80267c:	3c000017 	ldw	r16,0(r7)
  802680:	3c400117 	ldw	r17,4(r7)
  802684:	38800204 	addi	r2,r7,8
  802688:	d8814015 	stw	r2,1280(sp)
  80268c:	d9414c17 	ldw	r5,1328(sp)
  802690:	2880004c 	andi	r2,r5,1
  802694:	1005003a 	cmpeq	r2,r2,zero
  802698:	1000b31e 	bne	r2,zero,802968 <___vfprintf_internal_r+0x1410>
  80269c:	8444b03a 	or	r2,r16,r17
  8026a0:	1000b126 	beq	r2,zero,802968 <___vfprintf_internal_r+0x1410>
  8026a4:	d9814d17 	ldw	r6,1332(sp)
  8026a8:	29400094 	ori	r5,r5,2
  8026ac:	00800c04 	movi	r2,48
  8026b0:	01000084 	movi	r4,2
  8026b4:	d9414c15 	stw	r5,1328(sp)
  8026b8:	d8800445 	stb	r2,17(sp)
  8026bc:	d9800485 	stb	r6,18(sp)
  8026c0:	d8000405 	stb	zero,16(sp)
  8026c4:	003e3206 	br	801f90 <___vfprintf_internal_r+0xa38>
  8026c8:	01802074 	movhi	r6,129
  8026cc:	31bec904 	addi	r6,r6,-1244
  8026d0:	d9814415 	stw	r6,1296(sp)
  8026d4:	003fe606 	br	802670 <___vfprintf_internal_r+0x1118>
  8026d8:	00800ac4 	movi	r2,43
  8026dc:	d8800405 	stb	r2,16(sp)
  8026e0:	b8c00007 	ldb	r3,0(r23)
  8026e4:	003c1b06 	br	801754 <___vfprintf_internal_r+0x1fc>
  8026e8:	d8814c17 	ldw	r2,1328(sp)
  8026ec:	b8c00007 	ldb	r3,0(r23)
  8026f0:	10800054 	ori	r2,r2,1
  8026f4:	d8814c15 	stw	r2,1328(sp)
  8026f8:	003c1606 	br	801754 <___vfprintf_internal_r+0x1fc>
  8026fc:	d8800407 	ldb	r2,16(sp)
  802700:	1000461e 	bne	r2,zero,80281c <___vfprintf_internal_r+0x12c4>
  802704:	00800804 	movi	r2,32
  802708:	d8800405 	stb	r2,16(sp)
  80270c:	b8c00007 	ldb	r3,0(r23)
  802710:	003c1006 	br	801754 <___vfprintf_internal_r+0x1fc>
  802714:	d9814c17 	ldw	r6,1328(sp)
  802718:	b8c00007 	ldb	r3,0(r23)
  80271c:	31800214 	ori	r6,r6,8
  802720:	d9814c15 	stw	r6,1328(sp)
  802724:	003c0b06 	br	801754 <___vfprintf_internal_r+0x1fc>
  802728:	0007883a 	mov	r3,zero
  80272c:	01000244 	movi	r4,9
  802730:	188002a4 	muli	r2,r3,10
  802734:	b8c00007 	ldb	r3,0(r23)
  802738:	d9814d17 	ldw	r6,1332(sp)
  80273c:	bdc00044 	addi	r23,r23,1
  802740:	d8c14d15 	stw	r3,1332(sp)
  802744:	d9414d17 	ldw	r5,1332(sp)
  802748:	3085883a 	add	r2,r6,r2
  80274c:	10fff404 	addi	r3,r2,-48
  802750:	28bff404 	addi	r2,r5,-48
  802754:	20bff62e 	bgeu	r4,r2,802730 <___vfprintf_internal_r+0x11d8>
  802758:	d8c14a15 	stw	r3,1320(sp)
  80275c:	003bff06 	br	80175c <___vfprintf_internal_r+0x204>
  802760:	d9414c17 	ldw	r5,1328(sp)
  802764:	b8c00007 	ldb	r3,0(r23)
  802768:	29402014 	ori	r5,r5,128
  80276c:	d9414c15 	stw	r5,1328(sp)
  802770:	003bf806 	br	801754 <___vfprintf_internal_r+0x1fc>
  802774:	b8c00007 	ldb	r3,0(r23)
  802778:	00800a84 	movi	r2,42
  80277c:	bdc00044 	addi	r23,r23,1
  802780:	18831526 	beq	r3,r2,8033d8 <___vfprintf_internal_r+0x1e80>
  802784:	d8c14d15 	stw	r3,1332(sp)
  802788:	18bff404 	addi	r2,r3,-48
  80278c:	00c00244 	movi	r3,9
  802790:	18827836 	bltu	r3,r2,803174 <___vfprintf_internal_r+0x1c1c>
  802794:	000d883a 	mov	r6,zero
  802798:	308002a4 	muli	r2,r6,10
  80279c:	b9800007 	ldb	r6,0(r23)
  8027a0:	d9414d17 	ldw	r5,1332(sp)
  8027a4:	bdc00044 	addi	r23,r23,1
  8027a8:	d9814d15 	stw	r6,1332(sp)
  8027ac:	d9014d17 	ldw	r4,1332(sp)
  8027b0:	1145883a 	add	r2,r2,r5
  8027b4:	11bff404 	addi	r6,r2,-48
  8027b8:	20bff404 	addi	r2,r4,-48
  8027bc:	18bff62e 	bgeu	r3,r2,802798 <___vfprintf_internal_r+0x1240>
  8027c0:	3027883a 	mov	r19,r6
  8027c4:	303be50e 	bge	r6,zero,80175c <___vfprintf_internal_r+0x204>
  8027c8:	04ffffc4 	movi	r19,-1
  8027cc:	003be306 	br	80175c <___vfprintf_internal_r+0x204>
  8027d0:	d8000405 	stb	zero,16(sp)
  8027d4:	39800017 	ldw	r6,0(r7)
  8027d8:	39c00104 	addi	r7,r7,4
  8027dc:	d9c14015 	stw	r7,1280(sp)
  8027e0:	d9814115 	stw	r6,1284(sp)
  8027e4:	3001c926 	beq	r6,zero,802f0c <___vfprintf_internal_r+0x19b4>
  8027e8:	98000e16 	blt	r19,zero,802824 <___vfprintf_internal_r+0x12cc>
  8027ec:	d9014117 	ldw	r4,1284(sp)
  8027f0:	000b883a 	mov	r5,zero
  8027f4:	980d883a 	mov	r6,r19
  8027f8:	08067c80 	call	8067c8 <memchr>
  8027fc:	10025926 	beq	r2,zero,803164 <___vfprintf_internal_r+0x1c0c>
  802800:	d8c14117 	ldw	r3,1284(sp)
  802804:	10cfc83a 	sub	r7,r2,r3
  802808:	99c19e16 	blt	r19,r7,802e84 <___vfprintf_internal_r+0x192c>
  80280c:	d9c14515 	stw	r7,1300(sp)
  802810:	38000916 	blt	r7,zero,802838 <___vfprintf_internal_r+0x12e0>
  802814:	d8014615 	stw	zero,1304(sp)
  802818:	003df106 	br	801fe0 <___vfprintf_internal_r+0xa88>
  80281c:	b8c00007 	ldb	r3,0(r23)
  802820:	003bcc06 	br	801754 <___vfprintf_internal_r+0x1fc>
  802824:	d9014117 	ldw	r4,1284(sp)
  802828:	08085800 	call	808580 <strlen>
  80282c:	d8814515 	stw	r2,1300(sp)
  802830:	100f883a 	mov	r7,r2
  802834:	103ff70e 	bge	r2,zero,802814 <___vfprintf_internal_r+0x12bc>
  802838:	d8014515 	stw	zero,1300(sp)
  80283c:	d8014615 	stw	zero,1304(sp)
  802840:	003de706 	br	801fe0 <___vfprintf_internal_r+0xa88>
  802844:	20c03fcc 	andi	r3,r4,255
  802848:	00800044 	movi	r2,1
  80284c:	18802d26 	beq	r3,r2,802904 <___vfprintf_internal_r+0x13ac>
  802850:	18800e36 	bltu	r3,r2,80288c <___vfprintf_internal_r+0x1334>
  802854:	00800084 	movi	r2,2
  802858:	1880fa26 	beq	r3,r2,802c44 <___vfprintf_internal_r+0x16ec>
  80285c:	01002074 	movhi	r4,129
  802860:	213ed904 	addi	r4,r4,-1180
  802864:	08085800 	call	808580 <strlen>
  802868:	100f883a 	mov	r7,r2
  80286c:	dcc14515 	stw	r19,1300(sp)
  802870:	9880010e 	bge	r19,r2,802878 <___vfprintf_internal_r+0x1320>
  802874:	d8814515 	stw	r2,1300(sp)
  802878:	00802074 	movhi	r2,129
  80287c:	10bed904 	addi	r2,r2,-1180
  802880:	dcc14615 	stw	r19,1304(sp)
  802884:	d8814115 	stw	r2,1284(sp)
  802888:	003dd506 	br	801fe0 <___vfprintf_internal_r+0xa88>
  80288c:	d9401904 	addi	r5,sp,100
  802890:	dd000f04 	addi	r20,sp,60
  802894:	d9414115 	stw	r5,1284(sp)
  802898:	880a977a 	slli	r5,r17,29
  80289c:	d9814117 	ldw	r6,1284(sp)
  8028a0:	8004d0fa 	srli	r2,r16,3
  8028a4:	8806d0fa 	srli	r3,r17,3
  8028a8:	810001cc 	andi	r4,r16,7
  8028ac:	2884b03a 	or	r2,r5,r2
  8028b0:	31bfffc4 	addi	r6,r6,-1
  8028b4:	21000c04 	addi	r4,r4,48
  8028b8:	d9814115 	stw	r6,1284(sp)
  8028bc:	10cab03a 	or	r5,r2,r3
  8028c0:	31000005 	stb	r4,0(r6)
  8028c4:	1021883a 	mov	r16,r2
  8028c8:	1823883a 	mov	r17,r3
  8028cc:	283ff21e 	bne	r5,zero,802898 <___vfprintf_internal_r+0x1340>
  8028d0:	d8c14c17 	ldw	r3,1328(sp)
  8028d4:	1880004c 	andi	r2,r3,1
  8028d8:	1005003a 	cmpeq	r2,r2,zero
  8028dc:	103db91e 	bne	r2,zero,801fc4 <___vfprintf_internal_r+0xa6c>
  8028e0:	20803fcc 	andi	r2,r4,255
  8028e4:	1080201c 	xori	r2,r2,128
  8028e8:	10bfe004 	addi	r2,r2,-128
  8028ec:	00c00c04 	movi	r3,48
  8028f0:	10fdb426 	beq	r2,r3,801fc4 <___vfprintf_internal_r+0xa6c>
  8028f4:	31bfffc4 	addi	r6,r6,-1
  8028f8:	d9814115 	stw	r6,1284(sp)
  8028fc:	30c00005 	stb	r3,0(r6)
  802900:	003db006 	br	801fc4 <___vfprintf_internal_r+0xa6c>
  802904:	88800068 	cmpgeui	r2,r17,1
  802908:	10002c1e 	bne	r2,zero,8029bc <___vfprintf_internal_r+0x1464>
  80290c:	8800021e 	bne	r17,zero,802918 <___vfprintf_internal_r+0x13c0>
  802910:	00800244 	movi	r2,9
  802914:	14002936 	bltu	r2,r16,8029bc <___vfprintf_internal_r+0x1464>
  802918:	d90018c4 	addi	r4,sp,99
  80291c:	dd000f04 	addi	r20,sp,60
  802920:	d9014115 	stw	r4,1284(sp)
  802924:	d9014117 	ldw	r4,1284(sp)
  802928:	80800c04 	addi	r2,r16,48
  80292c:	20800005 	stb	r2,0(r4)
  802930:	003da406 	br	801fc4 <___vfprintf_internal_r+0xa6c>
  802934:	dc400d17 	ldw	r17,52(sp)
  802938:	07002074 	movhi	fp,129
  80293c:	e73edf84 	addi	fp,fp,-1154
  802940:	9425883a 	add	r18,r18,r16
  802944:	8c400044 	addi	r17,r17,1
  802948:	008001c4 	movi	r2,7
  80294c:	1f000015 	stw	fp,0(r3)
  802950:	1c000115 	stw	r16,4(r3)
  802954:	dc800e15 	stw	r18,56(sp)
  802958:	dc400d15 	stw	r17,52(sp)
  80295c:	147de216 	blt	r2,r17,8020e8 <___vfprintf_internal_r+0xb90>
  802960:	18c00204 	addi	r3,r3,8
  802964:	003c7a06 	br	801b50 <___vfprintf_internal_r+0x5f8>
  802968:	01000084 	movi	r4,2
  80296c:	d8000405 	stb	zero,16(sp)
  802970:	003d8706 	br	801f90 <___vfprintf_internal_r+0xa38>
  802974:	d9814c17 	ldw	r6,1328(sp)
  802978:	30c4703a 	and	r2,r6,r3
  80297c:	1005003a 	cmpeq	r2,r2,zero
  802980:	103cb926 	beq	r2,zero,801c68 <___vfprintf_internal_r+0x710>
  802984:	d9014117 	ldw	r4,1284(sp)
  802988:	94800044 	addi	r18,r18,1
  80298c:	8c400044 	addi	r17,r17,1
  802990:	008001c4 	movi	r2,7
  802994:	a9000015 	stw	r4,0(r21)
  802998:	a8c00115 	stw	r3,4(r21)
  80299c:	dc800e15 	stw	r18,56(sp)
  8029a0:	dc400d15 	stw	r17,52(sp)
  8029a4:	147e6616 	blt	r2,r17,802340 <___vfprintf_internal_r+0xde8>
  8029a8:	acc00204 	addi	r19,r21,8
  8029ac:	003cd706 	br	801d0c <___vfprintf_internal_r+0x7b4>
  8029b0:	07002074 	movhi	fp,129
  8029b4:	e73edf84 	addi	fp,fp,-1154
  8029b8:	003c4f06 	br	801af8 <___vfprintf_internal_r+0x5a0>
  8029bc:	dd000f04 	addi	r20,sp,60
  8029c0:	dc801904 	addi	r18,sp,100
  8029c4:	8009883a 	mov	r4,r16
  8029c8:	880b883a 	mov	r5,r17
  8029cc:	01800284 	movi	r6,10
  8029d0:	000f883a 	mov	r7,zero
  8029d4:	08091b00 	call	8091b0 <__umoddi3>
  8029d8:	12000c04 	addi	r8,r2,48
  8029dc:	94bfffc4 	addi	r18,r18,-1
  8029e0:	8009883a 	mov	r4,r16
  8029e4:	880b883a 	mov	r5,r17
  8029e8:	01800284 	movi	r6,10
  8029ec:	000f883a 	mov	r7,zero
  8029f0:	92000005 	stb	r8,0(r18)
  8029f4:	0808bd40 	call	808bd4 <__udivdi3>
  8029f8:	1009883a 	mov	r4,r2
  8029fc:	1021883a 	mov	r16,r2
  802a00:	18800068 	cmpgeui	r2,r3,1
  802a04:	1823883a 	mov	r17,r3
  802a08:	103fee1e 	bne	r2,zero,8029c4 <___vfprintf_internal_r+0x146c>
  802a0c:	1800021e 	bne	r3,zero,802a18 <___vfprintf_internal_r+0x14c0>
  802a10:	00800244 	movi	r2,9
  802a14:	113feb36 	bltu	r2,r4,8029c4 <___vfprintf_internal_r+0x146c>
  802a18:	94bfffc4 	addi	r18,r18,-1
  802a1c:	dc814115 	stw	r18,1284(sp)
  802a20:	003fc006 	br	802924 <___vfprintf_internal_r+0x13cc>
  802a24:	d9014c17 	ldw	r4,1328(sp)
  802a28:	2080004c 	andi	r2,r4,1
  802a2c:	10009a1e 	bne	r2,zero,802c98 <___vfprintf_internal_r+0x1740>
  802a30:	d9401904 	addi	r5,sp,100
  802a34:	dd000f04 	addi	r20,sp,60
  802a38:	d9414115 	stw	r5,1284(sp)
  802a3c:	003d6106 	br	801fc4 <___vfprintf_internal_r+0xa6c>
  802a40:	d9014f17 	ldw	r4,1340(sp)
  802a44:	b00b883a 	mov	r5,r22
  802a48:	d9800c04 	addi	r6,sp,48
  802a4c:	08015000 	call	801500 <__sprint_r>
  802a50:	103c791e 	bne	r2,zero,801c38 <___vfprintf_internal_r+0x6e0>
  802a54:	dc800e17 	ldw	r18,56(sp)
  802a58:	d8c01904 	addi	r3,sp,100
  802a5c:	003cff06 	br	801e5c <___vfprintf_internal_r+0x904>
  802a60:	d8c14c17 	ldw	r3,1328(sp)
  802a64:	1880040c 	andi	r2,r3,16
  802a68:	1000711e 	bne	r2,zero,802c30 <___vfprintf_internal_r+0x16d8>
  802a6c:	d9014c17 	ldw	r4,1328(sp)
  802a70:	2080100c 	andi	r2,r4,64
  802a74:	10006e26 	beq	r2,zero,802c30 <___vfprintf_internal_r+0x16d8>
  802a78:	3c00000b 	ldhu	r16,0(r7)
  802a7c:	0023883a 	mov	r17,zero
  802a80:	39c00104 	addi	r7,r7,4
  802a84:	d9c14015 	stw	r7,1280(sp)
  802a88:	003f0006 	br	80268c <___vfprintf_internal_r+0x1134>
  802a8c:	dc400d17 	ldw	r17,52(sp)
  802a90:	07002074 	movhi	fp,129
  802a94:	e73edf84 	addi	fp,fp,-1154
  802a98:	9425883a 	add	r18,r18,r16
  802a9c:	8c400044 	addi	r17,r17,1
  802aa0:	008001c4 	movi	r2,7
  802aa4:	1f000015 	stw	fp,0(r3)
  802aa8:	1c000115 	stw	r16,4(r3)
  802aac:	dc800e15 	stw	r18,56(sp)
  802ab0:	dc400d15 	stw	r17,52(sp)
  802ab4:	147d7616 	blt	r2,r17,802090 <___vfprintf_internal_r+0xb38>
  802ab8:	18c00204 	addi	r3,r3,8
  802abc:	003d7b06 	br	8020ac <___vfprintf_internal_r+0xb54>
  802ac0:	dc800e17 	ldw	r18,56(sp)
  802ac4:	dc400d17 	ldw	r17,52(sp)
  802ac8:	07002074 	movhi	fp,129
  802acc:	e73ee384 	addi	fp,fp,-1138
  802ad0:	003bc006 	br	8019d4 <___vfprintf_internal_r+0x47c>
  802ad4:	d9014f17 	ldw	r4,1340(sp)
  802ad8:	b00b883a 	mov	r5,r22
  802adc:	d9800c04 	addi	r6,sp,48
  802ae0:	08015000 	call	801500 <__sprint_r>
  802ae4:	103c541e 	bne	r2,zero,801c38 <___vfprintf_internal_r+0x6e0>
  802ae8:	dc800e17 	ldw	r18,56(sp)
  802aec:	d8c01904 	addi	r3,sp,100
  802af0:	003ce906 	br	801e98 <___vfprintf_internal_r+0x940>
  802af4:	3c000017 	ldw	r16,0(r7)
  802af8:	0009883a 	mov	r4,zero
  802afc:	39c00104 	addi	r7,r7,4
  802b00:	0023883a 	mov	r17,zero
  802b04:	d9c14015 	stw	r7,1280(sp)
  802b08:	d8000405 	stb	zero,16(sp)
  802b0c:	003d2006 	br	801f90 <___vfprintf_internal_r+0xa38>
  802b10:	38800017 	ldw	r2,0(r7)
  802b14:	39c00104 	addi	r7,r7,4
  802b18:	d9c14015 	stw	r7,1280(sp)
  802b1c:	1023d7fa 	srai	r17,r2,31
  802b20:	1021883a 	mov	r16,r2
  802b24:	003d1806 	br	801f88 <___vfprintf_internal_r+0xa30>
  802b28:	3c000017 	ldw	r16,0(r7)
  802b2c:	01000044 	movi	r4,1
  802b30:	39c00104 	addi	r7,r7,4
  802b34:	0023883a 	mov	r17,zero
  802b38:	d9c14015 	stw	r7,1280(sp)
  802b3c:	d8000405 	stb	zero,16(sp)
  802b40:	003d1306 	br	801f90 <___vfprintf_internal_r+0xa38>
  802b44:	00802074 	movhi	r2,129
  802b48:	10beb804 	addi	r2,r2,-1312
  802b4c:	94800044 	addi	r18,r18,1
  802b50:	8c400044 	addi	r17,r17,1
  802b54:	a8800015 	stw	r2,0(r21)
  802b58:	00c00044 	movi	r3,1
  802b5c:	008001c4 	movi	r2,7
  802b60:	a8c00115 	stw	r3,4(r21)
  802b64:	dc800e15 	stw	r18,56(sp)
  802b68:	dc400d15 	stw	r17,52(sp)
  802b6c:	1440ca16 	blt	r2,r17,802e98 <___vfprintf_internal_r+0x1940>
  802b70:	a8c00204 	addi	r3,r21,8
  802b74:	2000061e 	bne	r4,zero,802b90 <___vfprintf_internal_r+0x1638>
  802b78:	d9414717 	ldw	r5,1308(sp)
  802b7c:	2800041e 	bne	r5,zero,802b90 <___vfprintf_internal_r+0x1638>
  802b80:	d9814c17 	ldw	r6,1328(sp)
  802b84:	3080004c 	andi	r2,r6,1
  802b88:	1005003a 	cmpeq	r2,r2,zero
  802b8c:	103bf01e 	bne	r2,zero,801b50 <___vfprintf_internal_r+0x5f8>
  802b90:	00800044 	movi	r2,1
  802b94:	dc400d17 	ldw	r17,52(sp)
  802b98:	18800115 	stw	r2,4(r3)
  802b9c:	d8814917 	ldw	r2,1316(sp)
  802ba0:	94800044 	addi	r18,r18,1
  802ba4:	8c400044 	addi	r17,r17,1
  802ba8:	18800015 	stw	r2,0(r3)
  802bac:	008001c4 	movi	r2,7
  802bb0:	dc800e15 	stw	r18,56(sp)
  802bb4:	dc400d15 	stw	r17,52(sp)
  802bb8:	1440ca16 	blt	r2,r17,802ee4 <___vfprintf_internal_r+0x198c>
  802bbc:	18c00204 	addi	r3,r3,8
  802bc0:	0121c83a 	sub	r16,zero,r4
  802bc4:	0400500e 	bge	zero,r16,802d08 <___vfprintf_internal_r+0x17b0>
  802bc8:	00800404 	movi	r2,16
  802bcc:	1400800e 	bge	r2,r16,802dd0 <___vfprintf_internal_r+0x1878>
  802bd0:	1027883a 	mov	r19,r2
  802bd4:	07002074 	movhi	fp,129
  802bd8:	e73edf84 	addi	fp,fp,-1154
  802bdc:	050001c4 	movi	r20,7
  802be0:	00000306 	br	802bf0 <___vfprintf_internal_r+0x1698>
  802be4:	18c00204 	addi	r3,r3,8
  802be8:	843ffc04 	addi	r16,r16,-16
  802bec:	9c007a0e 	bge	r19,r16,802dd8 <___vfprintf_internal_r+0x1880>
  802bf0:	94800404 	addi	r18,r18,16
  802bf4:	8c400044 	addi	r17,r17,1
  802bf8:	1f000015 	stw	fp,0(r3)
  802bfc:	1cc00115 	stw	r19,4(r3)
  802c00:	dc800e15 	stw	r18,56(sp)
  802c04:	dc400d15 	stw	r17,52(sp)
  802c08:	a47ff60e 	bge	r20,r17,802be4 <___vfprintf_internal_r+0x168c>
  802c0c:	d9014f17 	ldw	r4,1340(sp)
  802c10:	b00b883a 	mov	r5,r22
  802c14:	d9800c04 	addi	r6,sp,48
  802c18:	08015000 	call	801500 <__sprint_r>
  802c1c:	103c061e 	bne	r2,zero,801c38 <___vfprintf_internal_r+0x6e0>
  802c20:	dc800e17 	ldw	r18,56(sp)
  802c24:	dc400d17 	ldw	r17,52(sp)
  802c28:	d8c01904 	addi	r3,sp,100
  802c2c:	003fee06 	br	802be8 <___vfprintf_internal_r+0x1690>
  802c30:	3c000017 	ldw	r16,0(r7)
  802c34:	0023883a 	mov	r17,zero
  802c38:	39c00104 	addi	r7,r7,4
  802c3c:	d9c14015 	stw	r7,1280(sp)
  802c40:	003e9206 	br	80268c <___vfprintf_internal_r+0x1134>
  802c44:	d9401904 	addi	r5,sp,100
  802c48:	dd000f04 	addi	r20,sp,60
  802c4c:	d9414115 	stw	r5,1284(sp)
  802c50:	d9814417 	ldw	r6,1296(sp)
  802c54:	880a973a 	slli	r5,r17,28
  802c58:	8004d13a 	srli	r2,r16,4
  802c5c:	810003cc 	andi	r4,r16,15
  802c60:	3109883a 	add	r4,r6,r4
  802c64:	2884b03a 	or	r2,r5,r2
  802c68:	21400003 	ldbu	r5,0(r4)
  802c6c:	d9014117 	ldw	r4,1284(sp)
  802c70:	8806d13a 	srli	r3,r17,4
  802c74:	1021883a 	mov	r16,r2
  802c78:	213fffc4 	addi	r4,r4,-1
  802c7c:	d9014115 	stw	r4,1284(sp)
  802c80:	d9814117 	ldw	r6,1284(sp)
  802c84:	10c8b03a 	or	r4,r2,r3
  802c88:	1823883a 	mov	r17,r3
  802c8c:	31400005 	stb	r5,0(r6)
  802c90:	203fef1e 	bne	r4,zero,802c50 <___vfprintf_internal_r+0x16f8>
  802c94:	003ccb06 	br	801fc4 <___vfprintf_internal_r+0xa6c>
  802c98:	00800c04 	movi	r2,48
  802c9c:	d98018c4 	addi	r6,sp,99
  802ca0:	dd000f04 	addi	r20,sp,60
  802ca4:	d88018c5 	stb	r2,99(sp)
  802ca8:	d9814115 	stw	r6,1284(sp)
  802cac:	003cc506 	br	801fc4 <___vfprintf_internal_r+0xa6c>
  802cb0:	dc400d17 	ldw	r17,52(sp)
  802cb4:	07002074 	movhi	fp,129
  802cb8:	e73ee384 	addi	fp,fp,-1138
  802cbc:	003bc706 	br	801bdc <___vfprintf_internal_r+0x684>
  802cc0:	d9414c17 	ldw	r5,1328(sp)
  802cc4:	2880040c 	andi	r2,r5,16
  802cc8:	10007c26 	beq	r2,zero,802ebc <___vfprintf_internal_r+0x1964>
  802ccc:	38800017 	ldw	r2,0(r7)
  802cd0:	39c00104 	addi	r7,r7,4
  802cd4:	d9c14015 	stw	r7,1280(sp)
  802cd8:	d9814b17 	ldw	r6,1324(sp)
  802cdc:	d9c14017 	ldw	r7,1280(sp)
  802ce0:	11800015 	stw	r6,0(r2)
  802ce4:	003a7806 	br	8016c8 <___vfprintf_internal_r+0x170>
  802ce8:	d9014f17 	ldw	r4,1340(sp)
  802cec:	b00b883a 	mov	r5,r22
  802cf0:	d9800c04 	addi	r6,sp,48
  802cf4:	08015000 	call	801500 <__sprint_r>
  802cf8:	103bcf1e 	bne	r2,zero,801c38 <___vfprintf_internal_r+0x6e0>
  802cfc:	dc800e17 	ldw	r18,56(sp)
  802d00:	dc400d17 	ldw	r17,52(sp)
  802d04:	d8c01904 	addi	r3,sp,100
  802d08:	d9014717 	ldw	r4,1308(sp)
  802d0c:	d9414117 	ldw	r5,1284(sp)
  802d10:	8c400044 	addi	r17,r17,1
  802d14:	9125883a 	add	r18,r18,r4
  802d18:	008001c4 	movi	r2,7
  802d1c:	19400015 	stw	r5,0(r3)
  802d20:	19000115 	stw	r4,4(r3)
  802d24:	dc800e15 	stw	r18,56(sp)
  802d28:	dc400d15 	stw	r17,52(sp)
  802d2c:	147cee16 	blt	r2,r17,8020e8 <___vfprintf_internal_r+0xb90>
  802d30:	18c00204 	addi	r3,r3,8
  802d34:	003b8606 	br	801b50 <___vfprintf_internal_r+0x5f8>
  802d38:	38c00017 	ldw	r3,0(r7)
  802d3c:	39000204 	addi	r4,r7,8
  802d40:	d9014015 	stw	r4,1280(sp)
  802d44:	d8c14215 	stw	r3,1288(sp)
  802d48:	39c00117 	ldw	r7,4(r7)
  802d4c:	d9c14315 	stw	r7,1292(sp)
  802d50:	003e2006 	br	8025d4 <___vfprintf_internal_r+0x107c>
  802d54:	0005883a 	mov	r2,zero
  802d58:	1409c83a 	sub	r4,r2,r16
  802d5c:	1105803a 	cmpltu	r2,r2,r4
  802d60:	044bc83a 	sub	r5,zero,r17
  802d64:	2885c83a 	sub	r2,r5,r2
  802d68:	2021883a 	mov	r16,r4
  802d6c:	1023883a 	mov	r17,r2
  802d70:	01000044 	movi	r4,1
  802d74:	00800b44 	movi	r2,45
  802d78:	d8800405 	stb	r2,16(sp)
  802d7c:	003c8406 	br	801f90 <___vfprintf_internal_r+0xa38>
  802d80:	d9014f17 	ldw	r4,1340(sp)
  802d84:	b00b883a 	mov	r5,r22
  802d88:	d9800c04 	addi	r6,sp,48
  802d8c:	08015000 	call	801500 <__sprint_r>
  802d90:	103ba91e 	bne	r2,zero,801c38 <___vfprintf_internal_r+0x6e0>
  802d94:	dc800e17 	ldw	r18,56(sp)
  802d98:	dc400d17 	ldw	r17,52(sp)
  802d9c:	d9000517 	ldw	r4,20(sp)
  802da0:	d9401904 	addi	r5,sp,100
  802da4:	003da706 	br	802444 <___vfprintf_internal_r+0xeec>
  802da8:	d9014f17 	ldw	r4,1340(sp)
  802dac:	b00b883a 	mov	r5,r22
  802db0:	d9800c04 	addi	r6,sp,48
  802db4:	08015000 	call	801500 <__sprint_r>
  802db8:	103b9f1e 	bne	r2,zero,801c38 <___vfprintf_internal_r+0x6e0>
  802dbc:	dc800e17 	ldw	r18,56(sp)
  802dc0:	dc400d17 	ldw	r17,52(sp)
  802dc4:	d9000517 	ldw	r4,20(sp)
  802dc8:	d8c01904 	addi	r3,sp,100
  802dcc:	003d9106 	br	802414 <___vfprintf_internal_r+0xebc>
  802dd0:	07002074 	movhi	fp,129
  802dd4:	e73edf84 	addi	fp,fp,-1154
  802dd8:	9425883a 	add	r18,r18,r16
  802ddc:	8c400044 	addi	r17,r17,1
  802de0:	008001c4 	movi	r2,7
  802de4:	1f000015 	stw	fp,0(r3)
  802de8:	1c000115 	stw	r16,4(r3)
  802dec:	dc800e15 	stw	r18,56(sp)
  802df0:	dc400d15 	stw	r17,52(sp)
  802df4:	147fbc16 	blt	r2,r17,802ce8 <___vfprintf_internal_r+0x1790>
  802df8:	18c00204 	addi	r3,r3,8
  802dfc:	003fc206 	br	802d08 <___vfprintf_internal_r+0x17b0>
  802e00:	d9014f17 	ldw	r4,1340(sp)
  802e04:	b00b883a 	mov	r5,r22
  802e08:	d9800c04 	addi	r6,sp,48
  802e0c:	08015000 	call	801500 <__sprint_r>
  802e10:	103b891e 	bne	r2,zero,801c38 <___vfprintf_internal_r+0x6e0>
  802e14:	dc800e17 	ldw	r18,56(sp)
  802e18:	d9000517 	ldw	r4,20(sp)
  802e1c:	d8c01904 	addi	r3,sp,100
  802e20:	003d0206 	br	80222c <___vfprintf_internal_r+0xcd4>
  802e24:	07002074 	movhi	fp,129
  802e28:	e73edf84 	addi	fp,fp,-1154
  802e2c:	003be406 	br	801dc0 <___vfprintf_internal_r+0x868>
  802e30:	00802074 	movhi	r2,129
  802e34:	10becf04 	addi	r2,r2,-1220
  802e38:	d8814115 	stw	r2,1284(sp)
  802e3c:	003df506 	br	802614 <___vfprintf_internal_r+0x10bc>
  802e40:	d9014217 	ldw	r4,1288(sp)
  802e44:	d9414317 	ldw	r5,1292(sp)
  802e48:	08082d80 	call	8082d8 <__isnand>
  802e4c:	10003926 	beq	r2,zero,802f34 <___vfprintf_internal_r+0x19dc>
  802e50:	d9414d17 	ldw	r5,1332(sp)
  802e54:	008011c4 	movi	r2,71
  802e58:	1140ce16 	blt	r2,r5,803194 <___vfprintf_internal_r+0x1c3c>
  802e5c:	01802074 	movhi	r6,129
  802e60:	31bed004 	addi	r6,r6,-1216
  802e64:	d9814115 	stw	r6,1284(sp)
  802e68:	003dea06 	br	802614 <___vfprintf_internal_r+0x10bc>
  802e6c:	d9014c17 	ldw	r4,1328(sp)
  802e70:	bdc00044 	addi	r23,r23,1
  802e74:	b8c00007 	ldb	r3,0(r23)
  802e78:	21000814 	ori	r4,r4,32
  802e7c:	d9014c15 	stw	r4,1328(sp)
  802e80:	003a3406 	br	801754 <___vfprintf_internal_r+0x1fc>
  802e84:	dcc14515 	stw	r19,1300(sp)
  802e88:	98011016 	blt	r19,zero,8032cc <___vfprintf_internal_r+0x1d74>
  802e8c:	980f883a 	mov	r7,r19
  802e90:	d8014615 	stw	zero,1304(sp)
  802e94:	003c5206 	br	801fe0 <___vfprintf_internal_r+0xa88>
  802e98:	d9014f17 	ldw	r4,1340(sp)
  802e9c:	b00b883a 	mov	r5,r22
  802ea0:	d9800c04 	addi	r6,sp,48
  802ea4:	08015000 	call	801500 <__sprint_r>
  802ea8:	103b631e 	bne	r2,zero,801c38 <___vfprintf_internal_r+0x6e0>
  802eac:	dc800e17 	ldw	r18,56(sp)
  802eb0:	d9000517 	ldw	r4,20(sp)
  802eb4:	d8c01904 	addi	r3,sp,100
  802eb8:	003f2e06 	br	802b74 <___vfprintf_internal_r+0x161c>
  802ebc:	d8c14c17 	ldw	r3,1328(sp)
  802ec0:	1880100c 	andi	r2,r3,64
  802ec4:	1000a026 	beq	r2,zero,803148 <___vfprintf_internal_r+0x1bf0>
  802ec8:	38800017 	ldw	r2,0(r7)
  802ecc:	39c00104 	addi	r7,r7,4
  802ed0:	d9c14015 	stw	r7,1280(sp)
  802ed4:	d9014b17 	ldw	r4,1324(sp)
  802ed8:	d9c14017 	ldw	r7,1280(sp)
  802edc:	1100000d 	sth	r4,0(r2)
  802ee0:	0039f906 	br	8016c8 <___vfprintf_internal_r+0x170>
  802ee4:	d9014f17 	ldw	r4,1340(sp)
  802ee8:	b00b883a 	mov	r5,r22
  802eec:	d9800c04 	addi	r6,sp,48
  802ef0:	08015000 	call	801500 <__sprint_r>
  802ef4:	103b501e 	bne	r2,zero,801c38 <___vfprintf_internal_r+0x6e0>
  802ef8:	dc800e17 	ldw	r18,56(sp)
  802efc:	dc400d17 	ldw	r17,52(sp)
  802f00:	d9000517 	ldw	r4,20(sp)
  802f04:	d8c01904 	addi	r3,sp,100
  802f08:	003f2d06 	br	802bc0 <___vfprintf_internal_r+0x1668>
  802f0c:	00800184 	movi	r2,6
  802f10:	14c09a36 	bltu	r2,r19,80317c <___vfprintf_internal_r+0x1c24>
  802f14:	dcc14515 	stw	r19,1300(sp)
  802f18:	9800010e 	bge	r19,zero,802f20 <___vfprintf_internal_r+0x19c8>
  802f1c:	d8014515 	stw	zero,1300(sp)
  802f20:	00802074 	movhi	r2,129
  802f24:	10bed204 	addi	r2,r2,-1208
  802f28:	980f883a 	mov	r7,r19
  802f2c:	d8814115 	stw	r2,1284(sp)
  802f30:	003a7806 	br	801914 <___vfprintf_internal_r+0x3bc>
  802f34:	00bfffc4 	movi	r2,-1
  802f38:	9880e226 	beq	r19,r2,8032c4 <___vfprintf_internal_r+0x1d6c>
  802f3c:	d9414d17 	ldw	r5,1332(sp)
  802f40:	008019c4 	movi	r2,103
  802f44:	2880dc26 	beq	r5,r2,8032b8 <___vfprintf_internal_r+0x1d60>
  802f48:	008011c4 	movi	r2,71
  802f4c:	2880da26 	beq	r5,r2,8032b8 <___vfprintf_internal_r+0x1d60>
  802f50:	d9414c17 	ldw	r5,1328(sp)
  802f54:	d9014317 	ldw	r4,1292(sp)
  802f58:	d9814217 	ldw	r6,1288(sp)
  802f5c:	29404014 	ori	r5,r5,256
  802f60:	d9414c15 	stw	r5,1328(sp)
  802f64:	2000cc16 	blt	r4,zero,803298 <___vfprintf_internal_r+0x1d40>
  802f68:	3021883a 	mov	r16,r6
  802f6c:	2023883a 	mov	r17,r4
  802f70:	0039883a 	mov	fp,zero
  802f74:	d9414d17 	ldw	r5,1332(sp)
  802f78:	00801984 	movi	r2,102
  802f7c:	2880b726 	beq	r5,r2,80325c <___vfprintf_internal_r+0x1d04>
  802f80:	00801184 	movi	r2,70
  802f84:	2880b526 	beq	r5,r2,80325c <___vfprintf_internal_r+0x1d04>
  802f88:	00801944 	movi	r2,101
  802f8c:	2880c826 	beq	r5,r2,8032b0 <___vfprintf_internal_r+0x1d58>
  802f90:	00801144 	movi	r2,69
  802f94:	2880c626 	beq	r5,r2,8032b0 <___vfprintf_internal_r+0x1d58>
  802f98:	9829883a 	mov	r20,r19
  802f9c:	d9014f17 	ldw	r4,1340(sp)
  802fa0:	d8800504 	addi	r2,sp,20
  802fa4:	880d883a 	mov	r6,r17
  802fa8:	d8800115 	stw	r2,4(sp)
  802fac:	d8c00604 	addi	r3,sp,24
  802fb0:	d8800704 	addi	r2,sp,28
  802fb4:	800b883a 	mov	r5,r16
  802fb8:	01c00084 	movi	r7,2
  802fbc:	d8c00215 	stw	r3,8(sp)
  802fc0:	d8800315 	stw	r2,12(sp)
  802fc4:	dd000015 	stw	r20,0(sp)
  802fc8:	08039300 	call	803930 <_dtoa_r>
  802fcc:	d9814d17 	ldw	r6,1332(sp)
  802fd0:	d8814115 	stw	r2,1284(sp)
  802fd4:	008019c4 	movi	r2,103
  802fd8:	30809526 	beq	r6,r2,803230 <___vfprintf_internal_r+0x1cd8>
  802fdc:	d8c14d17 	ldw	r3,1332(sp)
  802fe0:	008011c4 	movi	r2,71
  802fe4:	18809226 	beq	r3,r2,803230 <___vfprintf_internal_r+0x1cd8>
  802fe8:	d9414117 	ldw	r5,1284(sp)
  802fec:	d9814d17 	ldw	r6,1332(sp)
  802ff0:	00801984 	movi	r2,102
  802ff4:	2d25883a 	add	r18,r5,r20
  802ff8:	30808626 	beq	r6,r2,803214 <___vfprintf_internal_r+0x1cbc>
  802ffc:	00801184 	movi	r2,70
  803000:	30808426 	beq	r6,r2,803214 <___vfprintf_internal_r+0x1cbc>
  803004:	000d883a 	mov	r6,zero
  803008:	000f883a 	mov	r7,zero
  80300c:	880b883a 	mov	r5,r17
  803010:	8009883a 	mov	r4,r16
  803014:	080a2800 	call	80a280 <__eqdf2>
  803018:	1000751e 	bne	r2,zero,8031f0 <___vfprintf_internal_r+0x1c98>
  80301c:	9005883a 	mov	r2,r18
  803020:	dc800715 	stw	r18,28(sp)
  803024:	d9014117 	ldw	r4,1284(sp)
  803028:	d9414d17 	ldw	r5,1332(sp)
  80302c:	00c019c4 	movi	r3,103
  803030:	1125c83a 	sub	r18,r2,r4
  803034:	28c06826 	beq	r5,r3,8031d8 <___vfprintf_internal_r+0x1c80>
  803038:	008011c4 	movi	r2,71
  80303c:	28806626 	beq	r5,r2,8031d8 <___vfprintf_internal_r+0x1c80>
  803040:	d9000517 	ldw	r4,20(sp)
  803044:	d8c14d17 	ldw	r3,1332(sp)
  803048:	00801944 	movi	r2,101
  80304c:	10c05516 	blt	r2,r3,8031a4 <___vfprintf_internal_r+0x1c4c>
  803050:	213fffc4 	addi	r4,r4,-1
  803054:	d9000515 	stw	r4,20(sp)
  803058:	d8c00805 	stb	r3,32(sp)
  80305c:	2021883a 	mov	r16,r4
  803060:	2000c116 	blt	r4,zero,803368 <___vfprintf_internal_r+0x1e10>
  803064:	00800ac4 	movi	r2,43
  803068:	d8800845 	stb	r2,33(sp)
  80306c:	00800244 	movi	r2,9
  803070:	1400af0e 	bge	r2,r16,803330 <___vfprintf_internal_r+0x1dd8>
  803074:	1027883a 	mov	r19,r2
  803078:	dc400b84 	addi	r17,sp,46
  80307c:	8009883a 	mov	r4,r16
  803080:	01400284 	movi	r5,10
  803084:	080a9680 	call	80a968 <__modsi3>
  803088:	10800c04 	addi	r2,r2,48
  80308c:	8c7fffc4 	addi	r17,r17,-1
  803090:	8009883a 	mov	r4,r16
  803094:	01400284 	movi	r5,10
  803098:	88800005 	stb	r2,0(r17)
  80309c:	080a9080 	call	80a908 <__divsi3>
  8030a0:	1021883a 	mov	r16,r2
  8030a4:	98bff516 	blt	r19,r2,80307c <___vfprintf_internal_r+0x1b24>
  8030a8:	10c00c04 	addi	r3,r2,48
  8030ac:	d88009c4 	addi	r2,sp,39
  8030b0:	108001c4 	addi	r2,r2,7
  8030b4:	897fffc4 	addi	r5,r17,-1
  8030b8:	88ffffc5 	stb	r3,-1(r17)
  8030bc:	2880a72e 	bgeu	r5,r2,80335c <___vfprintf_internal_r+0x1e04>
  8030c0:	1009883a 	mov	r4,r2
  8030c4:	d9800804 	addi	r6,sp,32
  8030c8:	d8c00884 	addi	r3,sp,34
  8030cc:	28800003 	ldbu	r2,0(r5)
  8030d0:	29400044 	addi	r5,r5,1
  8030d4:	18800005 	stb	r2,0(r3)
  8030d8:	18c00044 	addi	r3,r3,1
  8030dc:	293ffb36 	bltu	r5,r4,8030cc <___vfprintf_internal_r+0x1b74>
  8030e0:	1987c83a 	sub	r3,r3,r6
  8030e4:	00800044 	movi	r2,1
  8030e8:	d8c14815 	stw	r3,1312(sp)
  8030ec:	90cf883a 	add	r7,r18,r3
  8030f0:	1480960e 	bge	r2,r18,80334c <___vfprintf_internal_r+0x1df4>
  8030f4:	39c00044 	addi	r7,r7,1
  8030f8:	d9c14515 	stw	r7,1300(sp)
  8030fc:	38003416 	blt	r7,zero,8031d0 <___vfprintf_internal_r+0x1c78>
  803100:	e0803fcc 	andi	r2,fp,255
  803104:	1080201c 	xori	r2,r2,128
  803108:	10bfe004 	addi	r2,r2,-128
  80310c:	10004e26 	beq	r2,zero,803248 <___vfprintf_internal_r+0x1cf0>
  803110:	00800b44 	movi	r2,45
  803114:	dc814715 	stw	r18,1308(sp)
  803118:	d8014615 	stw	zero,1304(sp)
  80311c:	d8800405 	stb	r2,16(sp)
  803120:	003bb106 	br	801fe8 <___vfprintf_internal_r+0xa90>
  803124:	00800b44 	movi	r2,45
  803128:	d8800405 	stb	r2,16(sp)
  80312c:	003d3306 	br	8025fc <___vfprintf_internal_r+0x10a4>
  803130:	d9014f17 	ldw	r4,1340(sp)
  803134:	b00b883a 	mov	r5,r22
  803138:	d9800c04 	addi	r6,sp,48
  80313c:	08015000 	call	801500 <__sprint_r>
  803140:	103abd1e 	bne	r2,zero,801c38 <___vfprintf_internal_r+0x6e0>
  803144:	003abb06 	br	801c34 <___vfprintf_internal_r+0x6dc>
  803148:	38800017 	ldw	r2,0(r7)
  80314c:	39c00104 	addi	r7,r7,4
  803150:	d9c14015 	stw	r7,1280(sp)
  803154:	d9414b17 	ldw	r5,1324(sp)
  803158:	d9c14017 	ldw	r7,1280(sp)
  80315c:	11400015 	stw	r5,0(r2)
  803160:	00395906 	br	8016c8 <___vfprintf_internal_r+0x170>
  803164:	980f883a 	mov	r7,r19
  803168:	dcc14515 	stw	r19,1300(sp)
  80316c:	d8014615 	stw	zero,1304(sp)
  803170:	003b9b06 	br	801fe0 <___vfprintf_internal_r+0xa88>
  803174:	0027883a 	mov	r19,zero
  803178:	00397806 	br	80175c <___vfprintf_internal_r+0x204>
  80317c:	00c02074 	movhi	r3,129
  803180:	18fed204 	addi	r3,r3,-1208
  803184:	100f883a 	mov	r7,r2
  803188:	d8814515 	stw	r2,1300(sp)
  80318c:	d8c14115 	stw	r3,1284(sp)
  803190:	0039e006 	br	801914 <___vfprintf_internal_r+0x3bc>
  803194:	00802074 	movhi	r2,129
  803198:	10bed104 	addi	r2,r2,-1212
  80319c:	d8814115 	stw	r2,1284(sp)
  8031a0:	003d1c06 	br	802614 <___vfprintf_internal_r+0x10bc>
  8031a4:	d9414d17 	ldw	r5,1332(sp)
  8031a8:	00801984 	movi	r2,102
  8031ac:	28804926 	beq	r5,r2,8032d4 <___vfprintf_internal_r+0x1d7c>
  8031b0:	200f883a 	mov	r7,r4
  8031b4:	24805716 	blt	r4,r18,803314 <___vfprintf_internal_r+0x1dbc>
  8031b8:	d9414c17 	ldw	r5,1328(sp)
  8031bc:	2880004c 	andi	r2,r5,1
  8031c0:	10000126 	beq	r2,zero,8031c8 <___vfprintf_internal_r+0x1c70>
  8031c4:	21c00044 	addi	r7,r4,1
  8031c8:	d9c14515 	stw	r7,1300(sp)
  8031cc:	383fcc0e 	bge	r7,zero,803100 <___vfprintf_internal_r+0x1ba8>
  8031d0:	d8014515 	stw	zero,1300(sp)
  8031d4:	003fca06 	br	803100 <___vfprintf_internal_r+0x1ba8>
  8031d8:	d9000517 	ldw	r4,20(sp)
  8031dc:	00bfff04 	movi	r2,-4
  8031e0:	1100480e 	bge	r2,r4,803304 <___vfprintf_internal_r+0x1dac>
  8031e4:	99004716 	blt	r19,r4,803304 <___vfprintf_internal_r+0x1dac>
  8031e8:	d8c14d15 	stw	r3,1332(sp)
  8031ec:	003ff006 	br	8031b0 <___vfprintf_internal_r+0x1c58>
  8031f0:	d8800717 	ldw	r2,28(sp)
  8031f4:	14bf8b2e 	bgeu	r2,r18,803024 <___vfprintf_internal_r+0x1acc>
  8031f8:	9007883a 	mov	r3,r18
  8031fc:	01000c04 	movi	r4,48
  803200:	11000005 	stb	r4,0(r2)
  803204:	10800044 	addi	r2,r2,1
  803208:	d8800715 	stw	r2,28(sp)
  80320c:	18bffc1e 	bne	r3,r2,803200 <___vfprintf_internal_r+0x1ca8>
  803210:	003f8406 	br	803024 <___vfprintf_internal_r+0x1acc>
  803214:	d8814117 	ldw	r2,1284(sp)
  803218:	10c00007 	ldb	r3,0(r2)
  80321c:	00800c04 	movi	r2,48
  803220:	18805b26 	beq	r3,r2,803390 <___vfprintf_internal_r+0x1e38>
  803224:	d9000517 	ldw	r4,20(sp)
  803228:	9125883a 	add	r18,r18,r4
  80322c:	003f7506 	br	803004 <___vfprintf_internal_r+0x1aac>
  803230:	d9014c17 	ldw	r4,1328(sp)
  803234:	2080004c 	andi	r2,r4,1
  803238:	1005003a 	cmpeq	r2,r2,zero
  80323c:	103f6a26 	beq	r2,zero,802fe8 <___vfprintf_internal_r+0x1a90>
  803240:	d8800717 	ldw	r2,28(sp)
  803244:	003f7706 	br	803024 <___vfprintf_internal_r+0x1acc>
  803248:	d9c14515 	stw	r7,1300(sp)
  80324c:	38004d16 	blt	r7,zero,803384 <___vfprintf_internal_r+0x1e2c>
  803250:	dc814715 	stw	r18,1308(sp)
  803254:	d8014615 	stw	zero,1304(sp)
  803258:	003b6106 	br	801fe0 <___vfprintf_internal_r+0xa88>
  80325c:	d9014f17 	ldw	r4,1340(sp)
  803260:	d8800504 	addi	r2,sp,20
  803264:	d8800115 	stw	r2,4(sp)
  803268:	d8c00604 	addi	r3,sp,24
  80326c:	d8800704 	addi	r2,sp,28
  803270:	800b883a 	mov	r5,r16
  803274:	880d883a 	mov	r6,r17
  803278:	01c000c4 	movi	r7,3
  80327c:	d8c00215 	stw	r3,8(sp)
  803280:	d8800315 	stw	r2,12(sp)
  803284:	dcc00015 	stw	r19,0(sp)
  803288:	9829883a 	mov	r20,r19
  80328c:	08039300 	call	803930 <_dtoa_r>
  803290:	d8814115 	stw	r2,1284(sp)
  803294:	003f5106 	br	802fdc <___vfprintf_internal_r+0x1a84>
  803298:	d8c14217 	ldw	r3,1288(sp)
  80329c:	d9014317 	ldw	r4,1292(sp)
  8032a0:	07000b44 	movi	fp,45
  8032a4:	1821883a 	mov	r16,r3
  8032a8:	2460003c 	xorhi	r17,r4,32768
  8032ac:	003f3106 	br	802f74 <___vfprintf_internal_r+0x1a1c>
  8032b0:	9d000044 	addi	r20,r19,1
  8032b4:	003f3906 	br	802f9c <___vfprintf_internal_r+0x1a44>
  8032b8:	983f251e 	bne	r19,zero,802f50 <___vfprintf_internal_r+0x19f8>
  8032bc:	04c00044 	movi	r19,1
  8032c0:	003f2306 	br	802f50 <___vfprintf_internal_r+0x19f8>
  8032c4:	04c00184 	movi	r19,6
  8032c8:	003f2106 	br	802f50 <___vfprintf_internal_r+0x19f8>
  8032cc:	d8014515 	stw	zero,1300(sp)
  8032d0:	003eee06 	br	802e8c <___vfprintf_internal_r+0x1934>
  8032d4:	200f883a 	mov	r7,r4
  8032d8:	0100370e 	bge	zero,r4,8033b8 <___vfprintf_internal_r+0x1e60>
  8032dc:	9800031e 	bne	r19,zero,8032ec <___vfprintf_internal_r+0x1d94>
  8032e0:	d9814c17 	ldw	r6,1328(sp)
  8032e4:	3080004c 	andi	r2,r6,1
  8032e8:	103fb726 	beq	r2,zero,8031c8 <___vfprintf_internal_r+0x1c70>
  8032ec:	20800044 	addi	r2,r4,1
  8032f0:	98a7883a 	add	r19,r19,r2
  8032f4:	dcc14515 	stw	r19,1300(sp)
  8032f8:	980f883a 	mov	r7,r19
  8032fc:	983f800e 	bge	r19,zero,803100 <___vfprintf_internal_r+0x1ba8>
  803300:	003fb306 	br	8031d0 <___vfprintf_internal_r+0x1c78>
  803304:	d9814d17 	ldw	r6,1332(sp)
  803308:	31bfff84 	addi	r6,r6,-2
  80330c:	d9814d15 	stw	r6,1332(sp)
  803310:	003f4c06 	br	803044 <___vfprintf_internal_r+0x1aec>
  803314:	0100180e 	bge	zero,r4,803378 <___vfprintf_internal_r+0x1e20>
  803318:	00800044 	movi	r2,1
  80331c:	1485883a 	add	r2,r2,r18
  803320:	d8814515 	stw	r2,1300(sp)
  803324:	100f883a 	mov	r7,r2
  803328:	103f750e 	bge	r2,zero,803100 <___vfprintf_internal_r+0x1ba8>
  80332c:	003fa806 	br	8031d0 <___vfprintf_internal_r+0x1c78>
  803330:	80c00c04 	addi	r3,r16,48
  803334:	00800c04 	movi	r2,48
  803338:	d8c008c5 	stb	r3,35(sp)
  80333c:	d9800804 	addi	r6,sp,32
  803340:	d8c00904 	addi	r3,sp,36
  803344:	d8800885 	stb	r2,34(sp)
  803348:	003f6506 	br	8030e0 <___vfprintf_internal_r+0x1b88>
  80334c:	d9014c17 	ldw	r4,1328(sp)
  803350:	2084703a 	and	r2,r4,r2
  803354:	103f9c26 	beq	r2,zero,8031c8 <___vfprintf_internal_r+0x1c70>
  803358:	003f6606 	br	8030f4 <___vfprintf_internal_r+0x1b9c>
  80335c:	d9800804 	addi	r6,sp,32
  803360:	d8c00884 	addi	r3,sp,34
  803364:	003f5e06 	br	8030e0 <___vfprintf_internal_r+0x1b88>
  803368:	00800b44 	movi	r2,45
  80336c:	0121c83a 	sub	r16,zero,r4
  803370:	d8800845 	stb	r2,33(sp)
  803374:	003f3d06 	br	80306c <___vfprintf_internal_r+0x1b14>
  803378:	00800084 	movi	r2,2
  80337c:	1105c83a 	sub	r2,r2,r4
  803380:	003fe606 	br	80331c <___vfprintf_internal_r+0x1dc4>
  803384:	d8014515 	stw	zero,1300(sp)
  803388:	dc814715 	stw	r18,1308(sp)
  80338c:	003fb106 	br	803254 <___vfprintf_internal_r+0x1cfc>
  803390:	000d883a 	mov	r6,zero
  803394:	000f883a 	mov	r7,zero
  803398:	8009883a 	mov	r4,r16
  80339c:	880b883a 	mov	r5,r17
  8033a0:	080a3080 	call	80a308 <__nedf2>
  8033a4:	103f9f26 	beq	r2,zero,803224 <___vfprintf_internal_r+0x1ccc>
  8033a8:	00800044 	movi	r2,1
  8033ac:	1509c83a 	sub	r4,r2,r20
  8033b0:	d9000515 	stw	r4,20(sp)
  8033b4:	003f9b06 	br	803224 <___vfprintf_internal_r+0x1ccc>
  8033b8:	98000d1e 	bne	r19,zero,8033f0 <___vfprintf_internal_r+0x1e98>
  8033bc:	d8c14c17 	ldw	r3,1328(sp)
  8033c0:	1880004c 	andi	r2,r3,1
  8033c4:	10000a1e 	bne	r2,zero,8033f0 <___vfprintf_internal_r+0x1e98>
  8033c8:	01000044 	movi	r4,1
  8033cc:	200f883a 	mov	r7,r4
  8033d0:	d9014515 	stw	r4,1300(sp)
  8033d4:	003f4a06 	br	803100 <___vfprintf_internal_r+0x1ba8>
  8033d8:	3cc00017 	ldw	r19,0(r7)
  8033dc:	39c00104 	addi	r7,r7,4
  8033e0:	983d0e0e 	bge	r19,zero,80281c <___vfprintf_internal_r+0x12c4>
  8033e4:	b8c00007 	ldb	r3,0(r23)
  8033e8:	04ffffc4 	movi	r19,-1
  8033ec:	0038d906 	br	801754 <___vfprintf_internal_r+0x1fc>
  8033f0:	9cc00084 	addi	r19,r19,2
  8033f4:	dcc14515 	stw	r19,1300(sp)
  8033f8:	980f883a 	mov	r7,r19
  8033fc:	983f400e 	bge	r19,zero,803100 <___vfprintf_internal_r+0x1ba8>
  803400:	003f7306 	br	8031d0 <___vfprintf_internal_r+0x1c78>

00803404 <__vfprintf_internal>:
  803404:	00802074 	movhi	r2,129
  803408:	10870f04 	addi	r2,r2,7228
  80340c:	2013883a 	mov	r9,r4
  803410:	11000017 	ldw	r4,0(r2)
  803414:	2805883a 	mov	r2,r5
  803418:	300f883a 	mov	r7,r6
  80341c:	480b883a 	mov	r5,r9
  803420:	100d883a 	mov	r6,r2
  803424:	08015581 	jmpi	801558 <___vfprintf_internal_r>

00803428 <__swsetup_r>:
  803428:	00802074 	movhi	r2,129
  80342c:	10870f04 	addi	r2,r2,7228
  803430:	10c00017 	ldw	r3,0(r2)
  803434:	defffd04 	addi	sp,sp,-12
  803438:	dc400115 	stw	r17,4(sp)
  80343c:	dc000015 	stw	r16,0(sp)
  803440:	dfc00215 	stw	ra,8(sp)
  803444:	2023883a 	mov	r17,r4
  803448:	2821883a 	mov	r16,r5
  80344c:	18000226 	beq	r3,zero,803458 <__swsetup_r+0x30>
  803450:	18800e17 	ldw	r2,56(r3)
  803454:	10001f26 	beq	r2,zero,8034d4 <__swsetup_r+0xac>
  803458:	8100030b 	ldhu	r4,12(r16)
  80345c:	2080020c 	andi	r2,r4,8
  803460:	10002826 	beq	r2,zero,803504 <__swsetup_r+0xdc>
  803464:	81400417 	ldw	r5,16(r16)
  803468:	28001d26 	beq	r5,zero,8034e0 <__swsetup_r+0xb8>
  80346c:	2080004c 	andi	r2,r4,1
  803470:	1005003a 	cmpeq	r2,r2,zero
  803474:	10000b26 	beq	r2,zero,8034a4 <__swsetup_r+0x7c>
  803478:	2080008c 	andi	r2,r4,2
  80347c:	10001226 	beq	r2,zero,8034c8 <__swsetup_r+0xa0>
  803480:	0005883a 	mov	r2,zero
  803484:	80800215 	stw	r2,8(r16)
  803488:	28000b26 	beq	r5,zero,8034b8 <__swsetup_r+0x90>
  80348c:	0005883a 	mov	r2,zero
  803490:	dfc00217 	ldw	ra,8(sp)
  803494:	dc400117 	ldw	r17,4(sp)
  803498:	dc000017 	ldw	r16,0(sp)
  80349c:	dec00304 	addi	sp,sp,12
  8034a0:	f800283a 	ret
  8034a4:	80800517 	ldw	r2,20(r16)
  8034a8:	80000215 	stw	zero,8(r16)
  8034ac:	0085c83a 	sub	r2,zero,r2
  8034b0:	80800615 	stw	r2,24(r16)
  8034b4:	283ff51e 	bne	r5,zero,80348c <__swsetup_r+0x64>
  8034b8:	2080200c 	andi	r2,r4,128
  8034bc:	103ff326 	beq	r2,zero,80348c <__swsetup_r+0x64>
  8034c0:	00bfffc4 	movi	r2,-1
  8034c4:	003ff206 	br	803490 <__swsetup_r+0x68>
  8034c8:	80800517 	ldw	r2,20(r16)
  8034cc:	80800215 	stw	r2,8(r16)
  8034d0:	003fed06 	br	803488 <__swsetup_r+0x60>
  8034d4:	1809883a 	mov	r4,r3
  8034d8:	080517c0 	call	80517c <__sinit>
  8034dc:	003fde06 	br	803458 <__swsetup_r+0x30>
  8034e0:	20c0a00c 	andi	r3,r4,640
  8034e4:	00808004 	movi	r2,512
  8034e8:	18bfe026 	beq	r3,r2,80346c <__swsetup_r+0x44>
  8034ec:	8809883a 	mov	r4,r17
  8034f0:	800b883a 	mov	r5,r16
  8034f4:	0805ef40 	call	805ef4 <__smakebuf_r>
  8034f8:	8100030b 	ldhu	r4,12(r16)
  8034fc:	81400417 	ldw	r5,16(r16)
  803500:	003fda06 	br	80346c <__swsetup_r+0x44>
  803504:	2080040c 	andi	r2,r4,16
  803508:	103fed26 	beq	r2,zero,8034c0 <__swsetup_r+0x98>
  80350c:	2080010c 	andi	r2,r4,4
  803510:	10001226 	beq	r2,zero,80355c <__swsetup_r+0x134>
  803514:	81400c17 	ldw	r5,48(r16)
  803518:	28000526 	beq	r5,zero,803530 <__swsetup_r+0x108>
  80351c:	80801004 	addi	r2,r16,64
  803520:	28800226 	beq	r5,r2,80352c <__swsetup_r+0x104>
  803524:	8809883a 	mov	r4,r17
  803528:	08055000 	call	805500 <_free_r>
  80352c:	80000c15 	stw	zero,48(r16)
  803530:	8080030b 	ldhu	r2,12(r16)
  803534:	81400417 	ldw	r5,16(r16)
  803538:	80000115 	stw	zero,4(r16)
  80353c:	10bff6cc 	andi	r2,r2,65499
  803540:	8080030d 	sth	r2,12(r16)
  803544:	81400015 	stw	r5,0(r16)
  803548:	8080030b 	ldhu	r2,12(r16)
  80354c:	10800214 	ori	r2,r2,8
  803550:	113fffcc 	andi	r4,r2,65535
  803554:	8080030d 	sth	r2,12(r16)
  803558:	003fc306 	br	803468 <__swsetup_r+0x40>
  80355c:	81400417 	ldw	r5,16(r16)
  803560:	003ff906 	br	803548 <__swsetup_r+0x120>

00803564 <register_fini>:
  803564:	f800283a 	ret

00803568 <__call_exitprocs>:
  803568:	00802074 	movhi	r2,129
  80356c:	10871004 	addi	r2,r2,7232
  803570:	10800017 	ldw	r2,0(r2)
  803574:	defff304 	addi	sp,sp,-52
  803578:	df000b15 	stw	fp,44(sp)
  80357c:	d8800115 	stw	r2,4(sp)
  803580:	00800034 	movhi	r2,0
  803584:	10800004 	addi	r2,r2,0
  803588:	1005003a 	cmpeq	r2,r2,zero
  80358c:	d8800215 	stw	r2,8(sp)
  803590:	d8800117 	ldw	r2,4(sp)
  803594:	dd400815 	stw	r21,32(sp)
  803598:	dd000715 	stw	r20,28(sp)
  80359c:	10805204 	addi	r2,r2,328
  8035a0:	dfc00c15 	stw	ra,48(sp)
  8035a4:	ddc00a15 	stw	r23,40(sp)
  8035a8:	dd800915 	stw	r22,36(sp)
  8035ac:	dcc00615 	stw	r19,24(sp)
  8035b0:	dc800515 	stw	r18,20(sp)
  8035b4:	dc400415 	stw	r17,16(sp)
  8035b8:	dc000315 	stw	r16,12(sp)
  8035bc:	282b883a 	mov	r21,r5
  8035c0:	2039883a 	mov	fp,r4
  8035c4:	d8800015 	stw	r2,0(sp)
  8035c8:	2829003a 	cmpeq	r20,r5,zero
  8035cc:	d8800117 	ldw	r2,4(sp)
  8035d0:	14405217 	ldw	r17,328(r2)
  8035d4:	88001026 	beq	r17,zero,803618 <__call_exitprocs+0xb0>
  8035d8:	ddc00017 	ldw	r23,0(sp)
  8035dc:	88800117 	ldw	r2,4(r17)
  8035e0:	8c802204 	addi	r18,r17,136
  8035e4:	143fffc4 	addi	r16,r2,-1
  8035e8:	80000916 	blt	r16,zero,803610 <__call_exitprocs+0xa8>
  8035ec:	05bfffc4 	movi	r22,-1
  8035f0:	a000151e 	bne	r20,zero,803648 <__call_exitprocs+0xe0>
  8035f4:	8409883a 	add	r4,r16,r16
  8035f8:	2105883a 	add	r2,r4,r4
  8035fc:	1485883a 	add	r2,r2,r18
  803600:	10c02017 	ldw	r3,128(r2)
  803604:	a8c01126 	beq	r21,r3,80364c <__call_exitprocs+0xe4>
  803608:	843fffc4 	addi	r16,r16,-1
  80360c:	85bff81e 	bne	r16,r22,8035f0 <__call_exitprocs+0x88>
  803610:	d8800217 	ldw	r2,8(sp)
  803614:	10003126 	beq	r2,zero,8036dc <__call_exitprocs+0x174>
  803618:	dfc00c17 	ldw	ra,48(sp)
  80361c:	df000b17 	ldw	fp,44(sp)
  803620:	ddc00a17 	ldw	r23,40(sp)
  803624:	dd800917 	ldw	r22,36(sp)
  803628:	dd400817 	ldw	r21,32(sp)
  80362c:	dd000717 	ldw	r20,28(sp)
  803630:	dcc00617 	ldw	r19,24(sp)
  803634:	dc800517 	ldw	r18,20(sp)
  803638:	dc400417 	ldw	r17,16(sp)
  80363c:	dc000317 	ldw	r16,12(sp)
  803640:	dec00d04 	addi	sp,sp,52
  803644:	f800283a 	ret
  803648:	8409883a 	add	r4,r16,r16
  80364c:	88c00117 	ldw	r3,4(r17)
  803650:	2105883a 	add	r2,r4,r4
  803654:	1445883a 	add	r2,r2,r17
  803658:	18ffffc4 	addi	r3,r3,-1
  80365c:	11800217 	ldw	r6,8(r2)
  803660:	1c001526 	beq	r3,r16,8036b8 <__call_exitprocs+0x150>
  803664:	10000215 	stw	zero,8(r2)
  803668:	303fe726 	beq	r6,zero,803608 <__call_exitprocs+0xa0>
  80366c:	00c00044 	movi	r3,1
  803670:	1c06983a 	sll	r3,r3,r16
  803674:	90804017 	ldw	r2,256(r18)
  803678:	8cc00117 	ldw	r19,4(r17)
  80367c:	1884703a 	and	r2,r3,r2
  803680:	10001426 	beq	r2,zero,8036d4 <__call_exitprocs+0x16c>
  803684:	90804117 	ldw	r2,260(r18)
  803688:	1884703a 	and	r2,r3,r2
  80368c:	10000c1e 	bne	r2,zero,8036c0 <__call_exitprocs+0x158>
  803690:	2105883a 	add	r2,r4,r4
  803694:	1485883a 	add	r2,r2,r18
  803698:	11400017 	ldw	r5,0(r2)
  80369c:	e009883a 	mov	r4,fp
  8036a0:	303ee83a 	callr	r6
  8036a4:	88800117 	ldw	r2,4(r17)
  8036a8:	98bfc81e 	bne	r19,r2,8035cc <__call_exitprocs+0x64>
  8036ac:	b8800017 	ldw	r2,0(r23)
  8036b0:	147fd526 	beq	r2,r17,803608 <__call_exitprocs+0xa0>
  8036b4:	003fc506 	br	8035cc <__call_exitprocs+0x64>
  8036b8:	8c000115 	stw	r16,4(r17)
  8036bc:	003fea06 	br	803668 <__call_exitprocs+0x100>
  8036c0:	2105883a 	add	r2,r4,r4
  8036c4:	1485883a 	add	r2,r2,r18
  8036c8:	11000017 	ldw	r4,0(r2)
  8036cc:	303ee83a 	callr	r6
  8036d0:	003ff406 	br	8036a4 <__call_exitprocs+0x13c>
  8036d4:	303ee83a 	callr	r6
  8036d8:	003ff206 	br	8036a4 <__call_exitprocs+0x13c>
  8036dc:	88800117 	ldw	r2,4(r17)
  8036e0:	1000081e 	bne	r2,zero,803704 <__call_exitprocs+0x19c>
  8036e4:	89000017 	ldw	r4,0(r17)
  8036e8:	20000726 	beq	r4,zero,803708 <__call_exitprocs+0x1a0>
  8036ec:	b9000015 	stw	r4,0(r23)
  8036f0:	8809883a 	mov	r4,r17
  8036f4:	00000000 	call	0 <__alt_mem_sdram_0-0x800000>
  8036f8:	bc400017 	ldw	r17,0(r23)
  8036fc:	883fb71e 	bne	r17,zero,8035dc <__call_exitprocs+0x74>
  803700:	003fc506 	br	803618 <__call_exitprocs+0xb0>
  803704:	89000017 	ldw	r4,0(r17)
  803708:	882f883a 	mov	r23,r17
  80370c:	2023883a 	mov	r17,r4
  803710:	883fb21e 	bne	r17,zero,8035dc <__call_exitprocs+0x74>
  803714:	003fc006 	br	803618 <__call_exitprocs+0xb0>

00803718 <quorem>:
  803718:	28c00417 	ldw	r3,16(r5)
  80371c:	20800417 	ldw	r2,16(r4)
  803720:	defff604 	addi	sp,sp,-40
  803724:	ddc00715 	stw	r23,28(sp)
  803728:	dd400515 	stw	r21,20(sp)
  80372c:	dfc00915 	stw	ra,36(sp)
  803730:	df000815 	stw	fp,32(sp)
  803734:	dd800615 	stw	r22,24(sp)
  803738:	dd000415 	stw	r20,16(sp)
  80373c:	dcc00315 	stw	r19,12(sp)
  803740:	dc800215 	stw	r18,8(sp)
  803744:	dc400115 	stw	r17,4(sp)
  803748:	dc000015 	stw	r16,0(sp)
  80374c:	202f883a 	mov	r23,r4
  803750:	282b883a 	mov	r21,r5
  803754:	10c07416 	blt	r2,r3,803928 <quorem+0x210>
  803758:	1c7fffc4 	addi	r17,r3,-1
  80375c:	8c45883a 	add	r2,r17,r17
  803760:	1085883a 	add	r2,r2,r2
  803764:	2c000504 	addi	r16,r5,20
  803768:	24c00504 	addi	r19,r4,20
  80376c:	14ed883a 	add	r22,r2,r19
  803770:	80a5883a 	add	r18,r16,r2
  803774:	b7000017 	ldw	fp,0(r22)
  803778:	91400017 	ldw	r5,0(r18)
  80377c:	e009883a 	mov	r4,fp
  803780:	29400044 	addi	r5,r5,1
  803784:	080a9c80 	call	80a9c8 <__udivsi3>
  803788:	1029883a 	mov	r20,r2
  80378c:	10003c1e 	bne	r2,zero,803880 <quorem+0x168>
  803790:	a80b883a 	mov	r5,r21
  803794:	b809883a 	mov	r4,r23
  803798:	0806c200 	call	806c20 <__mcmp>
  80379c:	10002b16 	blt	r2,zero,80384c <quorem+0x134>
  8037a0:	a5000044 	addi	r20,r20,1
  8037a4:	980f883a 	mov	r7,r19
  8037a8:	0011883a 	mov	r8,zero
  8037ac:	0009883a 	mov	r4,zero
  8037b0:	81400017 	ldw	r5,0(r16)
  8037b4:	38c00017 	ldw	r3,0(r7)
  8037b8:	84000104 	addi	r16,r16,4
  8037bc:	28bfffcc 	andi	r2,r5,65535
  8037c0:	2085883a 	add	r2,r4,r2
  8037c4:	11bfffcc 	andi	r6,r2,65535
  8037c8:	193fffcc 	andi	r4,r3,65535
  8037cc:	1004d43a 	srli	r2,r2,16
  8037d0:	280ad43a 	srli	r5,r5,16
  8037d4:	2189c83a 	sub	r4,r4,r6
  8037d8:	2209883a 	add	r4,r4,r8
  8037dc:	1806d43a 	srli	r3,r3,16
  8037e0:	288b883a 	add	r5,r5,r2
  8037e4:	200dd43a 	srai	r6,r4,16
  8037e8:	28bfffcc 	andi	r2,r5,65535
  8037ec:	1887c83a 	sub	r3,r3,r2
  8037f0:	1987883a 	add	r3,r3,r6
  8037f4:	3900000d 	sth	r4,0(r7)
  8037f8:	38c0008d 	sth	r3,2(r7)
  8037fc:	2808d43a 	srli	r4,r5,16
  803800:	39c00104 	addi	r7,r7,4
  803804:	1811d43a 	srai	r8,r3,16
  803808:	943fe92e 	bgeu	r18,r16,8037b0 <quorem+0x98>
  80380c:	8c45883a 	add	r2,r17,r17
  803810:	1085883a 	add	r2,r2,r2
  803814:	9885883a 	add	r2,r19,r2
  803818:	10c00017 	ldw	r3,0(r2)
  80381c:	18000b1e 	bne	r3,zero,80384c <quorem+0x134>
  803820:	113fff04 	addi	r4,r2,-4
  803824:	9900082e 	bgeu	r19,r4,803848 <quorem+0x130>
  803828:	10bfff17 	ldw	r2,-4(r2)
  80382c:	10000326 	beq	r2,zero,80383c <quorem+0x124>
  803830:	00000506 	br	803848 <quorem+0x130>
  803834:	20800017 	ldw	r2,0(r4)
  803838:	1000031e 	bne	r2,zero,803848 <quorem+0x130>
  80383c:	213fff04 	addi	r4,r4,-4
  803840:	8c7fffc4 	addi	r17,r17,-1
  803844:	993ffb36 	bltu	r19,r4,803834 <quorem+0x11c>
  803848:	bc400415 	stw	r17,16(r23)
  80384c:	a005883a 	mov	r2,r20
  803850:	dfc00917 	ldw	ra,36(sp)
  803854:	df000817 	ldw	fp,32(sp)
  803858:	ddc00717 	ldw	r23,28(sp)
  80385c:	dd800617 	ldw	r22,24(sp)
  803860:	dd400517 	ldw	r21,20(sp)
  803864:	dd000417 	ldw	r20,16(sp)
  803868:	dcc00317 	ldw	r19,12(sp)
  80386c:	dc800217 	ldw	r18,8(sp)
  803870:	dc400117 	ldw	r17,4(sp)
  803874:	dc000017 	ldw	r16,0(sp)
  803878:	dec00a04 	addi	sp,sp,40
  80387c:	f800283a 	ret
  803880:	980f883a 	mov	r7,r19
  803884:	8011883a 	mov	r8,r16
  803888:	0013883a 	mov	r9,zero
  80388c:	000d883a 	mov	r6,zero
  803890:	40c00017 	ldw	r3,0(r8)
  803894:	39000017 	ldw	r4,0(r7)
  803898:	42000104 	addi	r8,r8,4
  80389c:	18bfffcc 	andi	r2,r3,65535
  8038a0:	a085383a 	mul	r2,r20,r2
  8038a4:	1806d43a 	srli	r3,r3,16
  8038a8:	217fffcc 	andi	r5,r4,65535
  8038ac:	3085883a 	add	r2,r6,r2
  8038b0:	11bfffcc 	andi	r6,r2,65535
  8038b4:	a0c7383a 	mul	r3,r20,r3
  8038b8:	1004d43a 	srli	r2,r2,16
  8038bc:	298bc83a 	sub	r5,r5,r6
  8038c0:	2a4b883a 	add	r5,r5,r9
  8038c4:	2008d43a 	srli	r4,r4,16
  8038c8:	1887883a 	add	r3,r3,r2
  8038cc:	280dd43a 	srai	r6,r5,16
  8038d0:	18bfffcc 	andi	r2,r3,65535
  8038d4:	2089c83a 	sub	r4,r4,r2
  8038d8:	2189883a 	add	r4,r4,r6
  8038dc:	3900008d 	sth	r4,2(r7)
  8038e0:	3940000d 	sth	r5,0(r7)
  8038e4:	180cd43a 	srli	r6,r3,16
  8038e8:	39c00104 	addi	r7,r7,4
  8038ec:	2013d43a 	srai	r9,r4,16
  8038f0:	923fe72e 	bgeu	r18,r8,803890 <quorem+0x178>
  8038f4:	e03fa61e 	bne	fp,zero,803790 <quorem+0x78>
  8038f8:	b0ffff04 	addi	r3,r22,-4
  8038fc:	98c0082e 	bgeu	r19,r3,803920 <quorem+0x208>
  803900:	b0bfff17 	ldw	r2,-4(r22)
  803904:	10000326 	beq	r2,zero,803914 <quorem+0x1fc>
  803908:	00000506 	br	803920 <quorem+0x208>
  80390c:	18800017 	ldw	r2,0(r3)
  803910:	1000031e 	bne	r2,zero,803920 <quorem+0x208>
  803914:	18ffff04 	addi	r3,r3,-4
  803918:	8c7fffc4 	addi	r17,r17,-1
  80391c:	98fffb36 	bltu	r19,r3,80390c <quorem+0x1f4>
  803920:	bc400415 	stw	r17,16(r23)
  803924:	003f9a06 	br	803790 <quorem+0x78>
  803928:	0005883a 	mov	r2,zero
  80392c:	003fc806 	br	803850 <quorem+0x138>

00803930 <_dtoa_r>:
  803930:	22001017 	ldw	r8,64(r4)
  803934:	deffda04 	addi	sp,sp,-152
  803938:	dd402115 	stw	r21,132(sp)
  80393c:	dd002015 	stw	r20,128(sp)
  803940:	dc801e15 	stw	r18,120(sp)
  803944:	dc401d15 	stw	r17,116(sp)
  803948:	dfc02515 	stw	ra,148(sp)
  80394c:	df002415 	stw	fp,144(sp)
  803950:	ddc02315 	stw	r23,140(sp)
  803954:	dd802215 	stw	r22,136(sp)
  803958:	dcc01f15 	stw	r19,124(sp)
  80395c:	dc001c15 	stw	r16,112(sp)
  803960:	d9001615 	stw	r4,88(sp)
  803964:	3023883a 	mov	r17,r6
  803968:	2829883a 	mov	r20,r5
  80396c:	d9c01715 	stw	r7,92(sp)
  803970:	dc802817 	ldw	r18,160(sp)
  803974:	302b883a 	mov	r21,r6
  803978:	40000a26 	beq	r8,zero,8039a4 <_dtoa_r+0x74>
  80397c:	20801117 	ldw	r2,68(r4)
  803980:	400b883a 	mov	r5,r8
  803984:	40800115 	stw	r2,4(r8)
  803988:	20c01117 	ldw	r3,68(r4)
  80398c:	00800044 	movi	r2,1
  803990:	10c4983a 	sll	r2,r2,r3
  803994:	40800215 	stw	r2,8(r8)
  803998:	0806ac40 	call	806ac4 <_Bfree>
  80399c:	d8c01617 	ldw	r3,88(sp)
  8039a0:	18001015 	stw	zero,64(r3)
  8039a4:	8800a316 	blt	r17,zero,803c34 <_dtoa_r+0x304>
  8039a8:	90000015 	stw	zero,0(r18)
  8039ac:	a8dffc2c 	andhi	r3,r21,32752
  8039b0:	009ffc34 	movhi	r2,32752
  8039b4:	18809126 	beq	r3,r2,803bfc <_dtoa_r+0x2cc>
  8039b8:	000d883a 	mov	r6,zero
  8039bc:	000f883a 	mov	r7,zero
  8039c0:	a009883a 	mov	r4,r20
  8039c4:	a80b883a 	mov	r5,r21
  8039c8:	dd001215 	stw	r20,72(sp)
  8039cc:	dd401315 	stw	r21,76(sp)
  8039d0:	080a3080 	call	80a308 <__nedf2>
  8039d4:	1000171e 	bne	r2,zero,803a34 <_dtoa_r+0x104>
  8039d8:	d9802717 	ldw	r6,156(sp)
  8039dc:	00800044 	movi	r2,1
  8039e0:	30800015 	stw	r2,0(r6)
  8039e4:	d8802917 	ldw	r2,164(sp)
  8039e8:	10029b26 	beq	r2,zero,804458 <_dtoa_r+0xb28>
  8039ec:	d9002917 	ldw	r4,164(sp)
  8039f0:	00802074 	movhi	r2,129
  8039f4:	10beb844 	addi	r2,r2,-1311
  8039f8:	10ffffc4 	addi	r3,r2,-1
  8039fc:	20800015 	stw	r2,0(r4)
  803a00:	1805883a 	mov	r2,r3
  803a04:	dfc02517 	ldw	ra,148(sp)
  803a08:	df002417 	ldw	fp,144(sp)
  803a0c:	ddc02317 	ldw	r23,140(sp)
  803a10:	dd802217 	ldw	r22,136(sp)
  803a14:	dd402117 	ldw	r21,132(sp)
  803a18:	dd002017 	ldw	r20,128(sp)
  803a1c:	dcc01f17 	ldw	r19,124(sp)
  803a20:	dc801e17 	ldw	r18,120(sp)
  803a24:	dc401d17 	ldw	r17,116(sp)
  803a28:	dc001c17 	ldw	r16,112(sp)
  803a2c:	dec02604 	addi	sp,sp,152
  803a30:	f800283a 	ret
  803a34:	d9001617 	ldw	r4,88(sp)
  803a38:	d9401217 	ldw	r5,72(sp)
  803a3c:	d8800104 	addi	r2,sp,4
  803a40:	a80d883a 	mov	r6,r21
  803a44:	d9c00204 	addi	r7,sp,8
  803a48:	d8800015 	stw	r2,0(sp)
  803a4c:	08071000 	call	807100 <__d2b>
  803a50:	d8800715 	stw	r2,28(sp)
  803a54:	a804d53a 	srli	r2,r21,20
  803a58:	1101ffcc 	andi	r4,r2,2047
  803a5c:	20008626 	beq	r4,zero,803c78 <_dtoa_r+0x348>
  803a60:	d8c01217 	ldw	r3,72(sp)
  803a64:	00800434 	movhi	r2,16
  803a68:	10bfffc4 	addi	r2,r2,-1
  803a6c:	ddc00117 	ldw	r23,4(sp)
  803a70:	a884703a 	and	r2,r21,r2
  803a74:	1811883a 	mov	r8,r3
  803a78:	124ffc34 	orhi	r9,r2,16368
  803a7c:	25bf0044 	addi	r22,r4,-1023
  803a80:	d8000815 	stw	zero,32(sp)
  803a84:	0005883a 	mov	r2,zero
  803a88:	00cffe34 	movhi	r3,16376
  803a8c:	480b883a 	mov	r5,r9
  803a90:	4009883a 	mov	r4,r8
  803a94:	180f883a 	mov	r7,r3
  803a98:	100d883a 	mov	r6,r2
  803a9c:	0809b700 	call	809b70 <__subdf3>
  803aa0:	0218dbf4 	movhi	r8,25455
  803aa4:	4210d844 	addi	r8,r8,17249
  803aa8:	024ff4f4 	movhi	r9,16339
  803aac:	4a61e9c4 	addi	r9,r9,-30809
  803ab0:	480f883a 	mov	r7,r9
  803ab4:	400d883a 	mov	r6,r8
  803ab8:	180b883a 	mov	r5,r3
  803abc:	1009883a 	mov	r4,r2
  803ac0:	0809c640 	call	809c64 <__muldf3>
  803ac4:	0222d874 	movhi	r8,35681
  803ac8:	42322cc4 	addi	r8,r8,-14157
  803acc:	024ff1f4 	movhi	r9,16327
  803ad0:	4a628a04 	addi	r9,r9,-30168
  803ad4:	480f883a 	mov	r7,r9
  803ad8:	400d883a 	mov	r6,r8
  803adc:	180b883a 	mov	r5,r3
  803ae0:	1009883a 	mov	r4,r2
  803ae4:	0809bf00 	call	809bf0 <__adddf3>
  803ae8:	b009883a 	mov	r4,r22
  803aec:	1021883a 	mov	r16,r2
  803af0:	1823883a 	mov	r17,r3
  803af4:	080a5280 	call	80a528 <__floatsidf>
  803af8:	021427f4 	movhi	r8,20639
  803afc:	421e7ec4 	addi	r8,r8,31227
  803b00:	024ff4f4 	movhi	r9,16339
  803b04:	4a5104c4 	addi	r9,r9,17427
  803b08:	480f883a 	mov	r7,r9
  803b0c:	400d883a 	mov	r6,r8
  803b10:	180b883a 	mov	r5,r3
  803b14:	1009883a 	mov	r4,r2
  803b18:	0809c640 	call	809c64 <__muldf3>
  803b1c:	180f883a 	mov	r7,r3
  803b20:	880b883a 	mov	r5,r17
  803b24:	100d883a 	mov	r6,r2
  803b28:	8009883a 	mov	r4,r16
  803b2c:	0809bf00 	call	809bf0 <__adddf3>
  803b30:	1009883a 	mov	r4,r2
  803b34:	180b883a 	mov	r5,r3
  803b38:	1021883a 	mov	r16,r2
  803b3c:	1823883a 	mov	r17,r3
  803b40:	080a6200 	call	80a620 <__fixdfsi>
  803b44:	000d883a 	mov	r6,zero
  803b48:	000f883a 	mov	r7,zero
  803b4c:	8009883a 	mov	r4,r16
  803b50:	880b883a 	mov	r5,r17
  803b54:	d8800d15 	stw	r2,52(sp)
  803b58:	080a4a00 	call	80a4a0 <__ltdf2>
  803b5c:	10031716 	blt	r2,zero,8047bc <_dtoa_r+0xe8c>
  803b60:	d8c00d17 	ldw	r3,52(sp)
  803b64:	00800584 	movi	r2,22
  803b68:	10c1482e 	bgeu	r2,r3,80408c <_dtoa_r+0x75c>
  803b6c:	01000044 	movi	r4,1
  803b70:	d9000c15 	stw	r4,48(sp)
  803b74:	bd85c83a 	sub	r2,r23,r22
  803b78:	11bfffc4 	addi	r6,r2,-1
  803b7c:	30030b16 	blt	r6,zero,8047ac <_dtoa_r+0xe7c>
  803b80:	d9800a15 	stw	r6,40(sp)
  803b84:	d8001115 	stw	zero,68(sp)
  803b88:	d8c00d17 	ldw	r3,52(sp)
  803b8c:	1802ff16 	blt	r3,zero,80478c <_dtoa_r+0xe5c>
  803b90:	d9000a17 	ldw	r4,40(sp)
  803b94:	d8c00915 	stw	r3,36(sp)
  803b98:	d8001015 	stw	zero,64(sp)
  803b9c:	20c9883a 	add	r4,r4,r3
  803ba0:	d9000a15 	stw	r4,40(sp)
  803ba4:	d9001717 	ldw	r4,92(sp)
  803ba8:	00800244 	movi	r2,9
  803bac:	11004636 	bltu	r2,r4,803cc8 <_dtoa_r+0x398>
  803bb0:	00800144 	movi	r2,5
  803bb4:	11020416 	blt	r2,r4,8043c8 <_dtoa_r+0xa98>
  803bb8:	04400044 	movi	r17,1
  803bbc:	d8c01717 	ldw	r3,92(sp)
  803bc0:	00800144 	movi	r2,5
  803bc4:	10c1ed36 	bltu	r2,r3,80437c <_dtoa_r+0xa4c>
  803bc8:	18c5883a 	add	r2,r3,r3
  803bcc:	1085883a 	add	r2,r2,r2
  803bd0:	00c02034 	movhi	r3,128
